
/root/.jenkins/workspace/cr1821_v3.0.0_release_build/fsbl/build/cv1823a_wevb_0007a_spinand/bl2/bl2.elf:     file format elf64-littleaarch64
/root/.jenkins/workspace/cr1821_v3.0.0_release_build/fsbl/build/cv1823a_wevb_0007a_spinand/bl2/bl2.elf
architecture: aarch64, flags 0x00000112:
EXEC_P, HAS_SYMS, D_PAGED
start address 0x0000000040100000

Program Header:
    LOAD off    0x0000000000010000 vaddr 0x0000000040100000 paddr 0x0000000040100000 align 2**16
         filesz 0x000000000000ba40 memsz 0x0000000000012cd0 flags rwx
   STACK off    0x0000000000000000 vaddr 0x0000000000000000 paddr 0x0000000000000000 align 2**4
         filesz 0x0000000000000000 memsz 0x0000000000000000 flags rw-
private flags = 0:

Sections:
Idx Name          Size      VMA               LMA               File off  Algn
  0 ro            0000b851  0000000040100000  0000000040100000  00010000  2**11
                  CONTENTS, ALLOC, LOAD, READONLY, CODE
  1 .data         000001ef  000000004010b851  000000004010b851  0001b851  2**3
                  CONTENTS, ALLOC, LOAD, DATA
  2 stacks        00002000  000000004010ba40  000000004010ba40  0001ba40  2**0
                  ALLOC
  3 .bss          000050d0  000000004010dc00  000000004010dc00  0001ba40  2**9
                  ALLOC
  4 .debug_info   0006025f  0000000000000000  0000000000000000  0001ba40  2**0
                  CONTENTS, READONLY, DEBUGGING
  5 .debug_abbrev 000030fa  0000000000000000  0000000000000000  0007bc9f  2**0
                  CONTENTS, READONLY, DEBUGGING
  6 .debug_aranges 000018f0  0000000000000000  0000000000000000  0007eda0  2**4
                  CONTENTS, READONLY, DEBUGGING
  7 .debug_macro  0000567e  0000000000000000  0000000000000000  00080690  2**0
                  CONTENTS, READONLY, DEBUGGING
  8 .debug_line   000141b5  0000000000000000  0000000000000000  00085d0e  2**0
                  CONTENTS, READONLY, DEBUGGING
  9 .debug_str    00015408  0000000000000000  0000000000000000  00099ec3  2**0
                  CONTENTS, READONLY, DEBUGGING
 10 .comment      0000002d  0000000000000000  0000000000000000  000af2cb  2**0
                  CONTENTS, READONLY
 11 .debug_ranges 00026c90  0000000000000000  0000000000000000  000af300  2**4
                  CONTENTS, READONLY, DEBUGGING
 12 .debug_frame  00003868  0000000000000000  0000000000000000  000d5f90  2**3
                  CONTENTS, READONLY, DEBUGGING
 13 .debug_loc    000c9445  0000000000000000  0000000000000000  000d97f8  2**0
                  CONTENTS, READONLY, DEBUGGING
SYMBOL TABLE:
0000000040100000 l    d  ro	0000000000000000 ro
000000004010b851 l    d  .data	0000000000000000 .data
000000004010ba40 l    d  stacks	0000000000000000 stacks
000000004010dc00 l    d  .bss	0000000000000000 .bss
0000000000000000 l    d  .debug_info	0000000000000000 .debug_info
0000000000000000 l    d  .debug_abbrev	0000000000000000 .debug_abbrev
0000000000000000 l    d  .debug_aranges	0000000000000000 .debug_aranges
0000000000000000 l    d  .debug_macro	0000000000000000 .debug_macro
0000000000000000 l    d  .debug_line	0000000000000000 .debug_line
0000000000000000 l    d  .debug_str	0000000000000000 .debug_str
0000000000000000 l    d  .comment	0000000000000000 .comment
0000000000000000 l    d  .debug_ranges	0000000000000000 .debug_ranges
0000000000000000 l    d  .debug_frame	0000000000000000 .debug_frame
0000000000000000 l    d  .debug_loc	0000000000000000 .debug_loc
0000000000000000 l    df *ABS*	0000000000000000 /root/.jenkins/workspace/cr1821_v3.0.0_release_build/fsbl/build/cv1823a_wevb_0007a_spinand/bl2/bl2_entrypoint.o
00000000401000a0 l     F ro	000000000000001c disable_mmu_el3
00000000401000a4 l       ro	0000000000000000 do_disable_mmu
00000000401000bc l     F ro	0000000000000008 disable_mmu_icache_el3
0000000000000000 l    df *ABS*	0000000000000000 /root/.jenkins/workspace/cr1821_v3.0.0_release_build/fsbl/build/cv1823a_wevb_0007a_spinand/bl2/bl2_exceptions.o
0000000040100800 l       ro	0000000000000000 SynchronousExceptionSP0
0000000040100880 l       ro	0000000000000000 IrqSP0
0000000040100900 l       ro	0000000000000000 FiqSP0
0000000040100980 l       ro	0000000000000000 SErrorSP0
0000000040100a00 l       ro	0000000000000000 SynchronousExceptionSPx
0000000040100a80 l       ro	0000000000000000 IrqSPx
0000000040100b00 l       ro	0000000000000000 FiqSPx
0000000040100b80 l       ro	0000000000000000 SErrorSPx
0000000040100c00 l       ro	0000000000000000 SynchronousExceptionA64
0000000040100f8c l       ro	0000000000000000 unexpected_sync_exception
000000004010add8 l     F ro	0000000000000014 smc_handler64
0000000040100c80 l       ro	0000000000000000 IrqA64
0000000040100d00 l       ro	0000000000000000 FiqA64
0000000040100d80 l       ro	0000000000000000 SErrorA64
0000000040100e00 l       ro	0000000000000000 SynchronousExceptionA32
0000000040100e80 l       ro	0000000000000000 IrqA32
0000000040100f00 l       ro	0000000000000000 FiqA32
0000000040100f80 l       ro	0000000000000000 SErrorA32
0000000000000000 l    df *ABS*	0000000000000000 cpu_helper.c
0000000000000000 l    df *ABS*	0000000000000000 delay_timer.c
0000000000000000 l    df *ABS*	0000000000000000 bl2_helper.c
0000000040112c00 l     O .bss	0000000000000088 next_info
000000004010aff0 l     O ro	0000000000000010 __func__.4011
0000000000000000 l    df *ABS*	0000000000000000 tf_printf.c
00000000401011e0 l     F ro	00000000000000a4 unsigned_num_print
0000000000000000 l    df *ABS*	0000000000000000 platform.c
0000000000000000 l    df *ABS*	0000000000000000 security.c
0000000000000000 l    df *ABS*	0000000000000000 mem.c
0000000000000000 l    df *ABS*	0000000000000000 putchar.c
0000000000000000 l    df *ABS*	0000000000000000 bl2_main.c
0000000040101ea4 l     F ro	0000000000000020 read_time_ms
000000004010dc00 l     O .bss	0000000000001000 fip_param2
000000004010ec00 l     O .bss	0000000000004000 sram_union_buf
0000000000000000 l    df *ABS*	0000000000000000 decompress.c
0000000040102828 l     F ro	0000000000000004 SzFree
000000004010282c l     F ro	0000000000000054 SzAlloc
0000000040112c88 l     O .bss	0000000000000008 comp_alloc_buf
0000000040112c90 l     O .bss	0000000000000008 comp_alloc_size
000000004010b4f0 l     O ro	0000000000000008 __func__.4250
000000004010b4f8 l     O ro	0000000000000010 __func__.4267
0000000000000000 l    df *ABS*	0000000000000000 LzmaDec.c
0000000040102bac l     F ro	0000000000000088 LzmaDec_WriteRem
0000000040102c34 l     F ro	0000000000001310 LzmaDec_DecodeReal2
0000000040103f44 l     F ro	0000000000000614 LzmaDec_TryDummy
00000000401048e8 l     F ro	0000000000000088 LzmaDec_AllocateProbs2.isra.1
0000000000000000 l    df *ABS*	0000000000000000 lz4_all.c
0000000040104b38 l     F ro	0000000000000024 LZ4F_readLE32
0000000040104b5c l     F ro	0000000000000734 LZ4_decompress_safe_withSmallPrefix
0000000040105290 l     F ro	000000000000017c LZ4F_updateDict
0000000040106c0c l     F ro	0000000000000228 LZ4F_decodeHeader
000000004010b648 l     O ro	0000000000000020 blockSizes.4903
000000004010b668 l     O ro	0000000000000020 dec64table
000000004010b688 l     O ro	0000000000000020 inc32table
0000000000000000 l    df *ABS*	0000000000000000 xxhash.c
000000004010785c l     F ro	0000000000000028 XXH32_avalanche
0000000040107884 l     F ro	0000000000000024 XXH_read32
00000000401078a8 l     F ro	00000000000003bc XXH32_finalize.constprop.1
0000000000000000 l    df *ABS*	0000000000000000 ddr.c
0000000000000000 l    df *ABS*	0000000000000000 ddr_pkg_info.c
0000000000000000 l    df *ABS*	0000000000000000 ddr_sys_bring_up.c
0000000000000000 l    df *ABS*	0000000000000000 ddr_sys.c
0000000000000000 l    df *ABS*	0000000000000000 phy_pll_init.c
0000000000000000 l    df *ABS*	0000000000000000 cvx16_pinmux.c
0000000000000000 l    df *ABS*	0000000000000000 cvx16_dram_cap_check.c
0000000000000000 l    df *ABS*	0000000000000000 ddrc_init.c
0000000000000000 l    df *ABS*	0000000000000000 phy_init.c
0000000000000000 l    df *ABS*	0000000000000000 /root/.jenkins/workspace/cr1821_v3.0.0_release_build/fsbl/build/cv1823a_wevb_0007a_spinand/bl2/cache_helpers.o
000000004010ae2c l       ro	0000000000000000 exit_loop_civac
000000004010ae18 l       ro	0000000000000000 loop_civac
0000000000000000 l    df *ABS*	0000000000000000 /root/.jenkins/workspace/cr1821_v3.0.0_release_build/fsbl/build/cv1823a_wevb_0007a_spinand/bl2/misc_helpers.o
000000004010ae38 l     F ro	00000000000000f4 zeromem_dczva
0000000000000000 l    df *ABS*	0000000000000000 /root/.jenkins/workspace/cr1821_v3.0.0_release_build/fsbl/build/cv1823a_wevb_0007a_spinand/bl2/console.o
0000000000000000 l    df *ABS*	0000000000000000 /root/.jenkins/workspace/cr1821_v3.0.0_release_build/fsbl/build/cv1823a_wevb_0007a_spinand/bl2/16550_console_aarch64.o
000000004010af78 l       ro	0000000000000000 putc_error
000000004010af9c l       ro	0000000000000000 flush_error
0000000000000000 l    df *ABS*	0000000000000000 
0000000000000000 l    df *ABS*	0000000000000000 ddr_patch_regs.c
0000000040108440 g     F ro	000000000000000c get_ddr_vendor
000000004010b870 g     O .data	00000000000001c8 ddr_patch_regs
0000000040100fdc g     F ro	000000000000000c mdelay
0000000040100800 g       ro	0000000000000000 bl2_exceptions
0000000040112ca0 g     O .bss	0000000000000004 tar_freq
000000004010b860 g     O .data	0000000000000008 time_records
0000000040000100 g       *ABS*	0000000000000000 p_rom_api_cryptodma_aes_decrypt
0000000040112ca4 g     O .bss	0000000000000004 freq_in
000000004010ae30 g     F ro	0000000000000008 zeromem
0000000040101f94 g     F ro	00000000000000b4 load_ddr_param
000000004010afc8 g     O ro	000000000000000e version_string
0000000040000080 g       *ABS*	0000000000000000 p_rom_api_flash_init
0000000040101ccc g     F ro	0000000000000008 dec_verify_image
0000000040101e2c g     F ro	0000000000000078 putchar_l
0000000040102a0c g     F ro	0000000000000004 LZ4_free
0000000040000020 g       *ABS*	0000000000000000 p_rom_api_get_boot_src
00000000401011b8 g     F ro	0000000000000004 jump_to_loader_2nd
00000000401010dc g     F ro	00000000000000dc jump_to_monitor
0000000040112ca8 g     O .bss	0000000000000008 reg_step
0000000040101de4 g     F ro	0000000000000048 memmove
00000000401086c4 g     F ro	0000000000000084 cvx16_bist_wr_prbs_init
000000004010540c g     F ro	000000000000073c LZ4_decompress_safe
000000004010006c g     F ro	0000000000000000 call_with_eret
0000000040109084 g     F ro	000000000000006c cvx16_ddr_phy_power_on_seq1
00000000401000c4 g     F ro	000000000000001c jump_bl31
0000000040104570 g     F ro	0000000000000348 LzmaDec_DecodeToDic
0000000040108854 g     F ro	0000000000000078 cvx16_bist_rdglvl_init
00000000401087dc g     F ro	0000000000000078 cvx16_bist_wrlvl_init
000000004010afa8 g     O ro	000000000000001a build_message
0000000040109c28 g     F ro	0000000000000228 cvx16_wdqlvl_req
000000004010b860 g       .data	0000000000000000 __DATA_START__
0000000040101634 g     F ro	0000000000000118 __system_reset
0000000040101b54 g     F ro	0000000000000080 switch_rtc_mode_2nd_stage
000000004010265c g     F ro	000000000000010c load_rest
0000000040109228 g     F ro	0000000000000040 cvx16_set_dfi_init_complete
00000000401091b4 g     F ro	0000000000000054 cvx16_wait_for_dfi_init_complete
00000000401095c4 g     F ro	0000000000000248 cvx16_wrlvl_req
00000000401099b4 g     F ro	0000000000000274 cvx16_rdlvl_req
0000000040101d50 g     F ro	0000000000000094 memcpy
0000000040108a38 g     F ro	0000000000000120 cvx16_bist_wdqlvl_init
000000004010ae38 g     F ro	00000000000000f4 zero_normalmem
000000004010af3c g     F ro	0000000000000044 console_core_putc
000000004010a7b0 g     F ro	000000000000002c ctrl_init_low_patch
0000000040104558 g     F ro	0000000000000018 LzmaDec_Init
00000000401022d0 g     F ro	0000000000000140 load_monitor
0000000040112c98 g     O .bss	0000000000000001 pkg
000000004010da40 g       stacks	0000000000000000 __STACKS_END__
0000000040108ee4 g     F ro	0000000000000028 cvx16_clk_div40
000000004010174c g     F ro	0000000000000040 panic_handler
000000004010a4a8 g     F ro	0000000000000004 cvx16_dram_cap_check
0000000040108bec g     F ro	0000000000000088 cvx16_bist_start_check
0000000040112cb0 g     O .bss	0000000000000004 mod_freq
00000000400000e0 g       *ABS*	0000000000000000 p_rom_api_verify_rsa
00000000401011bc g     F ro	0000000000000024 bl2_smc_handler
0000000040109e50 g     F ro	0000000000000004 cvx16_en_rec_vol_mode
0000000040100fe8 g     F ro	0000000000000010 read_count_tick
000000004010952c g     F ro	0000000000000098 cvx16_clk_gating_enable
0000000040102af0 g     F ro	00000000000000bc decompress
0000000040108748 g     F ro	0000000000000094 cvx16_bist_wr_sram_init
00000000000050d0 g       *ABS*	0000000000000000 __BSS_SIZE__
0000000040109150 g     F ro	0000000000000064 cvx16_ddr_phy_power_on_seq3
000000004010af2c g     F ro	0000000000000008 console_putc
0000000040100fa4 g     F ro	0000000000000004 cpu_report_exception
0000000040112c9c g     O .bss	0000000000000004 rddata
0000000040108f0c g     F ro	0000000000000178 cvx16_chg_pll_freq
000000004010adf8 g     F ro	0000000000000038 flush_dcache_range
0000000040101aac g     F ro	00000000000000a8 switch_rtc_mode_1st_stage
0000000040101bd4 g     F ro	00000000000000f4 set_rtc_en_registers
0000000040101ec4 g     F ro	00000000000000d0 load_param2
0000000040106e7c g     F ro	00000000000009e0 LZ4F_decompress
000000004010a0ac g     F ro	00000000000003fc cvx16_pinmux
0000000040108db0 g     F ro	0000000000000080 cvx16_dll_cal
00000000401094d8 g     F ro	0000000000000054 cvx16_clk_gating_disable
0000000040106e34 g     F ro	0000000000000048 LZ4F_createDecompressionContext
0000000040112cd0 g       .bss	0000000000000000 __BL2_END__
00000000401090f0 g     F ro	0000000000000060 cvx16_ddr_phy_power_on_seq2
0000000040109268 g     F ro	0000000000000038 cvx16_INT_ISR_08
00000000401062b0 g     F ro	00000000000008e8 LZ4_decompress_safe_forceExtDict
00000000401049f8 g     F ro	000000000000004c LzmaDec_AllocateProbs
00000000401093cc g     F ro	000000000000010c cvx16_pll_init
0000000040102768 g     F ro	00000000000000c0 bl2_main
000000004010ba40 g       .data	0000000000000000 __DATA_END__
00000000401048b8 g     F ro	0000000000000030 LzmaDec_FreeProbs
0000000040102880 g     F ro	0000000000000144 decompress_lzma
0000000040108b58 g     F ro	0000000000000094 cvx16_bist_wdmlvl_init
0000000040100fa8 g     F ro	0000000000000034 udelay
0000000040109208 g     F ro	0000000000000020 cvx16_polling_dfi_init_start
00000000401088cc g     F ro	000000000000016c cvx16_bist_rdlvl_init
0000000040112c99 g     O .bss	0000000000000001 ddr_vendor
00000000400000a0 g       *ABS*	0000000000000000 p_rom_api_image_crc
0000000040100000 g     F ro	0000000000000064 bl2_entrypoint
0000000040102410 g     F ro	000000000000024c load_loader_2nd
000000004010844c g     F ro	000000000000000c get_pkg
0000000040101cc8 g     F ro	0000000000000004 init_comm_info
0000000040112cb4 g     O .bss	0000000000000004 dev_freq
0000000040100ff8 g     F ro	00000000000000e4 switch_el3_to_el2_ns
0000000040101848 g     F ro	0000000000000014 sys_switch_all_to_pll
0000000040112cd0 g       .bss	0000000000000000 __BSS_END__
000000004010817c g     F ro	00000000000002c4 read_ddr_pkg_info
0000000040000040 g       *ABS*	0000000000000000 p_rom_api_set_boot_src
0000000040104970 g     F ro	0000000000000088 LzmaProps_Decode
000000004010935c g     F ro	0000000000000034 cvx16_setting_check
000000004010213c g     F ro	0000000000000194 load_blcp_2nd
0000000040112cb8 g     O .bss	0000000000000008 reg_span
0000000040108e30 g     F ro	000000000000008c cvx16_clk_normal
0000000040101cd4 g     F ro	000000000000007c memset
0000000040107ec8 g     F ro	000000000000021c XXH32_update
000000004010a7dc g     F ro	00000000000000e0 ctrl_init_update_by_dram_size
0000000040107e50 g     F ro	0000000000000078 XXH32_reset
0000000040107c64 g     F ro	00000000000001ec XXH32
0000000040108c74 g     F ro	0000000000000098 cvx16_rdvld_train
000000004010a4ac g     F ro	00000000000002d8 ddrc_init
0000000040105b48 g     F ro	0000000000000768 LZ4_decompress_safe_withPrefix64k
0000000040101284 g     F ro	00000000000003b0 tf_printf
000000004010af80 g     F ro	0000000000000024 console_core_flush
00000000401029d0 g     F ro	000000000000003c LZ4_calloc
000000004010af34 g     F ro	0000000000000008 console_flush
000000004010b851 g       ro	0000000000000000 __RO_END__
0000000040000060 g       *ABS*	0000000000000000 p_rom_api_load_image
0000000040106bd0 g     F ro	000000000000000c LZ4F_isError
000000004010dc00 g       .bss	0000000000000000 __BSS_START__
0000000040100000 g       ro	0000000000000000 __RO_START__
000000004010980c g     F ro	00000000000001a8 cvx16_rdglvl_req
0000000040100020 g       ro	0000000000000000 bl2_entrypoint_real
00000000401092a0 g     F ro	0000000000000028 cvx16_polling_synp_normal_mode
0000000040106b98 g     F ro	0000000000000038 LZ4_decompress_safe_usingDict
00000000401029c4 g     F ro	000000000000000c LZ4_malloc
0000000040109e54 g     F ro	00000000000001a4 ctrl_init_detect_dram_size
00000000400000c0 g       *ABS*	0000000000000000 p_rom_api_get_number_of_retries
0000000040100f98 g     F ro	000000000000000c sync_cache
00000000401017fc g     F ro	000000000000004c setup_dl_flag
000000004010178c g     F ro	0000000000000070 reset_c906l
0000000040112cc0 g     O .bss	0000000000000008 reg_set
0000000040104a44 g     F ro	00000000000000f4 LzmaDecode
000000004010ba40 g       stacks	0000000000000000 __STACKS_START__
000000004010185c g     F ro	0000000000000250 sys_pll_init
000000004010ba38 g     O .data	0000000000000004 ddr_patch_regs_count
000000004010b868 g     O .data	0000000000000004 ddr_data_rate
00000000401092c8 g     F ro	0000000000000094 cvx16_dfi_ca_park_prbs
0000000040112c9a g     O .bss	0000000000000001 ddr_type
0000000040108458 g     F ro	000000000000026c ddr_sys_bring_up
0000000040100064 g     F ro	0000000000000000 call_with_eret_to_next
00000000401080e4 g     F ro	0000000000000054 XXH32_digest
0000000040108138 g     F ro	0000000000000044 ddr_init
0000000040102a10 g     F ro	00000000000000e0 decompress_lz4
0000000040106bdc g     F ro	0000000000000030 LZ4F_getBlockSize
0000000040112c9b g     O .bss	0000000000000001 ddr_capacity
0000000040109390 g     F ro	000000000000003c cvx16_set_dfi_init_start
000000004010a784 g     F ro	000000000000002c ctrl_init_high_patch
0000000040102048 g     F ro	00000000000000f4 load_ddr
0000000040108d0c g     F ro	00000000000000a4 cvx16_synp_mrw
0000000040108ebc g     F ro	0000000000000028 cvx16_clk_div2
000000004010a8bc g     F ro	0000000000000518 phy_init
0000000040109ff8 g     F ro	00000000000000b4 pll_init



Disassembly of section ro:

0000000040100000 <bl2_entrypoint>:
    40100000:	14000008 	b	40100020 <bl2_entrypoint_real>
	...

0000000040100020 <bl2_entrypoint_real>:
    40100020:	52b6400e 	mov	w14, #0xb2000000            	// #-1308622848
    40100024:	d280108f 	mov	x15, #0x84                  	// #132
    40100028:	f2a0600f 	movk	x15, #0x300, lsl #16
    4010002c:	b90001ee 	str	w14, [x15]
    40100030:	d508751f 	ic	iallu
    40100034:	d5033fdf 	isb
    40100038:	10003e40 	adr	x0, 40100800 <bl2_exceptions>
    4010003c:	d51ec000 	msr	vbar_el3, x0
    40100040:	d5033fdf 	isb
    40100044:	d50344ff 	msr	daifclr, #0x4
    40100048:	58000200 	ldr	x0, 40100088 <call_with_eret+0x1c>
    4010004c:	58000221 	ldr	x1, 40100090 <call_with_eret+0x24>
    40100050:	94002b78 	bl	4010ae30 <zeromem>
    40100054:	58000220 	ldr	x0, 40100098 <call_with_eret+0x2c>
    40100058:	9100001f 	mov	sp, x0
    4010005c:	940009c3 	bl	40102768 <bl2_main>
    40100060:	940005bb 	bl	4010174c <panic_handler>

0000000040100064 <call_with_eret_to_next>:
    40100064:	aa1e03e9 	mov	x9, x30
    40100068:	14000002 	b	40100070 <call_with_eret+0x4>

000000004010006c <call_with_eret>:
    4010006c:	aa0003e9 	mov	x9, x0
    40100070:	d51e4029 	msr	elr_el3, x9
    40100074:	d53ec009 	mrs	x9, vbar_el3
    40100078:	d51cc009 	msr	vbar_el2, x9
    4010007c:	d69f03e0 	eret
    40100080:	14000000 	b	40100080 <call_with_eret+0x14>
    40100084:	00000000 	.inst	0x00000000 ; undefined
    40100088:	4010dc00 	.word	0x4010dc00
    4010008c:	00000000 	.word	0x00000000
    40100090:	000050d0 	.word	0x000050d0
    40100094:	00000000 	.word	0x00000000
    40100098:	4010da40 	.word	0x4010da40
    4010009c:	00000000 	.word	0x00000000

00000000401000a0 <disable_mmu_el3>:
    401000a0:	d28000a1 	mov	x1, #0x5                   	// #5

00000000401000a4 <do_disable_mmu>:
    401000a4:	d53e1000 	mrs	x0, sctlr_el3
    401000a8:	8a210000 	bic	x0, x0, x1
    401000ac:	d51e1000 	msr	sctlr_el3, x0
    401000b0:	d5033fdf 	isb
    401000b4:	d5033f9f 	dsb	sy
    401000b8:	d65f03c0 	ret

00000000401000bc <disable_mmu_icache_el3>:
    401000bc:	d28200a1 	mov	x1, #0x1005                	// #4101
    401000c0:	17fffff9 	b	401000a4 <do_disable_mmu>

00000000401000c4 <jump_bl31>:
    401000c4:	aa0003f4 	mov	x20, x0
    401000c8:	aa0103f5 	mov	x21, x1
    401000cc:	97fffffc 	bl	401000bc <disable_mmu_icache_el3>
    401000d0:	d50e871f 	tlbi	alle3
    401000d4:	aa1503e0 	mov	x0, x21
    401000d8:	aa1f03e1 	mov	x1, xzr
    401000dc:	d63f0280 	blr	x20
	...

0000000040100800 <bl2_exceptions>:
    40100800:	d2800000 	mov	x0, #0x0                   	// #0
    40100804:	940001e8 	bl	40100fa4 <cpu_report_exception>
    40100808:	940003d1 	bl	4010174c <panic_handler>
	...

0000000040100880 <IrqSP0>:
    40100880:	d2800020 	mov	x0, #0x1                   	// #1
    40100884:	940001c8 	bl	40100fa4 <cpu_report_exception>
    40100888:	940003b1 	bl	4010174c <panic_handler>
	...

0000000040100900 <FiqSP0>:
    40100900:	d2800040 	mov	x0, #0x2                   	// #2
    40100904:	940001a8 	bl	40100fa4 <cpu_report_exception>
    40100908:	94000391 	bl	4010174c <panic_handler>
	...

0000000040100980 <SErrorSP0>:
    40100980:	d2800060 	mov	x0, #0x3                   	// #3
    40100984:	94000188 	bl	40100fa4 <cpu_report_exception>
    40100988:	94000371 	bl	4010174c <panic_handler>
	...

0000000040100a00 <SynchronousExceptionSPx>:
    40100a00:	d2800080 	mov	x0, #0x4                   	// #4
    40100a04:	94000168 	bl	40100fa4 <cpu_report_exception>
    40100a08:	94000351 	bl	4010174c <panic_handler>
	...

0000000040100a80 <IrqSPx>:
    40100a80:	d28000a0 	mov	x0, #0x5                   	// #5
    40100a84:	94000148 	bl	40100fa4 <cpu_report_exception>
    40100a88:	94000331 	bl	4010174c <panic_handler>
	...

0000000040100b00 <FiqSPx>:
    40100b00:	d28000c0 	mov	x0, #0x6                   	// #6
    40100b04:	94000128 	bl	40100fa4 <cpu_report_exception>
    40100b08:	94000311 	bl	4010174c <panic_handler>
	...

0000000040100b80 <SErrorSPx>:
    40100b80:	d28000e0 	mov	x0, #0x7                   	// #7
    40100b84:	94000108 	bl	40100fa4 <cpu_report_exception>
    40100b88:	940002f1 	bl	4010174c <panic_handler>
	...

0000000040100c00 <SynchronousExceptionA64>:
    40100c00:	d50344ff 	msr	daifclr, #0x4
    40100c04:	d53e521e 	mrs	x30, esr_el3
    40100c08:	d35a7fde 	ubfx	x30, x30, #26, #6
    40100c0c:	f1005fdf 	cmp	x30, #0x17
    40100c10:	54001be1 	b.ne	40100f8c <unexpected_sync_exception>
    40100c14:	14002871 	b	4010add8 <smc_handler64>
	...

0000000040100c80 <IrqA64>:
    40100c80:	d2800120 	mov	x0, #0x9                   	// #9
    40100c84:	940000c8 	bl	40100fa4 <cpu_report_exception>
    40100c88:	940002b1 	bl	4010174c <panic_handler>
	...

0000000040100d00 <FiqA64>:
    40100d00:	d2800140 	mov	x0, #0xa                   	// #10
    40100d04:	940000a8 	bl	40100fa4 <cpu_report_exception>
    40100d08:	94000291 	bl	4010174c <panic_handler>
	...

0000000040100d80 <SErrorA64>:
    40100d80:	d2800160 	mov	x0, #0xb                   	// #11
    40100d84:	94000088 	bl	40100fa4 <cpu_report_exception>
    40100d88:	94000271 	bl	4010174c <panic_handler>
	...

0000000040100e00 <SynchronousExceptionA32>:
    40100e00:	d2800180 	mov	x0, #0xc                   	// #12
    40100e04:	94000068 	bl	40100fa4 <cpu_report_exception>
    40100e08:	94000251 	bl	4010174c <panic_handler>
	...

0000000040100e80 <IrqA32>:
    40100e80:	d28001a0 	mov	x0, #0xd                   	// #13
    40100e84:	94000048 	bl	40100fa4 <cpu_report_exception>
    40100e88:	94000231 	bl	4010174c <panic_handler>
	...

0000000040100f00 <FiqA32>:
    40100f00:	d28001c0 	mov	x0, #0xe                   	// #14
    40100f04:	94000028 	bl	40100fa4 <cpu_report_exception>
    40100f08:	94000211 	bl	4010174c <panic_handler>
	...

0000000040100f80 <SErrorA32>:
    40100f80:	d28001e0 	mov	x0, #0xf                   	// #15
    40100f84:	94000008 	bl	40100fa4 <cpu_report_exception>
    40100f88:	940001f1 	bl	4010174c <panic_handler>

0000000040100f8c <unexpected_sync_exception>:
    40100f8c:	d2800100 	mov	x0, #0x8                   	// #8
    40100f90:	94000005 	bl	40100fa4 <cpu_report_exception>
    40100f94:	940001ee 	bl	4010174c <panic_handler>

0000000040100f98 <sync_cache>:
    40100f98:	d508751f 	ic	iallu
    40100f9c:	d5033fdf 	isb
    40100fa0:	d65f03c0 	ret

0000000040100fa4 <cpu_report_exception>:
    40100fa4:	d65f03c0 	ret

0000000040100fa8 <udelay>:
    40100fa8:	d53be022 	mrs	x2, cntpct_el0
    40100fac:	52800321 	mov	w1, #0x19                  	// #25
    40100fb0:	2a2203e2 	mvn	w2, w2
    40100fb4:	1b017c00 	mul	w0, w0, w1
    40100fb8:	d2801101 	mov	x1, #0x88                  	// #136
    40100fbc:	f2a06001 	movk	x1, #0x300, lsl #16
    40100fc0:	b9000020 	str	w0, [x1]
    40100fc4:	d53be021 	mrs	x1, cntpct_el0
    40100fc8:	2a2103e1 	mvn	w1, w1
    40100fcc:	4b010041 	sub	w1, w2, w1
    40100fd0:	6b01001f 	cmp	w0, w1
    40100fd4:	54ffff88 	b.hi	40100fc4 <udelay+0x1c>
    40100fd8:	d65f03c0 	ret

0000000040100fdc <mdelay>:
    40100fdc:	52807d01 	mov	w1, #0x3e8                 	// #1000
    40100fe0:	1b017c00 	mul	w0, w0, w1
    40100fe4:	17fffff1 	b	40100fa8 <udelay>

0000000040100fe8 <read_count_tick>:
    40100fe8:	d53be020 	mrs	x0, cntpct_el0
    40100fec:	d2800321 	mov	x1, #0x19                  	// #25
    40100ff0:	9ac10800 	udiv	x0, x0, x1
    40100ff4:	d65f03c0 	ret

0000000040100ff8 <switch_el3_to_el2_ns>:
    40100ff8:	a9bd7bfd 	stp	x29, x30, [sp,#-48]!
    40100ffc:	aa0003e1 	mov	x1, x0
    40101000:	910003fd 	mov	x29, sp
    40101004:	a90153f3 	stp	x19, x20, [sp,#16]
    40101008:	aa0003f4 	mov	x20, x0
    4010100c:	f90013f5 	str	x21, [sp,#32]
    40101010:	d0000040 	adrp	x0, 4010b000 <__func__.4011+0x10>
    40101014:	91002400 	add	x0, x0, #0x9
    40101018:	9400009b 	bl	40101284 <tf_printf>
    4010101c:	d2807900 	mov	x0, #0x3c8                 	// #968
    40101020:	d51e4000 	msr	spsr_el3, x0
    40101024:	d53e1100 	mrs	x0, scr_el3
    40101028:	d2808021 	mov	x1, #0x401                 	// #1025
    4010102c:	aa010000 	orr	x0, x0, x1
    40101030:	d51e1100 	msr	scr_el3, x0
    40101034:	d53c1100 	mrs	x0, hcr_el2
    40101038:	b2610000 	orr	x0, x0, #0x80000000
    4010103c:	d51c1100 	msr	hcr_el2, x0
    40101040:	d2867fe0 	mov	x0, #0x33ff                	// #13311
    40101044:	d51c1140 	msr	cptr_el2, x0
    40101048:	d2800060 	mov	x0, #0x3                   	// #3
    4010104c:	d51ce100 	msr	cnthctl_el2, x0
    40101050:	d2800000 	mov	x0, #0x0                   	// #0
    40101054:	d51ce060 	msr	cntvoff_el2, x0
    40101058:	d5380001 	mrs	x1, midr_el1
    4010105c:	d51c0001 	msr	vpidr_el2, x1
    40101060:	d53800a1 	mrs	x1, mpidr_el1
    40101064:	d51c00a1 	msr	vmpidr_el2, x1
    40101068:	d51c2100 	msr	vttbr_el2, x0
    4010106c:	d53b9c01 	mrs	x1, pmcr_el0
    40101070:	d34b3c21 	ubfx	x1, x1, #11, #5
    40101074:	d51c1121 	msr	mdcr_el2, x1
    40101078:	d51c1160 	msr	hstr_el2, x0
    4010107c:	d51ce220 	msr	cnthp_ctl_el2, x0
    40101080:	d2801093 	mov	x19, #0x84                  	// #132
    40101084:	529e0020 	mov	w0, #0xf001                	// #61441
    40101088:	f2a06013 	movk	x19, #0x300, lsl #16
    4010108c:	72b64000 	movk	w0, #0xb200, lsl #16
    40101090:	b9000260 	str	w0, [x19]
    40101094:	d0000040 	adrp	x0, 4010b000 <__func__.4011+0x10>
    40101098:	f9443015 	ldr	x21, [x0,#2144]
    4010109c:	97ffffd3 	bl	40100fe8 <read_count_tick>
    401010a0:	110f9c00 	add	w0, w0, #0x3e7
    401010a4:	52807d01 	mov	w1, #0x3e8                 	// #1000
    401010a8:	1ac10800 	udiv	w0, w0, w1
    401010ac:	39003aa0 	strb	w0, [x21,#14]
    401010b0:	d3483c00 	ubfx	x0, x0, #8, #8
    401010b4:	39003ea0 	strb	w0, [x21,#15]
    401010b8:	aa1403e0 	mov	x0, x20
    401010bc:	97fffbec 	bl	4010006c <call_with_eret>
    401010c0:	f94013f5 	ldr	x21, [sp,#32]
    401010c4:	529e0040 	mov	w0, #0xf002                	// #61442
    401010c8:	72b64000 	movk	w0, #0xb200, lsl #16
    401010cc:	b9000260 	str	w0, [x19]
    401010d0:	a94153f3 	ldp	x19, x20, [sp,#16]
    401010d4:	a8c37bfd 	ldp	x29, x30, [sp],#48
    401010d8:	d65f03c0 	ret

00000000401010dc <jump_to_monitor>:
    401010dc:	a9bb7bfd 	stp	x29, x30, [sp,#-80]!
    401010e0:	910003fd 	mov	x29, sp
    401010e4:	a90153f3 	stp	x19, x20, [sp,#16]
    401010e8:	d2800293 	mov	x19, #0x14                  	// #20
    401010ec:	a9025bf5 	stp	x21, x22, [sp,#32]
    401010f0:	aa1303e2 	mov	x2, x19
    401010f4:	aa0003f5 	mov	x21, x0
    401010f8:	aa0103f6 	mov	x22, x1
    401010fc:	9100e3a0 	add	x0, x29, #0x38
    40101100:	b0000041 	adrp	x1, 4010a000 <pll_init+0x8>
    40101104:	d2800414 	mov	x20, #0x20                  	// #32
    40101108:	913f5821 	add	x1, x1, #0xfd6
    4010110c:	94000311 	bl	40101d50 <memcpy>
    40101110:	f2b00054 	movk	x20, #0x8002, lsl #16
    40101114:	aa1303e2 	mov	x2, x19
    40101118:	9100e3a1 	add	x1, x29, #0x38
    4010111c:	aa1403e0 	mov	x0, x20
    40101120:	9400030c 	bl	40101d50 <memcpy>
    40101124:	b0000080 	adrp	x0, 40112000 <sram_union_buf+0x3400>
    40101128:	91300013 	add	x19, x0, #0xc00
    4010112c:	52800061 	mov	w1, #0x3                   	// #3
    40101130:	39300001 	strb	w1, [x0,#3072]
    40101134:	52800020 	mov	w0, #0x1                   	// #1
    40101138:	39000660 	strb	w0, [x19,#1]
    4010113c:	9100c260 	add	x0, x19, #0x30
    40101140:	f9001260 	str	x0, [x19,#32]
    40101144:	d2800801 	mov	x1, #0x40                  	// #64
    40101148:	b9403660 	ldr	w0, [x19,#52]
    4010114c:	f9001e76 	str	x22, [x19,#56]
    40101150:	32000000 	orr	w0, w0, #0x1
    40101154:	f900267f 	str	xzr, [x19,#72]
    40101158:	b9003660 	str	w0, [x19,#52]
    4010115c:	52807920 	mov	w0, #0x3c9                 	// #969
    40101160:	b9004260 	str	w0, [x19,#64]
    40101164:	aa1403e0 	mov	x0, x20
    40101168:	94002724 	bl	4010adf8 <flush_dcache_range>
    4010116c:	d2801101 	mov	x1, #0x88                  	// #136
    40101170:	aa1303e0 	mov	x0, x19
    40101174:	94002721 	bl	4010adf8 <flush_dcache_range>
    40101178:	d0000040 	adrp	x0, 4010b000 <__func__.4011+0x10>
    4010117c:	f9443014 	ldr	x20, [x0,#2144]
    40101180:	97ffff9a 	bl	40100fe8 <read_count_tick>
    40101184:	110f9c00 	add	w0, w0, #0x3e7
    40101188:	52807d01 	mov	w1, #0x3e8                 	// #1000
    4010118c:	1ac10800 	udiv	w0, w0, w1
    40101190:	aa1303e1 	mov	x1, x19
    40101194:	39003a80 	strb	w0, [x20,#14]
    40101198:	d3483c00 	ubfx	x0, x0, #8, #8
    4010119c:	39003e80 	strb	w0, [x20,#15]
    401011a0:	aa1503e0 	mov	x0, x21
    401011a4:	97fffbc8 	bl	401000c4 <jump_bl31>
    401011a8:	a94153f3 	ldp	x19, x20, [sp,#16]
    401011ac:	a9425bf5 	ldp	x21, x22, [sp,#32]
    401011b0:	a8c57bfd 	ldp	x29, x30, [sp],#80
    401011b4:	d65f03c0 	ret

00000000401011b8 <jump_to_loader_2nd>:
    401011b8:	17ffff90 	b	40100ff8 <switch_el3_to_el2_ns>

00000000401011bc <bl2_smc_handler>:
    401011bc:	a9bf7bfd 	stp	x29, x30, [sp,#-16]!
    401011c0:	b0000041 	adrp	x1, 4010a000 <pll_init+0x8>
    401011c4:	d0000040 	adrp	x0, 4010b000 <__func__.4011+0x10>
    401011c8:	52801fe2 	mov	w2, #0xff                  	// #255
    401011cc:	910003fd 	mov	x29, sp
    401011d0:	913fc021 	add	x1, x1, #0xff0
    401011d4:	91000000 	add	x0, x0, #0x0
    401011d8:	9400002b 	bl	40101284 <tf_printf>
    401011dc:	14000000 	b	401011dc <bl2_smc_handler+0x20>

00000000401011e0 <unsigned_num_print>:
    401011e0:	a9bb7bfd 	stp	x29, x30, [sp,#-80]!
    401011e4:	2a0103e1 	mov	w1, w1
    401011e8:	910003fd 	mov	x29, sp
    401011ec:	a9025bf5 	stp	x21, x22, [sp,#32]
    401011f0:	9100e3b6 	add	x22, x29, #0x38
    401011f4:	2a0203f5 	mov	w21, w2
    401011f8:	a90153f3 	stp	x19, x20, [sp,#16]
    401011fc:	d2800002 	mov	x2, #0x0                   	// #0
    40101200:	9ac10804 	udiv	x4, x0, x1
    40101204:	11000453 	add	w19, w2, #0x1
    40101208:	9b018080 	msub	x0, x4, x1, x0
    4010120c:	7100241f 	cmp	w0, #0x9
    40101210:	5400022c 	b.gt	40101254 <unsigned_num_print+0x74>
    40101214:	1100c000 	add	w0, w0, #0x30
    40101218:	38226ac0 	strb	w0, [x22,x2]
    4010121c:	aa0403e0 	mov	x0, x4
    40101220:	91000442 	add	x2, x2, #0x1
    40101224:	b5fffee4 	cbnz	x4, 40101200 <unsigned_num_print+0x20>
    40101228:	4b130074 	sub	w20, w3, w19
    4010122c:	7100029f 	cmp	w20, #0x0
    40101230:	5400016c 	b.gt	4010125c <unsigned_num_print+0x7c>
    40101234:	51000673 	sub	w19, w19, #0x1
    40101238:	93407e73 	sxtw	x19, w19
    4010123c:	3100067f 	cmn	w19, #0x1
    40101240:	54000181 	b.ne	40101270 <unsigned_num_print+0x90>
    40101244:	a94153f3 	ldp	x19, x20, [sp,#16]
    40101248:	a9425bf5 	ldp	x21, x22, [sp,#32]
    4010124c:	a8c57bfd 	ldp	x29, x30, [sp],#80
    40101250:	d65f03c0 	ret
    40101254:	11015c00 	add	w0, w0, #0x57
    40101258:	17fffff0 	b	40101218 <unsigned_num_print+0x38>
    4010125c:	2a1503e1 	mov	w1, w21
    40101260:	52800600 	mov	w0, #0x30                  	// #48
    40101264:	51000694 	sub	w20, w20, #0x1
    40101268:	940002f1 	bl	40101e2c <putchar_l>
    4010126c:	17fffff0 	b	4010122c <unsigned_num_print+0x4c>
    40101270:	38736ac0 	ldrb	w0, [x22,x19]
    40101274:	2a1503e1 	mov	w1, w21
    40101278:	d1000673 	sub	x19, x19, #0x1
    4010127c:	940002ec 	bl	40101e2c <putchar_l>
    40101280:	17ffffef 	b	4010123c <unsigned_num_print+0x5c>

0000000040101284 <tf_printf>:
    40101284:	a9b67bfd 	stp	x29, x30, [sp,#-160]!
    40101288:	910003fd 	mov	x29, sp
    4010128c:	a90153f3 	stp	x19, x20, [sp,#16]
    40101290:	aa0003f3 	mov	x19, x0
    40101294:	a9025bf5 	stp	x21, x22, [sp,#32]
    40101298:	a90363f7 	stp	x23, x24, [sp,#48]
    4010129c:	a9068ba1 	stp	x1, x2, [x29,#104]
    401012a0:	a90793a3 	stp	x3, x4, [x29,#120]
    401012a4:	a9089ba5 	stp	x5, x6, [x29,#136]
    401012a8:	f9004fa7 	str	x7, [x29,#152]
    401012ac:	b40004e0 	cbz	x0, 40101348 <tf_printf+0xc4>
    401012b0:	39400000 	ldrb	w0, [x0]
    401012b4:	7100041f 	cmp	w0, #0x1
    401012b8:	54000481 	b.ne	40101348 <tf_printf+0xc4>
    401012bc:	39400674 	ldrb	w20, [x19,#1]
    401012c0:	34000454 	cbz	w20, 40101348 <tf_printf+0xc4>
    401012c4:	5100c294 	sub	w20, w20, #0x30
    401012c8:	7100129f 	cmp	w20, #0x4
    401012cc:	540003e8 	b.hi	40101348 <tf_printf+0xc4>
    401012d0:	91000a73 	add	x19, x19, #0x2
    401012d4:	910283a0 	add	x0, x29, #0xa0
    401012d8:	a90403a0 	stp	x0, x0, [x29,#64]
    401012dc:	910183a0 	add	x0, x29, #0x60
    401012e0:	d0000055 	adrp	x21, 4010b000 <__func__.4011+0x10>
    401012e4:	f9002ba0 	str	x0, [x29,#80]
    401012e8:	128006e0 	mov	w0, #0xffffffc8            	// #-56
    401012ec:	b9005fbf 	str	wzr, [x29,#92]
    401012f0:	b9005ba0 	str	w0, [x29,#88]
    401012f4:	39400260 	ldrb	w0, [x19]
    401012f8:	340001e0 	cbz	w0, 40101334 <tf_printf+0xb0>
    401012fc:	7100941f 	cmp	w0, #0x25
    40101300:	91000673 	add	x19, x19, #0x1
    40101304:	54001921 	b.ne	40101628 <tf_printf+0x3a4>
    40101308:	52800002 	mov	w2, #0x0                   	// #0
    4010130c:	52800016 	mov	w22, #0x0                   	// #0
    40101310:	39400260 	ldrb	w0, [x19]
    40101314:	7101c01f 	cmp	w0, #0x70
    40101318:	54000ce0 	b.eq	401014b4 <tf_printf+0x230>
    4010131c:	54000288 	b.hi	4010136c <tf_printf+0xe8>
    40101320:	7101901f 	cmp	w0, #0x64
    40101324:	54000600 	b.eq	401013e4 <tf_printf+0x160>
    40101328:	54000148 	b.hi	40101350 <tf_printf+0xcc>
    4010132c:	7100c01f 	cmp	w0, #0x30
    40101330:	540004c0 	b.eq	401013c8 <tf_printf+0x144>
    40101334:	a94153f3 	ldp	x19, x20, [sp,#16]
    40101338:	a9425bf5 	ldp	x21, x22, [sp,#32]
    4010133c:	a94363f7 	ldp	x23, x24, [sp,#48]
    40101340:	a8ca7bfd 	ldp	x29, x30, [sp],#160
    40101344:	d65f03c0 	ret
    40101348:	52800054 	mov	w20, #0x2                   	// #2
    4010134c:	17ffffe2 	b	401012d4 <tf_printf+0x50>
    40101350:	7101a41f 	cmp	w0, #0x69
    40101354:	54000480 	b.eq	401013e4 <tf_printf+0x160>
    40101358:	7101b01f 	cmp	w0, #0x6c
    4010135c:	54fffec1 	b.ne	40101334 <tf_printf+0xb0>
    40101360:	11000442 	add	w2, w2, #0x1
    40101364:	91000673 	add	x19, x19, #0x1
    40101368:	17ffffea 	b	40101310 <tf_printf+0x8c>
    4010136c:	7101d41f 	cmp	w0, #0x75
    40101370:	540011e0 	b.eq	401015ac <tf_printf+0x328>
    40101374:	540001c8 	b.hi	401013ac <tf_printf+0x128>
    40101378:	7101cc1f 	cmp	w0, #0x73
    4010137c:	54fffdc1 	b.ne	40101334 <tf_printf+0xb0>
    40101380:	b9405ba1 	ldr	w1, [x29,#88]
    40101384:	f94023a0 	ldr	x0, [x29,#64]
    40101388:	37f80801 	tbnz	w1, #31, 40101488 <tf_printf+0x204>
    4010138c:	91003c01 	add	x1, x0, #0xf
    40101390:	927df021 	and	x1, x1, #0xfffffffffffffff8
    40101394:	f90023a1 	str	x1, [x29,#64]
    40101398:	f9400016 	ldr	x22, [x0]
    4010139c:	394002c0 	ldrb	w0, [x22]
    401013a0:	35000820 	cbnz	w0, 401014a4 <tf_printf+0x220>
    401013a4:	91000673 	add	x19, x19, #0x1
    401013a8:	17ffffd3 	b	401012f4 <tf_printf+0x70>
    401013ac:	7101e01f 	cmp	w0, #0x78
    401013b0:	54000ba0 	b.eq	40101524 <tf_printf+0x2a0>
    401013b4:	7101e81f 	cmp	w0, #0x7a
    401013b8:	54fffbe1 	b.ne	40101334 <tf_printf+0xb0>
    401013bc:	91000673 	add	x19, x19, #0x1
    401013c0:	52800042 	mov	w2, #0x2                   	// #2
    401013c4:	17ffffd3 	b	40101310 <tf_printf+0x8c>
    401013c8:	39400660 	ldrb	w0, [x19,#1]
    401013cc:	91000a73 	add	x19, x19, #0x2
    401013d0:	5100c000 	sub	w0, w0, #0x30
    401013d4:	12001c01 	and	w1, w0, #0xff
    401013d8:	7100243f 	cmp	w1, #0x9
    401013dc:	1a8082d6 	csel	w22, w22, w0, hi
    401013e0:	17ffffcc 	b	40101310 <tf_printf+0x8c>
    401013e4:	7100045f 	cmp	w2, #0x1
    401013e8:	b9405ba1 	ldr	w1, [x29,#88]
    401013ec:	f94023a0 	ldr	x0, [x29,#64]
    401013f0:	540001ed 	b.le	4010142c <tf_printf+0x1a8>
    401013f4:	37f802a1 	tbnz	w1, #31, 40101448 <tf_printf+0x1c4>
    401013f8:	91003c01 	add	x1, x0, #0xf
    401013fc:	927df021 	and	x1, x1, #0xfffffffffffffff8
    40101400:	f90023a1 	str	x1, [x29,#64]
    40101404:	f9400017 	ldr	x23, [x0]
    40101408:	b6f803d7 	tbz	x23, #63, 40101480 <tf_printf+0x1fc>
    4010140c:	2a1403e1 	mov	w1, w20
    40101410:	528005a0 	mov	w0, #0x2d                  	// #45
    40101414:	94000286 	bl	40101e2c <putchar_l>
    40101418:	cb1703e0 	neg	x0, x23
    4010141c:	2a1603e3 	mov	w3, w22
    40101420:	2a1403e2 	mov	w2, w20
    40101424:	52800141 	mov	w1, #0xa                   	// #10
    40101428:	14000032 	b	401014f0 <tf_printf+0x26c>
    4010142c:	35fffe42 	cbnz	w2, 401013f4 <tf_printf+0x170>
    40101430:	37f801a1 	tbnz	w1, #31, 40101464 <tf_printf+0x1e0>
    40101434:	91002c01 	add	x1, x0, #0xb
    40101438:	927df021 	and	x1, x1, #0xfffffffffffffff8
    4010143c:	f90023a1 	str	x1, [x29,#64]
    40101440:	b9800017 	ldrsw	x23, [x0]
    40101444:	17fffff1 	b	40101408 <tf_printf+0x184>
    40101448:	11002022 	add	w2, w1, #0x8
    4010144c:	b9005ba2 	str	w2, [x29,#88]
    40101450:	7100005f 	cmp	w2, #0x0
    40101454:	54fffd2c 	b.gt	401013f8 <tf_printf+0x174>
    40101458:	f94027a0 	ldr	x0, [x29,#72]
    4010145c:	8b21c000 	add	x0, x0, w1, sxtw
    40101460:	17ffffe9 	b	40101404 <tf_printf+0x180>
    40101464:	11002022 	add	w2, w1, #0x8
    40101468:	b9005ba2 	str	w2, [x29,#88]
    4010146c:	7100005f 	cmp	w2, #0x0
    40101470:	54fffe2c 	b.gt	40101434 <tf_printf+0x1b0>
    40101474:	f94027a0 	ldr	x0, [x29,#72]
    40101478:	8b21c000 	add	x0, x0, w1, sxtw
    4010147c:	17fffff1 	b	40101440 <tf_printf+0x1bc>
    40101480:	aa1703e0 	mov	x0, x23
    40101484:	17ffffe6 	b	4010141c <tf_printf+0x198>
    40101488:	11002022 	add	w2, w1, #0x8
    4010148c:	b9005ba2 	str	w2, [x29,#88]
    40101490:	7100005f 	cmp	w2, #0x0
    40101494:	54fff7cc 	b.gt	4010138c <tf_printf+0x108>
    40101498:	f94027a0 	ldr	x0, [x29,#72]
    4010149c:	8b21c000 	add	x0, x0, w1, sxtw
    401014a0:	17ffffbe 	b	40101398 <tf_printf+0x114>
    401014a4:	910006d6 	add	x22, x22, #0x1
    401014a8:	2a1403e1 	mov	w1, w20
    401014ac:	94000260 	bl	40101e2c <putchar_l>
    401014b0:	17ffffbb 	b	4010139c <tf_printf+0x118>
    401014b4:	b9405ba1 	ldr	w1, [x29,#88]
    401014b8:	f94023a0 	ldr	x0, [x29,#64]
    401014bc:	37f801e1 	tbnz	w1, #31, 401014f8 <tf_printf+0x274>
    401014c0:	91003c01 	add	x1, x0, #0xf
    401014c4:	927df021 	and	x1, x1, #0xfffffffffffffff8
    401014c8:	f90023a1 	str	x1, [x29,#64]
    401014cc:	f9400018 	ldr	x24, [x0]
    401014d0:	b4000098 	cbz	x24, 401014e0 <tf_printf+0x25c>
    401014d4:	91009ab7 	add	x23, x21, #0x26
    401014d8:	394002e0 	ldrb	w0, [x23]
    401014dc:	350001c0 	cbnz	w0, 40101514 <tf_printf+0x290>
    401014e0:	2a1603e3 	mov	w3, w22
    401014e4:	2a1403e2 	mov	w2, w20
    401014e8:	aa1803e0 	mov	x0, x24
    401014ec:	52800201 	mov	w1, #0x10                  	// #16
    401014f0:	97ffff3c 	bl	401011e0 <unsigned_num_print>
    401014f4:	17ffffac 	b	401013a4 <tf_printf+0x120>
    401014f8:	11002022 	add	w2, w1, #0x8
    401014fc:	b9005ba2 	str	w2, [x29,#88]
    40101500:	7100005f 	cmp	w2, #0x0
    40101504:	54fffdec 	b.gt	401014c0 <tf_printf+0x23c>
    40101508:	f94027a0 	ldr	x0, [x29,#72]
    4010150c:	8b21c000 	add	x0, x0, w1, sxtw
    40101510:	17ffffef 	b	401014cc <tf_printf+0x248>
    40101514:	910006f7 	add	x23, x23, #0x1
    40101518:	2a1403e1 	mov	w1, w20
    4010151c:	94000244 	bl	40101e2c <putchar_l>
    40101520:	17ffffee 	b	401014d8 <tf_printf+0x254>
    40101524:	7100045f 	cmp	w2, #0x1
    40101528:	b9405ba1 	ldr	w1, [x29,#88]
    4010152c:	f94023a0 	ldr	x0, [x29,#64]
    40101530:	5400014d 	b.le	40101558 <tf_printf+0x2d4>
    40101534:	37f80201 	tbnz	w1, #31, 40101574 <tf_printf+0x2f0>
    40101538:	91003c01 	add	x1, x0, #0xf
    4010153c:	927df021 	and	x1, x1, #0xfffffffffffffff8
    40101540:	f90023a1 	str	x1, [x29,#64]
    40101544:	f9400000 	ldr	x0, [x0]
    40101548:	2a1603e3 	mov	w3, w22
    4010154c:	2a1403e2 	mov	w2, w20
    40101550:	52800201 	mov	w1, #0x10                  	// #16
    40101554:	17ffffe7 	b	401014f0 <tf_printf+0x26c>
    40101558:	35fffee2 	cbnz	w2, 40101534 <tf_printf+0x2b0>
    4010155c:	37f801a1 	tbnz	w1, #31, 40101590 <tf_printf+0x30c>
    40101560:	91002c01 	add	x1, x0, #0xb
    40101564:	927df021 	and	x1, x1, #0xfffffffffffffff8
    40101568:	f90023a1 	str	x1, [x29,#64]
    4010156c:	b9400000 	ldr	w0, [x0]
    40101570:	17fffff6 	b	40101548 <tf_printf+0x2c4>
    40101574:	11002022 	add	w2, w1, #0x8
    40101578:	b9005ba2 	str	w2, [x29,#88]
    4010157c:	7100005f 	cmp	w2, #0x0
    40101580:	54fffdcc 	b.gt	40101538 <tf_printf+0x2b4>
    40101584:	f94027a0 	ldr	x0, [x29,#72]
    40101588:	8b21c000 	add	x0, x0, w1, sxtw
    4010158c:	17ffffee 	b	40101544 <tf_printf+0x2c0>
    40101590:	11002022 	add	w2, w1, #0x8
    40101594:	b9005ba2 	str	w2, [x29,#88]
    40101598:	7100005f 	cmp	w2, #0x0
    4010159c:	54fffe2c 	b.gt	40101560 <tf_printf+0x2dc>
    401015a0:	f94027a0 	ldr	x0, [x29,#72]
    401015a4:	8b21c000 	add	x0, x0, w1, sxtw
    401015a8:	17fffff1 	b	4010156c <tf_printf+0x2e8>
    401015ac:	7100045f 	cmp	w2, #0x1
    401015b0:	b9405ba0 	ldr	w0, [x29,#88]
    401015b4:	f94023a1 	ldr	x1, [x29,#64]
    401015b8:	540000ed 	b.le	401015d4 <tf_printf+0x350>
    401015bc:	37f801a0 	tbnz	w0, #31, 401015f0 <tf_printf+0x36c>
    401015c0:	91003c20 	add	x0, x1, #0xf
    401015c4:	927df000 	and	x0, x0, #0xfffffffffffffff8
    401015c8:	f90023a0 	str	x0, [x29,#64]
    401015cc:	f9400020 	ldr	x0, [x1]
    401015d0:	17ffff93 	b	4010141c <tf_printf+0x198>
    401015d4:	35ffff42 	cbnz	w2, 401015bc <tf_printf+0x338>
    401015d8:	37f801a0 	tbnz	w0, #31, 4010160c <tf_printf+0x388>
    401015dc:	91002c20 	add	x0, x1, #0xb
    401015e0:	927df000 	and	x0, x0, #0xfffffffffffffff8
    401015e4:	f90023a0 	str	x0, [x29,#64]
    401015e8:	b9400020 	ldr	w0, [x1]
    401015ec:	17ffff8c 	b	4010141c <tf_printf+0x198>
    401015f0:	11002002 	add	w2, w0, #0x8
    401015f4:	b9005ba2 	str	w2, [x29,#88]
    401015f8:	7100005f 	cmp	w2, #0x0
    401015fc:	54fffe2c 	b.gt	401015c0 <tf_printf+0x33c>
    40101600:	f94027a1 	ldr	x1, [x29,#72]
    40101604:	8b20c021 	add	x1, x1, w0, sxtw
    40101608:	17fffff1 	b	401015cc <tf_printf+0x348>
    4010160c:	11002002 	add	w2, w0, #0x8
    40101610:	b9005ba2 	str	w2, [x29,#88]
    40101614:	7100005f 	cmp	w2, #0x0
    40101618:	54fffe2c 	b.gt	401015dc <tf_printf+0x358>
    4010161c:	f94027a1 	ldr	x1, [x29,#72]
    40101620:	8b20c021 	add	x1, x1, w0, sxtw
    40101624:	17fffff1 	b	401015e8 <tf_printf+0x364>
    40101628:	2a1403e1 	mov	w1, w20
    4010162c:	94000200 	bl	40101e2c <putchar_l>
    40101630:	17ffff31 	b	401012f4 <tf_printf+0x70>

0000000040101634 <__system_reset>:
    40101634:	a9be7bfd 	stp	x29, x30, [sp,#-32]!
    40101638:	529c0062 	mov	w2, #0xe003                	// #57347
    4010163c:	72b7c002 	movk	w2, #0xbe00, lsl #16
    40101640:	910003fd 	mov	x29, sp
    40101644:	a90153f3 	stp	x19, x20, [sp,#16]
    40101648:	d2800213 	mov	x19, #0x10                  	// #16
    4010164c:	f2a1c013 	movk	x19, #0xe00, lsl #16
    40101650:	d2801094 	mov	x20, #0x84                  	// #132
    40101654:	f2a06014 	movk	x20, #0x300, lsl #16
    40101658:	b9000262 	str	w2, [x19]
    4010165c:	2a0103e2 	mov	w2, w1
    40101660:	aa0003e1 	mov	x1, x0
    40101664:	d0000040 	adrp	x0, 4010b000 <__func__.4011+0x10>
    40101668:	9100a400 	add	x0, x0, #0x29
    4010166c:	97ffff06 	bl	40101284 <tf_printf>
    40101670:	94002631 	bl	4010af34 <console_flush>
    40101674:	52860020 	mov	w0, #0x3001                	// #12289
    40101678:	72b7c000 	movk	w0, #0xbe00, lsl #16
    4010167c:	b9000280 	str	w0, [x20]
    40101680:	52827100 	mov	w0, #0x1388                	// #5000
    40101684:	97fffe56 	bl	40100fdc <mdelay>
    40101688:	d28c1c01 	mov	x1, #0x60e0                	// #24800
    4010168c:	52800020 	mov	w0, #0x1                   	// #1
    40101690:	f2a0a041 	movk	x1, #0x502, lsl #16
    40101694:	b9000020 	str	w0, [x1]
    40101698:	d28c1901 	mov	x1, #0x60c8                	// #24776
    4010169c:	f2a0a041 	movk	x1, #0x502, lsl #16
    401016a0:	b9000020 	str	w0, [x1]
    401016a4:	52860040 	mov	w0, #0x3002                	// #12290
    401016a8:	72b7c000 	movk	w0, #0xbe00, lsl #16
    401016ac:	b9000280 	str	w0, [x20]
    401016b0:	52800c80 	mov	w0, #0x64                  	// #100
    401016b4:	97fffe3d 	bl	40100fa8 <udelay>
    401016b8:	d28a1580 	mov	x0, #0x50ac                	// #20652
    401016bc:	52956301 	mov	w1, #0xab18                	// #43800
    401016c0:	f2a0a040 	movk	x0, #0x502, lsl #16
    401016c4:	52800cc2 	mov	w2, #0x66                  	// #102
    401016c8:	b900001f 	str	wzr, [x0]
    401016cc:	d28a0080 	mov	x0, #0x5004                	// #20484
    401016d0:	f2a0a040 	movk	x0, #0x502, lsl #16
    401016d4:	91001000 	add	x0, x0, #0x4
    401016d8:	b81fc001 	stur	w1, [x0,#-4]
    401016dc:	320a83e1 	mov	w1, #0x400040              	// #4194368
    401016e0:	b9000001 	str	w1, [x0]
    401016e4:	d2800081 	mov	x1, #0x4                   	// #4
    401016e8:	f2a06021 	movk	x1, #0x301, lsl #16
    401016ec:	b9000022 	str	w2, [x1]
    401016f0:	52800402 	mov	w2, #0x20                  	// #32
    401016f4:	b9001822 	str	w2, [x1,#24]
    401016f8:	d2800181 	mov	x1, #0xc                   	// #12
    401016fc:	f2a06021 	movk	x1, #0x301, lsl #16
    40101700:	52800ec2 	mov	w2, #0x76                  	// #118
    40101704:	b9000022 	str	w2, [x1]
    40101708:	d2a06021 	mov	x1, #0x3010000             	// #50397184
    4010170c:	52800222 	mov	w2, #0x11                  	// #17
    40101710:	b9000022 	str	w2, [x1]
    40101714:	d2a1c001 	mov	x1, #0xe000000             	// #234881024
    40101718:	39400c21 	ldrb	w1, [x1,#3]
    4010171c:	36300161 	tbz	w1, #6, 40101748 <__system_reset+0x114>
    40101720:	529c0081 	mov	w1, #0xe004                	// #57348
    40101724:	d28c1a82 	mov	x2, #0x60d4                	// #24788
    40101728:	72b7c001 	movk	w1, #0xbe00, lsl #16
    4010172c:	f2a0a042 	movk	x2, #0x502, lsl #16
    40101730:	b9000261 	str	w1, [x19]
    40101734:	b9400041 	ldr	w1, [x2]
    40101738:	71000c3f 	cmp	w1, #0x3
    4010173c:	54ffffc1 	b.ne	40101734 <__system_reset+0x100>
    40101740:	320d83e1 	mov	w1, #0x80008               	// #524296
    40101744:	b9000001 	str	w1, [x0]
    40101748:	14000000 	b	40101748 <__system_reset+0x114>

000000004010174c <panic_handler>:
    4010174c:	a9bf7bfd 	stp	x29, x30, [sp,#-16]!
    40101750:	d2800200 	mov	x0, #0x10                  	// #16
    40101754:	f2a1c000 	movk	x0, #0xe00, lsl #16
    40101758:	529c0042 	mov	w2, #0xe002                	// #57346
    4010175c:	910003fd 	mov	x29, sp
    40101760:	72b7c002 	movk	w2, #0xbe00, lsl #16
    40101764:	b9000002 	str	w2, [x0]
    40101768:	b900041e 	str	w30, [x0,#4]
    4010176c:	aa1e03e1 	mov	x1, x30
    40101770:	d0000040 	adrp	x0, 4010b000 <__func__.4011+0x10>
    40101774:	9100ec00 	add	x0, x0, #0x3b
    40101778:	97fffec3 	bl	40101284 <tf_printf>
    4010177c:	d0000040 	adrp	x0, 4010b000 <__func__.4011+0x10>
    40101780:	12800001 	mov	w1, #0xffffffff            	// #-1
    40101784:	91012800 	add	x0, x0, #0x4a
    40101788:	97ffffab 	bl	40101634 <__system_reset>

000000004010178c <reset_c906l>:
    4010178c:	a9be7bfd 	stp	x29, x30, [sp,#-32]!
    40101790:	910003fd 	mov	x29, sp
    40101794:	f9000bf3 	str	x19, [sp,#16]
    40101798:	aa0003f3 	mov	x19, x0
    4010179c:	d0000040 	adrp	x0, 4010b000 <__func__.4011+0x10>
    401017a0:	91014000 	add	x0, x0, #0x50
    401017a4:	97fffeb8 	bl	40101284 <tf_printf>
    401017a8:	d2860481 	mov	x1, #0x3024                	// #12324
    401017ac:	d2800082 	mov	x2, #0x4                   	// #4
    401017b0:	f2a06001 	movk	x1, #0x300, lsl #16
    401017b4:	f2a04162 	movk	x2, #0x20b, lsl #16
    401017b8:	b9400020 	ldr	w0, [x1]
    401017bc:	12197800 	and	w0, w0, #0xffffffbf
    401017c0:	b9000020 	str	w0, [x1]
    401017c4:	b9400040 	ldr	w0, [x2]
    401017c8:	32130000 	orr	w0, w0, #0x2000
    401017cc:	b9000040 	str	w0, [x2]
    401017d0:	d2800400 	mov	x0, #0x20                  	// #32
    401017d4:	f2a04160 	movk	x0, #0x20b, lsl #16
    401017d8:	b9000013 	str	w19, [x0]
    401017dc:	d360fe73 	lsr	x19, x19, #32
    401017e0:	b9000413 	str	w19, [x0,#4]
    401017e4:	f9400bf3 	ldr	x19, [sp,#16]
    401017e8:	b9400020 	ldr	w0, [x1]
    401017ec:	321a0000 	orr	w0, w0, #0x40
    401017f0:	b9000020 	str	w0, [x1]
    401017f4:	a8c27bfd 	ldp	x29, x30, [sp],#32
    401017f8:	d65f03c0 	ret

00000000401017fc <setup_dl_flag>:
    401017fc:	a9bf7bfd 	stp	x29, x30, [sp,#-16]!
    40101800:	910003fd 	mov	x29, sp
    40101804:	97fbfa07 	bl	40000020 <p_rom_api_get_boot_src>
    40101808:	5299d401 	mov	w1, #0xcea0                	// #52896
    4010180c:	6b01001f 	cmp	w0, w1
    40101810:	d2800081 	mov	x1, #0x4                   	// #4
    40101814:	f2a1c001 	movk	x1, #0xe00, lsl #16
    40101818:	540000e0 	b.eq	40101834 <setup_dl_flag+0x38>
    4010181c:	5299d462 	mov	w2, #0xcea3                	// #52899
    40101820:	6b02001f 	cmp	w0, w2
    40101824:	540000e0 	b.eq	40101840 <setup_dl_flag+0x44>
    40101828:	b9000020 	str	w0, [x1]
    4010182c:	a8c17bfd 	ldp	x29, x30, [sp],#16
    40101830:	d65f03c0 	ret
    40101834:	5289c640 	mov	w0, #0x4e32                	// #20018
    40101838:	72a9a8e0 	movk	w0, #0x4d47, lsl #16
    4010183c:	17fffffb 	b	40101828 <setup_dl_flag+0x2c>
    40101840:	5289c620 	mov	w0, #0x4e31                	// #20017
    40101844:	17fffffd 	b	40101838 <setup_dl_flag+0x3c>

0000000040101848 <sys_switch_all_to_pll>:
    40101848:	d2840600 	mov	x0, #0x2030                	// #8240
    4010184c:	f2a06000 	movk	x0, #0x300, lsl #16
    40101850:	b900001f 	str	wzr, [x0]
    40101854:	b900041f 	str	wzr, [x0,#4]
    40101858:	d65f03c0 	ret

000000004010185c <sys_pll_init>:
    4010185c:	a9bc7bfd 	stp	x29, x30, [sp,#-64]!
    40101860:	52a493e0 	mov	w0, #0x249f0000            	// #614400000
    40101864:	910003fd 	mov	x29, sp
    40101868:	f9000bf3 	str	x19, [sp,#16]
    4010186c:	b90023a0 	str	w0, [x29,#32]
    40101870:	5282e8c0 	mov	w0, #0x1746                	// #5958
    40101874:	72a48ba0 	movk	w0, #0x245d, lsl #16
    40101878:	290483a0 	stp	w0, w0, [x29,#36]
    4010187c:	52955560 	mov	w0, #0xaaab                	// #43691
    40101880:	72a49540 	movk	w0, #0x24aa, lsl #16
    40101884:	b9002fa0 	str	w0, [x29,#44]
    40101888:	52904020 	mov	w0, #0x8201                	// #33281
    4010188c:	72a00240 	movk	w0, #0x12, lsl #16
    40101890:	b90033a0 	str	w0, [x29,#48]
    40101894:	52902020 	mov	w0, #0x8101                	// #33025
    40101898:	72a00300 	movk	w0, #0x18, lsl #16
    4010189c:	b90037a0 	str	w0, [x29,#52]
    401018a0:	52904020 	mov	w0, #0x8201                	// #33281
    401018a4:	72a00600 	movk	w0, #0x30, lsl #16
    401018a8:	b9003ba0 	str	w0, [x29,#56]
    401018ac:	52902020 	mov	w0, #0x8101                	// #33025
    401018b0:	72a002c0 	movk	w0, #0x16, lsl #16
    401018b4:	b9003fa0 	str	w0, [x29,#60]
    401018b8:	d0000040 	adrp	x0, 4010b000 <__func__.4011+0x10>
    401018bc:	91033000 	add	x0, x0, #0xcc
    401018c0:	97fffe71 	bl	40101284 <tf_printf>
    401018c4:	d2840600 	mov	x0, #0x2030                	// #8240
    401018c8:	12800001 	mov	w1, #0xffffffff            	// #-1
    401018cc:	f2a06000 	movk	x0, #0x300, lsl #16
    401018d0:	52902022 	mov	w2, #0x8101                	// #33025
    401018d4:	72a0a902 	movk	w2, #0x548, lsl #16
    401018d8:	d2850183 	mov	x3, #0x280c                	// #10252
    401018dc:	b9400013 	ldr	w19, [x0]
    401018e0:	910083a5 	add	x5, x29, #0x20
    401018e4:	b9000001 	str	w1, [x0]
    401018e8:	d2840681 	mov	x1, #0x2034                	// #8244
    401018ec:	f2a06001 	movk	x1, #0x300, lsl #16
    401018f0:	528007e0 	mov	w0, #0x3f                  	// #63
    401018f4:	9100c3a4 	add	x4, x29, #0x30
    401018f8:	f2a06003 	movk	x3, #0x300, lsl #16
    401018fc:	b9000020 	str	w0, [x1]
    40101900:	91208021 	add	x1, x1, #0x820
    40101904:	b81b4022 	stur	w2, [x1,#-76]
    40101908:	b81ec020 	stur	w0, [x1,#-20]
    4010190c:	d2800000 	mov	x0, #0x0                   	// #0
    40101910:	b8656802 	ldr	w2, [x0,x5]
    40101914:	91004021 	add	x1, x1, #0x10
    40101918:	b81f0022 	stur	w2, [x1,#-16]
    4010191c:	b85ec022 	ldur	w2, [x1,#-20]
    40101920:	121b7842 	and	w2, w2, #0xffffffef
    40101924:	32000042 	orr	w2, w2, #0x1
    40101928:	b81ec022 	stur	w2, [x1,#-20]
    4010192c:	b8646802 	ldr	w2, [x0,x4]
    40101930:	b8236802 	str	w2, [x0,x3]
    40101934:	91001000 	add	x0, x0, #0x4
    40101938:	f100401f 	cmp	x0, #0x10
    4010193c:	54fffea1 	b.ne	40101910 <sys_pll_init+0xb4>
    40101940:	d2850001 	mov	x1, #0x2800                	// #10240
    40101944:	529dddc2 	mov	w2, #0xeeee                	// #61166
    40101948:	f2a06001 	movk	x1, #0x300, lsl #16
    4010194c:	72bfffc2 	movk	w2, #0xfffe, lsl #16
    40101950:	52804123 	mov	w3, #0x209                 	// #521
    40101954:	b9400020 	ldr	w0, [x1]
    40101958:	72a000c3 	movk	w3, #0x6, lsl #16
    4010195c:	0a020000 	and	w0, w0, w2
    40101960:	b9000020 	str	w0, [x1]
    40101964:	d2852100 	mov	x0, #0x2908                	// #10504
    40101968:	52902021 	mov	w1, #0x8101                	// #33025
    4010196c:	f2a06000 	movk	x0, #0x300, lsl #16
    40101970:	72a00801 	movk	w1, #0x40, lsl #16
    40101974:	52806122 	mov	w2, #0x309                 	// #777
    40101978:	b9000001 	str	w1, [x0]
    4010197c:	d2840400 	mov	x0, #0x2020                	// #8224
    40101980:	f2a06000 	movk	x0, #0x300, lsl #16
    40101984:	52800021 	mov	w1, #0x1                   	// #1
    40101988:	72a00062 	movk	w2, #0x3, lsl #16
    4010198c:	b9000001 	str	w1, [x0]
    40101990:	52806121 	mov	w1, #0x309                 	// #777
    40101994:	72a00021 	movk	w1, #0x1, lsl #16
    40101998:	b9002001 	str	w1, [x0,#32]
    4010199c:	52902021 	mov	w1, #0x8101                	// #33025
    401019a0:	72a00881 	movk	w1, #0x44, lsl #16
    401019a4:	b908ec01 	str	w1, [x0,#2284]
    401019a8:	d2840901 	mov	x1, #0x2048                	// #8264
    401019ac:	52800120 	mov	w0, #0x9                   	// #9
    401019b0:	f2a06001 	movk	x1, #0x300, lsl #16
    401019b4:	72a00060 	movk	w0, #0x3, lsl #16
    401019b8:	b9000020 	str	w0, [x1]
    401019bc:	b9000c22 	str	w2, [x1,#12]
    401019c0:	52800122 	mov	w2, #0x9                   	// #9
    401019c4:	72a00082 	movk	w2, #0x4, lsl #16
    401019c8:	b9001c22 	str	w2, [x1,#28]
    401019cc:	11410042 	add	w2, w2, #0x40, lsl #12
    401019d0:	b9004022 	str	w2, [x1,#64]
    401019d4:	11428042 	add	w2, w2, #0xa0, lsl #12
    401019d8:	b9005022 	str	w2, [x1,#80]
    401019dc:	52800122 	mov	w2, #0x9                   	// #9
    401019e0:	72a001e2 	movk	w2, #0xf, lsl #16
    401019e4:	b900d822 	str	w2, [x1,#216]
    401019e8:	d2841501 	mov	x1, #0x20a8                	// #8360
    401019ec:	52800122 	mov	w2, #0x9                   	// #9
    401019f0:	f2a06001 	movk	x1, #0x300, lsl #16
    401019f4:	72a00022 	movk	w2, #0x1, lsl #16
    401019f8:	b9000022 	str	w2, [x1]
    401019fc:	d2841c82 	mov	x2, #0x20e4                	// #8420
    40101a00:	f2a06002 	movk	x2, #0x300, lsl #16
    40101a04:	52804121 	mov	w1, #0x209                 	// #521
    40101a08:	72a00061 	movk	w1, #0x3, lsl #16
    40101a0c:	b9000041 	str	w1, [x2]
    40101a10:	b9000840 	str	w0, [x2,#8]
    40101a14:	d2841902 	mov	x2, #0x20c8                	// #8392
    40101a18:	f2a06002 	movk	x2, #0x300, lsl #16
    40101a1c:	b9000040 	str	w0, [x2]
    40101a20:	b9000843 	str	w3, [x2,#8]
    40101a24:	52804123 	mov	w3, #0x209                 	// #521
    40101a28:	b9001040 	str	w0, [x2,#16]
    40101a2c:	72a00043 	movk	w3, #0x2, lsl #16
    40101a30:	b9004843 	str	w3, [x2,#72]
    40101a34:	b9007840 	str	w0, [x2,#120]
    40101a38:	d2842880 	mov	x0, #0x2144                	// #8516
    40101a3c:	f2a06000 	movk	x0, #0x300, lsl #16
    40101a40:	b9000001 	str	w1, [x0]
    40101a44:	d2841701 	mov	x1, #0x20b8                	// #8376
    40101a48:	f2a06001 	movk	x1, #0x300, lsl #16
    40101a4c:	52800120 	mov	w0, #0x9                   	// #9
    40101a50:	72a000a0 	movk	w0, #0x5, lsl #16
    40101a54:	b9000020 	str	w0, [x1]
    40101a58:	b9007420 	str	w0, [x1,#116]
    40101a5c:	b947e820 	ldr	w0, [x1,#2024]
    40101a60:	121d7800 	and	w0, w0, #0xfffffffb
    40101a64:	b907e820 	str	w0, [x1,#2024]
    40101a68:	b947f420 	ldr	w0, [x1,#2036]
    40101a6c:	121d7400 	and	w0, w0, #0xfffffff9
    40101a70:	b907f420 	str	w0, [x1,#2036]
    40101a74:	52801900 	mov	w0, #0xc8                  	// #200
    40101a78:	97fffd4c 	bl	40100fa8 <udelay>
    40101a7c:	52802000 	mov	w0, #0x100                 	// #256
    40101a80:	72a00100 	movk	w0, #0x8, lsl #16
    40101a84:	0a000273 	and	w19, w19, w0
    40101a88:	d2840600 	mov	x0, #0x2030                	// #8240
    40101a8c:	f2a06000 	movk	x0, #0x300, lsl #16
    40101a90:	b9000013 	str	w19, [x0]
    40101a94:	b900041f 	str	wzr, [x0,#4]
    40101a98:	d0000040 	adrp	x0, 4010b000 <__func__.4011+0x10>
    40101a9c:	f9400bf3 	ldr	x19, [sp,#16]
    40101aa0:	91035400 	add	x0, x0, #0xd5
    40101aa4:	a8c47bfd 	ldp	x29, x30, [sp],#64
    40101aa8:	17fffdf7 	b	40101284 <tf_printf>

0000000040101aac <switch_rtc_mode_1st_stage>:
    40101aac:	d28a0101 	mov	x1, #0x5008                	// #20488
    40101ab0:	f2a0a041 	movk	x1, #0x502, lsl #16
    40101ab4:	b9400020 	ldr	w0, [x1]
    40101ab8:	36500080 	tbz	w0, #10, 40101ac8 <switch_rtc_mode_1st_stage+0x1c>
    40101abc:	d0000040 	adrp	x0, 4010b000 <__func__.4011+0x10>
    40101ac0:	9101fc00 	add	x0, x0, #0x7f
    40101ac4:	17fffdf0 	b	40101284 <tf_printf>
    40101ac8:	a9be7bfd 	stp	x29, x30, [sp,#-32]!
    40101acc:	d28a0080 	mov	x0, #0x5004                	// #20484
    40101ad0:	f2a0a040 	movk	x0, #0x502, lsl #16
    40101ad4:	52956302 	mov	w2, #0xab18                	// #43800
    40101ad8:	910003fd 	mov	x29, sp
    40101adc:	f9000bf3 	str	x19, [sp,#16]
    40101ae0:	b9000002 	str	w2, [x0]
    40101ae4:	b9400020 	ldr	w0, [x1]
    40101ae8:	1204b800 	and	w0, w0, #0xf7fff7ff
    40101aec:	32050000 	orr	w0, w0, #0x8000000
    40101af0:	b9000020 	str	w0, [x1]
    40101af4:	d28a0180 	mov	x0, #0x500c                	// #20492
    40101af8:	f2a0a040 	movk	x0, #0x502, lsl #16
    40101afc:	b9400001 	ldr	w1, [x0]
    40101b00:	37cfffe1 	tbnz	w1, #25, 40101afc <switch_rtc_mode_1st_stage+0x50>
    40101b04:	d28a0113 	mov	x19, #0x5008                	// #20488
    40101b08:	52800021 	mov	w1, #0x1                   	// #1
    40101b0c:	f2a0a053 	movk	x19, #0x502, lsl #16
    40101b10:	b9400260 	ldr	w0, [x19]
    40101b14:	32068000 	orr	w0, w0, #0x4000400
    40101b18:	b9000260 	str	w0, [x19]
    40101b1c:	d28c9180 	mov	x0, #0x648c                	// #25740
    40101b20:	f2a0a040 	movk	x0, #0x502, lsl #16
    40101b24:	b9000001 	str	w1, [x0]
    40101b28:	b900001f 	str	wzr, [x0]
    40101b2c:	52801900 	mov	w0, #0xc8                  	// #200
    40101b30:	97fffd1e 	bl	40100fa8 <udelay>
    40101b34:	b9400260 	ldr	w0, [x19]
    40101b38:	52810001 	mov	w1, #0x800                 	// #2048
    40101b3c:	72a18001 	movk	w1, #0xc00, lsl #16
    40101b40:	2a010000 	orr	w0, w0, w1
    40101b44:	b9000260 	str	w0, [x19]
    40101b48:	f9400bf3 	ldr	x19, [sp,#16]
    40101b4c:	a8c27bfd 	ldp	x29, x30, [sp],#32
    40101b50:	d65f03c0 	ret

0000000040101b54 <switch_rtc_mode_2nd_stage>:
    40101b54:	a9be7bfd 	stp	x29, x30, [sp,#-32]!
    40101b58:	d28a0180 	mov	x0, #0x500c                	// #20492
    40101b5c:	f2a0a040 	movk	x0, #0x502, lsl #16
    40101b60:	910003fd 	mov	x29, sp
    40101b64:	f9000bf3 	str	x19, [sp,#16]
    40101b68:	b9400013 	ldr	w19, [x0]
    40101b6c:	94001a38 	bl	4010844c <get_pkg>
    40101b70:	12001c00 	and	w0, w0, #0xff
    40101b74:	7100041f 	cmp	w0, #0x1
    40101b78:	54000040 	b.eq	40101b80 <switch_rtc_mode_2nd_stage+0x2c>
    40101b7c:	37c80273 	tbnz	w19, #25, 40101bc8 <switch_rtc_mode_2nd_stage+0x74>
    40101b80:	d28a0101 	mov	x1, #0x5008                	// #20488
    40101b84:	529f7fe2 	mov	w2, #0xfbff                	// #64511
    40101b88:	f2a0a041 	movk	x1, #0x502, lsl #16
    40101b8c:	72be7fe2 	movk	w2, #0xf3ff, lsl #16
    40101b90:	b9400020 	ldr	w0, [x1]
    40101b94:	0a020000 	and	w0, w0, w2
    40101b98:	32060400 	orr	w0, w0, #0xc000000
    40101b9c:	b9000020 	str	w0, [x1]
    40101ba0:	d28c9180 	mov	x0, #0x648c                	// #25740
    40101ba4:	52800021 	mov	w1, #0x1                   	// #1
    40101ba8:	f2a0a040 	movk	x0, #0x502, lsl #16
    40101bac:	b9000001 	str	w1, [x0]
    40101bb0:	b900001f 	str	wzr, [x0]
    40101bb4:	d0000040 	adrp	x0, 4010b000 <__func__.4011+0x10>
    40101bb8:	91026800 	add	x0, x0, #0x9a
    40101bbc:	f9400bf3 	ldr	x19, [sp,#16]
    40101bc0:	a8c27bfd 	ldp	x29, x30, [sp],#32
    40101bc4:	17fffdb0 	b	40101284 <tf_printf>
    40101bc8:	d0000040 	adrp	x0, 4010b000 <__func__.4011+0x10>
    40101bcc:	9102b800 	add	x0, x0, #0xae
    40101bd0:	17fffffb 	b	40101bbc <switch_rtc_mode_2nd_stage+0x68>

0000000040101bd4 <set_rtc_en_registers>:
    40101bd4:	d28c1f00 	mov	x0, #0x60f8                	// #24824
    40101bd8:	a9bf7bfd 	stp	x29, x30, [sp,#-16]!
    40101bdc:	f2a0a040 	movk	x0, #0x502, lsl #16
    40101be0:	910003fd 	mov	x29, sp
    40101be4:	b9400001 	ldr	w1, [x0]
    40101be8:	d0000040 	adrp	x0, 4010b000 <__func__.4011+0x10>
    40101bec:	91016000 	add	x0, x0, #0x58
    40101bf0:	97fffda5 	bl	40101284 <tf_printf>
    40101bf4:	d28c1f80 	mov	x0, #0x60fc                	// #24828
    40101bf8:	f2a0a040 	movk	x0, #0x502, lsl #16
    40101bfc:	b9400001 	ldr	w1, [x0]
    40101c00:	d0000040 	adrp	x0, 4010b000 <__func__.4011+0x10>
    40101c04:	9101ac00 	add	x0, x0, #0x6b
    40101c08:	97fffd9f 	bl	40101284 <tf_printf>
    40101c0c:	d28c1800 	mov	x0, #0x60c0                	// #24768
    40101c10:	52800021 	mov	w1, #0x1                   	// #1
    40101c14:	f2a0a040 	movk	x0, #0x502, lsl #16
    40101c18:	b9000001 	str	w1, [x0]
    40101c1c:	b9400001 	ldr	w1, [x0]
    40101c20:	7100043f 	cmp	w1, #0x1
    40101c24:	54ffffc1 	b.ne	40101c1c <set_rtc_en_registers+0x48>
    40101c28:	d28c1980 	mov	x0, #0x60cc                	// #24780
    40101c2c:	f2a0a040 	movk	x0, #0x502, lsl #16
    40101c30:	b9000001 	str	w1, [x0]
    40101c34:	b9400001 	ldr	w1, [x0]
    40101c38:	7100043f 	cmp	w1, #0x1
    40101c3c:	54ffffc1 	b.ne	40101c34 <set_rtc_en_registers+0x60>
    40101c40:	d28c1900 	mov	x0, #0x60c8                	// #24776
    40101c44:	f2a0a040 	movk	x0, #0x502, lsl #16
    40101c48:	b9000001 	str	w1, [x0]
    40101c4c:	b9400001 	ldr	w1, [x0]
    40101c50:	7100043f 	cmp	w1, #0x1
    40101c54:	54ffffc1 	b.ne	40101c4c <set_rtc_en_registers+0x78>
    40101c58:	d28c1c00 	mov	x0, #0x60e0                	// #24800
    40101c5c:	f2a0a040 	movk	x0, #0x502, lsl #16
    40101c60:	b9000001 	str	w1, [x0]
    40101c64:	b9400001 	ldr	w1, [x0]
    40101c68:	7100043f 	cmp	w1, #0x1
    40101c6c:	54ffffc1 	b.ne	40101c64 <set_rtc_en_registers+0x90>
    40101c70:	d28a1581 	mov	x1, #0x50ac                	// #20652
    40101c74:	129ef7e2 	mov	w2, #0xffff0840            	// #-63424
    40101c78:	f2a0a041 	movk	x1, #0x502, lsl #16
    40101c7c:	b9400020 	ldr	w0, [x1]
    40101c80:	32000000 	orr	w0, w0, #0x1
    40101c84:	b9000020 	str	w0, [x1]
    40101c88:	d28a0080 	mov	x0, #0x5004                	// #20484
    40101c8c:	52956301 	mov	w1, #0xab18                	// #43800
    40101c90:	f2a0a040 	movk	x0, #0x502, lsl #16
    40101c94:	b9000001 	str	w1, [x0]
    40101c98:	d28a0101 	mov	x1, #0x5008                	// #20488
    40101c9c:	f2a0a041 	movk	x1, #0x502, lsl #16
    40101ca0:	b9400020 	ldr	w0, [x1]
    40101ca4:	2a020000 	orr	w0, w0, w2
    40101ca8:	b9000020 	str	w0, [x1]
    40101cac:	d28c1a01 	mov	x1, #0x60d0                	// #24784
    40101cb0:	f2a0a041 	movk	x1, #0x502, lsl #16
    40101cb4:	b9400020 	ldr	w0, [x1]
    40101cb8:	121d7800 	and	w0, w0, #0xfffffffb
    40101cbc:	b9000020 	str	w0, [x1]
    40101cc0:	a8c17bfd 	ldp	x29, x30, [sp],#16
    40101cc4:	d65f03c0 	ret

0000000040101cc8 <init_comm_info>:
    40101cc8:	d65f03c0 	ret

0000000040101ccc <dec_verify_image>:
    40101ccc:	52800000 	mov	w0, #0x0                   	// #0
    40101cd0:	d65f03c0 	ret

0000000040101cd4 <memset>:
    40101cd4:	12001c26 	and	w6, w1, #0xff
    40101cd8:	aa0003e3 	mov	x3, x0
    40101cdc:	f240087f 	tst	x3, #0x7
    40101ce0:	540000c0 	b.eq	40101cf8 <memset+0x24>
    40101ce4:	b5000042 	cbnz	x2, 40101cec <memset+0x18>
    40101ce8:	d65f03c0 	ret
    40101cec:	38001466 	strb	w6, [x3],#1
    40101cf0:	d1000442 	sub	x2, x2, #0x1
    40101cf4:	17fffffa 	b	40101cdc <memset+0x8>
    40101cf8:	b40001e2 	cbz	x2, 40101d34 <memset+0x60>
    40101cfc:	92401c21 	and	x1, x1, #0xff
    40101d00:	b200c3e4 	mov	x4, #0x101010101010101     	// #72340172838076673
    40101d04:	d2800005 	mov	x5, #0x0                   	// #0
    40101d08:	9b047c21 	mul	x1, x1, x4
    40101d0c:	d343fc44 	lsr	x4, x2, #3
    40101d10:	d37df087 	lsl	x7, x4, #3
    40101d14:	eb0700bf 	cmp	x5, x7
    40101d18:	54000101 	b.ne	40101d38 <memset+0x64>
    40101d1c:	cb040c44 	sub	x4, x2, x4, lsl #3
    40101d20:	927df042 	and	x2, x2, #0xfffffffffffffff8
    40101d24:	8b020062 	add	x2, x3, x2
    40101d28:	d2800001 	mov	x1, #0x0                   	// #0
    40101d2c:	eb01009f 	cmp	x4, x1
    40101d30:	540000a1 	b.ne	40101d44 <memset+0x70>
    40101d34:	d65f03c0 	ret
    40101d38:	f8256861 	str	x1, [x3,x5]
    40101d3c:	910020a5 	add	x5, x5, #0x8
    40101d40:	17fffff5 	b	40101d14 <memset+0x40>
    40101d44:	38216846 	strb	w6, [x2,x1]
    40101d48:	91000421 	add	x1, x1, #0x1
    40101d4c:	17fffff8 	b	40101d2c <memset+0x58>

0000000040101d50 <memcpy>:
    40101d50:	ca010003 	eor	x3, x0, x1
    40101d54:	f240087f 	tst	x3, #0x7
    40101d58:	540003a1 	b.ne	40101dcc <memcpy+0x7c>
    40101d5c:	aa0003e4 	mov	x4, x0
    40101d60:	aa0203e3 	mov	x3, x2
    40101d64:	f240089f 	tst	x4, #0x7
    40101d68:	540000e0 	b.eq	40101d84 <memcpy+0x34>
    40101d6c:	b5000043 	cbnz	x3, 40101d74 <memcpy+0x24>
    40101d70:	d65f03c0 	ret
    40101d74:	38401422 	ldrb	w2, [x1],#1
    40101d78:	d1000463 	sub	x3, x3, #0x1
    40101d7c:	38001482 	strb	w2, [x4],#1
    40101d80:	17fffff9 	b	40101d64 <memcpy+0x14>
    40101d84:	b40001a3 	cbz	x3, 40101db8 <memcpy+0x68>
    40101d88:	d343fc62 	lsr	x2, x3, #3
    40101d8c:	d2800005 	mov	x5, #0x0                   	// #0
    40101d90:	d37df046 	lsl	x6, x2, #3
    40101d94:	eb0600bf 	cmp	x5, x6
    40101d98:	54000121 	b.ne	40101dbc <memcpy+0x6c>
    40101d9c:	cb020c62 	sub	x2, x3, x2, lsl #3
    40101da0:	927df063 	and	x3, x3, #0xfffffffffffffff8
    40101da4:	8b030021 	add	x1, x1, x3
    40101da8:	8b030083 	add	x3, x4, x3
    40101dac:	d2800004 	mov	x4, #0x0                   	// #0
    40101db0:	eb04005f 	cmp	x2, x4
    40101db4:	54000101 	b.ne	40101dd4 <memcpy+0x84>
    40101db8:	d65f03c0 	ret
    40101dbc:	f8656827 	ldr	x7, [x1,x5]
    40101dc0:	f8256887 	str	x7, [x4,x5]
    40101dc4:	910020a5 	add	x5, x5, #0x8
    40101dc8:	17fffff3 	b	40101d94 <memcpy+0x44>
    40101dcc:	aa0003e3 	mov	x3, x0
    40101dd0:	17fffff7 	b	40101dac <memcpy+0x5c>
    40101dd4:	38646825 	ldrb	w5, [x1,x4]
    40101dd8:	38246865 	strb	w5, [x3,x4]
    40101ddc:	91000484 	add	x4, x4, #0x1
    40101de0:	17fffff4 	b	40101db0 <memcpy+0x60>

0000000040101de4 <memmove>:
    40101de4:	cb010006 	sub	x6, x0, x1
    40101de8:	aa0003e4 	mov	x4, x0
    40101dec:	eb0200df 	cmp	x6, x2
    40101df0:	54000043 	b.cc	40101df8 <memmove+0x14>
    40101df4:	17ffffd7 	b	40101d50 <memcpy>
    40101df8:	8b020003 	add	x3, x0, x2
    40101dfc:	8b020025 	add	x5, x1, x2
    40101e00:	aa2303e1 	mvn	x1, x3
    40101e04:	8b010001 	add	x1, x0, x1
    40101e08:	d2800000 	mov	x0, #0x0                   	// #0
    40101e0c:	d1000400 	sub	x0, x0, #0x1
    40101e10:	eb01001f 	cmp	x0, x1
    40101e14:	54000061 	b.ne	40101e20 <memmove+0x3c>
    40101e18:	aa0403e0 	mov	x0, x4
    40101e1c:	d65f03c0 	ret
    40101e20:	386068a2 	ldrb	w2, [x5,x0]
    40101e24:	38206862 	strb	w2, [x3,x0]
    40101e28:	17fffff9 	b	40101e0c <memmove+0x28>

0000000040101e2c <putchar_l>:
    40101e2c:	a9be7bfd 	stp	x29, x30, [sp,#-32]!
    40101e30:	5283ffe2 	mov	w2, #0x1fff                	// #8191
    40101e34:	910003fd 	mov	x29, sp
    40101e38:	f9000bf3 	str	x19, [sp,#16]
    40101e3c:	2a0003f3 	mov	w19, w0
    40101e40:	d2800100 	mov	x0, #0x8                   	// #8
    40101e44:	f2a1c000 	movk	x0, #0xe00, lsl #16
    40101e48:	b9400003 	ldr	w3, [x0]
    40101e4c:	6b02007f 	cmp	w3, w2
    40101e50:	54000049 	b.ls	40101e58 <putchar_l+0x2c>
    40101e54:	b900001f 	str	wzr, [x0]
    40101e58:	b9400002 	ldr	w2, [x0]
    40101e5c:	7100083f 	cmp	w1, #0x2
    40101e60:	11000443 	add	w3, w2, #0x1
    40101e64:	b9000003 	str	w3, [x0]
    40101e68:	d28e0000 	mov	x0, #0x7000                	// #28672
    40101e6c:	f2a18060 	movk	x0, #0xc03, lsl #16
    40101e70:	38224813 	strb	w19, [x0,w2,uxtw]
    40101e74:	5400010c 	b.gt	40101e94 <putchar_l+0x68>
    40101e78:	d2a1c000 	mov	x0, #0xe000000             	// #234881024
    40101e7c:	39400000 	ldrb	w0, [x0]
    40101e80:	371000a0 	tbnz	w0, #2, 40101e94 <putchar_l+0x68>
    40101e84:	12001e60 	and	w0, w19, #0xff
    40101e88:	94002429 	bl	4010af2c <console_putc>
    40101e8c:	7100001f 	cmp	w0, #0x0
    40101e90:	5a9fa273 	csinv	w19, w19, wzr, ge
    40101e94:	2a1303e0 	mov	w0, w19
    40101e98:	f9400bf3 	ldr	x19, [sp,#16]
    40101e9c:	a8c27bfd 	ldp	x29, x30, [sp],#32
    40101ea0:	d65f03c0 	ret

0000000040101ea4 <read_time_ms>:
    40101ea4:	a9bf7bfd 	stp	x29, x30, [sp,#-16]!
    40101ea8:	910003fd 	mov	x29, sp
    40101eac:	97fffc4f 	bl	40100fe8 <read_count_tick>
    40101eb0:	110f9c00 	add	w0, w0, #0x3e7
    40101eb4:	52807d01 	mov	w1, #0x3e8                 	// #1000
    40101eb8:	a8c17bfd 	ldp	x29, x30, [sp],#16
    40101ebc:	1ac10800 	udiv	w0, w0, w1
    40101ec0:	d65f03c0 	ret

0000000040101ec4 <load_param2>:
    40101ec4:	a9bd7bfd 	stp	x29, x30, [sp,#-48]!
    40101ec8:	d2820001 	mov	x1, #0x1000                	// #4096
    40101ecc:	910003fd 	mov	x29, sp
    40101ed0:	a90153f3 	stp	x19, x20, [sp,#16]
    40101ed4:	90000074 	adrp	x20, 4010d000 <__DATA_END__+0x15c0>
    40101ed8:	91300293 	add	x19, x20, #0xc00
    40101edc:	f90013f5 	str	x21, [sp,#32]
    40101ee0:	aa1303e2 	mov	x2, x19
    40101ee4:	2a0003f5 	mov	w21, w0
    40101ee8:	d0000040 	adrp	x0, 4010b000 <__func__.4011+0x10>
    40101eec:	91109000 	add	x0, x0, #0x424
    40101ef0:	97fffce5 	bl	40101284 <tf_printf>
    40101ef4:	d2920000 	mov	x0, #0x9000                	// #36864
    40101ef8:	2a1503e3 	mov	w3, w21
    40101efc:	f2a80260 	movk	x0, #0x4013, lsl #16
    40101f00:	d2820002 	mov	x2, #0x1000                	// #4096
    40101f04:	b940e001 	ldr	w1, [x0,#224]
    40101f08:	aa1303e0 	mov	x0, x19
    40101f0c:	97fbf855 	bl	40000060 <p_rom_api_load_image>
    40101f10:	37f80180 	tbnz	w0, #31, 40101f40 <load_param2+0x7c>
    40101f14:	d28ac860 	mov	x0, #0x5643                	// #22083
    40101f18:	f9460281 	ldr	x1, [x20,#3072]
    40101f1c:	f2a88980 	movk	x0, #0x444c, lsl #16
    40101f20:	f2c64600 	movk	x0, #0x3230, lsl #32
    40101f24:	f2e00140 	movk	x0, #0xa, lsl #48
    40101f28:	eb00003f 	cmp	x1, x0
    40101f2c:	54000120 	b.eq	40101f50 <load_param2+0x8c>
    40101f30:	d0000040 	adrp	x0, 4010b000 <__func__.4011+0x10>
    40101f34:	9110d400 	add	x0, x0, #0x435
    40101f38:	97fffcd3 	bl	40101284 <tf_printf>
    40101f3c:	12800000 	mov	w0, #0xffffffff            	// #-1
    40101f40:	a94153f3 	ldp	x19, x20, [sp,#16]
    40101f44:	f94013f5 	ldr	x21, [sp,#32]
    40101f48:	a8c37bfd 	ldp	x29, x30, [sp],#48
    40101f4c:	d65f03c0 	ret
    40101f50:	5281fe81 	mov	w1, #0xff4                 	// #4084
    40101f54:	90000060 	adrp	x0, 4010d000 <__DATA_END__+0x15c0>
    40101f58:	91303000 	add	x0, x0, #0xc0c
    40101f5c:	97fbf851 	bl	400000a0 <p_rom_api_image_crc>
    40101f60:	b9400a62 	ldr	w2, [x19,#8]
    40101f64:	6b02001f 	cmp	w0, w2
    40101f68:	540000c0 	b.eq	40101f80 <load_param2+0xbc>
    40101f6c:	2a0003e1 	mov	w1, w0
    40101f70:	d0000040 	adrp	x0, 4010b000 <__func__.4011+0x10>
    40101f74:	91111c00 	add	x0, x0, #0x447
    40101f78:	97fffcc3 	bl	40101284 <tf_printf>
    40101f7c:	17fffff0 	b	40101f3c <load_param2+0x78>
    40101f80:	d0000040 	adrp	x0, 4010b000 <__func__.4011+0x10>
    40101f84:	91119800 	add	x0, x0, #0x466
    40101f88:	97fffcbf 	bl	40101284 <tf_printf>
    40101f8c:	52800000 	mov	w0, #0x0                   	// #0
    40101f90:	17ffffec 	b	40101f40 <load_param2+0x7c>

0000000040101f94 <load_ddr_param>:
    40101f94:	a9bd7bfd 	stp	x29, x30, [sp,#-48]!
    40101f98:	910003fd 	mov	x29, sp
    40101f9c:	a90153f3 	stp	x19, x20, [sp,#16]
    40101fa0:	90000073 	adrp	x19, 4010d000 <__DATA_END__+0x15c0>
    40101fa4:	91300274 	add	x20, x19, #0xc00
    40101fa8:	f90013f5 	str	x21, [sp,#32]
    40101fac:	2a0003f5 	mov	w21, w0
    40101fb0:	d0000040 	adrp	x0, 4010b000 <__func__.4011+0x10>
    40101fb4:	9109b800 	add	x0, x0, #0x26e
    40101fb8:	29428a81 	ldp	w1, w2, [x20,#20]
    40101fbc:	97fffcb2 	bl	40101284 <tf_printf>
    40101fc0:	b9401a81 	ldr	w1, [x20,#24]
    40101fc4:	5287ffe0 	mov	w0, #0x3fff                	// #16383
    40101fc8:	6b00003f 	cmp	w1, w0
    40101fcc:	54000069 	b.ls	40101fd8 <load_ddr_param+0x44>
    40101fd0:	52880000 	mov	w0, #0x4000                	// #16384
    40101fd4:	b9001a80 	str	w0, [x20,#24]
    40101fd8:	91300273 	add	x19, x19, #0xc00
    40101fdc:	b0000074 	adrp	x20, 4010e000 <__BSS_START__+0x400>
    40101fe0:	91300294 	add	x20, x20, #0xc00
    40101fe4:	2a1503e3 	mov	w3, w21
    40101fe8:	aa1403e0 	mov	x0, x20
    40101fec:	29428a61 	ldp	w1, w2, [x19,#20]
    40101ff0:	97fbf81c 	bl	40000060 <p_rom_api_load_image>
    40101ff4:	37f80180 	tbnz	w0, #31, 40102024 <load_ddr_param+0x90>
    40101ff8:	b9401a61 	ldr	w1, [x19,#24]
    40101ffc:	aa1403e0 	mov	x0, x20
    40102000:	97fbf828 	bl	400000a0 <p_rom_api_image_crc>
    40102004:	b9401262 	ldr	w2, [x19,#16]
    40102008:	6b02001f 	cmp	w0, w2
    4010200c:	54000140 	b.eq	40102034 <load_ddr_param+0xa0>
    40102010:	2a0003e1 	mov	w1, w0
    40102014:	b0000040 	adrp	x0, 4010b000 <__func__.4011+0x10>
    40102018:	910a0000 	add	x0, x0, #0x280
    4010201c:	97fffc9a 	bl	40101284 <tf_printf>
    40102020:	12800000 	mov	w0, #0xffffffff            	// #-1
    40102024:	a94153f3 	ldp	x19, x20, [sp,#16]
    40102028:	f94013f5 	ldr	x21, [sp,#32]
    4010202c:	a8c37bfd 	ldp	x29, x30, [sp],#48
    40102030:	d65f03c0 	ret
    40102034:	b0000040 	adrp	x0, 4010b000 <__func__.4011+0x10>
    40102038:	910a8800 	add	x0, x0, #0x2a2
    4010203c:	97fffc92 	bl	40101284 <tf_printf>
    40102040:	52800000 	mov	w0, #0x0                   	// #0
    40102044:	17fffff8 	b	40102024 <load_ddr_param+0x90>

0000000040102048 <load_ddr>:
    40102048:	a9bc7bfd 	stp	x29, x30, [sp,#-64]!
    4010204c:	910003fd 	mov	x29, sp
    40102050:	a90153f3 	stp	x19, x20, [sp,#16]
    40102054:	b0000054 	adrp	x20, 4010b000 <__func__.4011+0x10>
    40102058:	91088e94 	add	x20, x20, #0x223
    4010205c:	a9025bf5 	stp	x21, x22, [sp,#32]
    40102060:	f9001bf7 	str	x23, [sp,#48]
    40102064:	1299d3f5 	mov	w21, #0xffff3160            	// #-52896
    40102068:	d2800036 	mov	x22, #0x1                   	// #1
    4010206c:	d2800537 	mov	x23, #0x29                  	// #41
    40102070:	52800013 	mov	w19, #0x0                   	// #0
    40102074:	97fbf813 	bl	400000c0 <p_rom_api_get_number_of_retries>
    40102078:	6b00027f 	cmp	w19, w0
    4010207c:	5400012a 	b.ge	401020a0 <load_ddr+0x58>
    40102080:	2a1303e0 	mov	w0, w19
    40102084:	97ffff90 	bl	40101ec4 <load_param2>
    40102088:	36f80060 	tbz	w0, #31, 40102094 <load_ddr+0x4c>
    4010208c:	11000673 	add	w19, w19, #0x1
    40102090:	17fffff9 	b	40102074 <load_ddr+0x2c>
    40102094:	2a1303e0 	mov	w0, w19
    40102098:	97ffffbf 	bl	40101f94 <load_ddr_param>
    4010209c:	37ffff80 	tbnz	w0, #31, 4010208c <load_ddr+0x44>
    401020a0:	97fbf808 	bl	400000c0 <p_rom_api_get_number_of_retries>
    401020a4:	6b00027f 	cmp	w19, w0
    401020a8:	540002aa 	b.ge	401020fc <load_ddr+0xb4>
    401020ac:	b0000053 	adrp	x19, 4010b000 <__func__.4011+0x10>
    401020b0:	f9443274 	ldr	x20, [x19,#2144]
    401020b4:	97ffff7c 	bl	40101ea4 <read_time_ms>
    401020b8:	39000a80 	strb	w0, [x20,#2]
    401020bc:	d3483c00 	ubfx	x0, x0, #8, #8
    401020c0:	39000e80 	strb	w0, [x20,#3]
    401020c4:	90000060 	adrp	x0, 4010e000 <__BSS_START__+0x400>
    401020c8:	91300000 	add	x0, x0, #0xc00
    401020cc:	9400181b 	bl	40108138 <ddr_init>
    401020d0:	f9443273 	ldr	x19, [x19,#2144]
    401020d4:	97ffff74 	bl	40101ea4 <read_time_ms>
    401020d8:	f9401bf7 	ldr	x23, [sp,#48]
    401020dc:	a9425bf5 	ldp	x21, x22, [sp,#32]
    401020e0:	39001260 	strb	w0, [x19,#4]
    401020e4:	d3483c00 	ubfx	x0, x0, #8, #8
    401020e8:	39001660 	strb	w0, [x19,#5]
    401020ec:	52800000 	mov	w0, #0x0                   	// #0
    401020f0:	a94153f3 	ldp	x19, x20, [sp,#16]
    401020f4:	a8c47bfd 	ldp	x29, x30, [sp],#64
    401020f8:	d65f03c0 	ret
    401020fc:	97fbf7c9 	bl	40000020 <p_rom_api_get_boot_src>
    40102100:	0b150000 	add	w0, w0, w21
    40102104:	2a1303e1 	mov	w1, w19
    40102108:	7100141f 	cmp	w0, #0x5
    4010210c:	54000108 	b.hi	4010212c <load_ddr+0xe4>
    40102110:	9ac022c0 	lsl	x0, x22, x0
    40102114:	ea17001f 	tst	x0, x23
    40102118:	540000a0 	b.eq	4010212c <load_ddr+0xe4>
    4010211c:	aa1403e0 	mov	x0, x20
    40102120:	97fffc59 	bl	40101284 <tf_printf>
    40102124:	97fbf7d7 	bl	40000080 <p_rom_api_flash_init>
    40102128:	17ffffd2 	b	40102070 <load_ddr+0x28>
    4010212c:	b0000040 	adrp	x0, 4010b000 <__func__.4011+0x10>
    40102130:	91092400 	add	x0, x0, #0x249
    40102134:	97fffc54 	bl	40101284 <tf_printf>
    40102138:	97fffd85 	bl	4010174c <panic_handler>

000000004010213c <load_blcp_2nd>:
    4010213c:	a9bd7bfd 	stp	x29, x30, [sp,#-48]!
    40102140:	910003fd 	mov	x29, sp
    40102144:	a9025bf5 	stp	x21, x22, [sp,#32]
    40102148:	b0000055 	adrp	x21, 4010b000 <__func__.4011+0x10>
    4010214c:	a90153f3 	stp	x19, x20, [sp,#16]
    40102150:	2a0003f4 	mov	w20, w0
    40102154:	f94432a1 	ldr	x1, [x21,#2144]
    40102158:	f0000053 	adrp	x19, 4010d000 <__DATA_END__+0x15c0>
    4010215c:	91300273 	add	x19, x19, #0xc00
    40102160:	39401022 	ldrb	w2, [x1,#4]
    40102164:	39401420 	ldrb	w0, [x1,#5]
    40102168:	aa002040 	orr	x0, x2, x0, lsl #8
    4010216c:	39001820 	strb	w0, [x1,#6]
    40102170:	d348fc00 	lsr	x0, x0, #8
    40102174:	39001c20 	strb	w0, [x1,#7]
    40102178:	b0000040 	adrp	x0, 4010b000 <__func__.4011+0x10>
    4010217c:	91057000 	add	x0, x0, #0x15c
    40102180:	29448e61 	ldp	w1, w3, [x19,#36]
    40102184:	b9402e62 	ldr	w2, [x19,#44]
    40102188:	97fffc3f 	bl	40101284 <tf_printf>
    4010218c:	b9402e60 	ldr	w0, [x19,#44]
    40102190:	350000c0 	cbnz	w0, 401021a8 <load_blcp_2nd+0x6c>
    40102194:	b0000040 	adrp	x0, 4010b000 <__func__.4011+0x10>
    40102198:	9105cc00 	add	x0, x0, #0x173
    4010219c:	97fffc3a 	bl	40101284 <tf_printf>
    401021a0:	52800014 	mov	w20, #0x0                   	// #0
    401021a4:	14000024 	b	40102234 <load_blcp_2nd+0xf8>
    401021a8:	52b00004 	mov	w4, #0x80000000            	// #-2147483648
    401021ac:	0b040001 	add	w1, w0, w4
    401021b0:	12bf0003 	mov	w3, #0x7ffffff             	// #134217727
    401021b4:	6b03003f 	cmp	w1, w3
    401021b8:	540000c9 	b.ls	401021d0 <load_blcp_2nd+0x94>
    401021bc:	2a0003e1 	mov	w1, w0
    401021c0:	b0000040 	adrp	x0, 4010b000 <__func__.4011+0x10>
    401021c4:	91061800 	add	x0, x0, #0x186
    401021c8:	97fffc2f 	bl	40101284 <tf_printf>
    401021cc:	97fffd60 	bl	4010174c <panic_handler>
    401021d0:	b9402a61 	ldr	w1, [x19,#40]
    401021d4:	0b010002 	add	w2, w0, w1
    401021d8:	0b040042 	add	w2, w2, w4
    401021dc:	6b03005f 	cmp	w2, w3
    401021e0:	54000089 	b.ls	401021f0 <load_blcp_2nd+0xb4>
    401021e4:	b0000040 	adrp	x0, 4010b000 <__func__.4011+0x10>
    401021e8:	9106d000 	add	x0, x0, #0x1b4
    401021ec:	17fffff7 	b	401021c8 <load_blcp_2nd+0x8c>
    401021f0:	2a0103e2 	mov	w2, w1
    401021f4:	b9402661 	ldr	w1, [x19,#36]
    401021f8:	2a1403e3 	mov	w3, w20
    401021fc:	2a0003e0 	mov	w0, w0
    40102200:	97fbf798 	bl	40000060 <p_rom_api_load_image>
    40102204:	2a0003f4 	mov	w20, w0
    40102208:	37f80160 	tbnz	w0, #31, 40102234 <load_blcp_2nd+0xf8>
    4010220c:	29450261 	ldp	w1, w0, [x19,#40]
    40102210:	97fbf7a4 	bl	400000a0 <p_rom_api_image_crc>
    40102214:	b9402262 	ldr	w2, [x19,#32]
    40102218:	6b02001f 	cmp	w0, w2
    4010221c:	54000160 	b.eq	40102248 <load_blcp_2nd+0x10c>
    40102220:	12800014 	mov	w20, #0xffffffff            	// #-1
    40102224:	2a0003e1 	mov	w1, w0
    40102228:	b0000040 	adrp	x0, 4010b000 <__func__.4011+0x10>
    4010222c:	91077c00 	add	x0, x0, #0x1df
    40102230:	97fffc15 	bl	40101284 <tf_printf>
    40102234:	2a1403e0 	mov	w0, w20
    40102238:	a94153f3 	ldp	x19, x20, [sp,#16]
    4010223c:	a9425bf5 	ldp	x21, x22, [sp,#32]
    40102240:	a8c37bfd 	ldp	x29, x30, [sp],#48
    40102244:	d65f03c0 	ret
    40102248:	29450261 	ldp	w1, w0, [x19,#40]
    4010224c:	d2920003 	mov	x3, #0x9000                	// #36864
    40102250:	f2a80263 	movk	x3, #0x4013, lsl #16
    40102254:	d2800002 	mov	x2, #0x0                   	// #0
    40102258:	97fffe9d 	bl	40101ccc <dec_verify_image>
    4010225c:	2a0003f4 	mov	w20, w0
    40102260:	36f800c0 	tbz	w0, #31, 40102278 <load_blcp_2nd+0x13c>
    40102264:	2a0003e1 	mov	w1, w0
    40102268:	b0000040 	adrp	x0, 4010b000 <__func__.4011+0x10>
    4010226c:	91080000 	add	x0, x0, #0x200
    40102270:	97fffc05 	bl	40101284 <tf_printf>
    40102274:	17fffff0 	b	40102234 <load_blcp_2nd+0xf8>
    40102278:	29450261 	ldp	w1, w0, [x19,#40]
    4010227c:	d2800f94 	mov	x20, #0x7c                  	// #124
    40102280:	f2a1c014 	movk	x20, #0xe00, lsl #16
    40102284:	940022dd 	bl	4010adf8 <flush_dcache_range>
    40102288:	b9400296 	ldr	w22, [x20]
    4010228c:	97fffe8f 	bl	40101cc8 <init_comm_info>
    40102290:	f94432b5 	ldr	x21, [x21,#2144]
    40102294:	97ffff04 	bl	40101ea4 <read_time_ms>
    40102298:	39001aa0 	strb	w0, [x21,#6]
    4010229c:	d3483c00 	ubfx	x0, x0, #8, #8
    401022a0:	39001ea0 	strb	w0, [x21,#7]
    401022a4:	5281bde0 	mov	w0, #0xdef                 	// #3567
    401022a8:	72a15780 	movk	w0, #0xabc, lsl #16
    401022ac:	6b0002df 	cmp	w22, w0
    401022b0:	b9402e60 	ldr	w0, [x19,#44]
    401022b4:	540000a1 	b.ne	401022c8 <load_blcp_2nd+0x18c>
    401022b8:	b9000280 	str	w0, [x20]
    401022bc:	b0000040 	adrp	x0, 4010b000 <__func__.4011+0x10>
    401022c0:	91086c00 	add	x0, x0, #0x21b
    401022c4:	17ffffb6 	b	4010219c <load_blcp_2nd+0x60>
    401022c8:	97fffd31 	bl	4010178c <reset_c906l>
    401022cc:	17fffffc 	b	401022bc <load_blcp_2nd+0x180>

00000000401022d0 <load_monitor>:
    401022d0:	a9bd7bfd 	stp	x29, x30, [sp,#-48]!
    401022d4:	910003fd 	mov	x29, sp
    401022d8:	a90153f3 	stp	x19, x20, [sp,#16]
    401022dc:	f0000053 	adrp	x19, 4010d000 <__DATA_END__+0x15c0>
    401022e0:	91300273 	add	x19, x19, #0xc00
    401022e4:	f90013f5 	str	x21, [sp,#32]
    401022e8:	aa0103f5 	mov	x21, x1
    401022ec:	2a0003f4 	mov	w20, w0
    401022f0:	b0000040 	adrp	x0, 4010b000 <__func__.4011+0x10>
    401022f4:	910d9c00 	add	x0, x0, #0x367
    401022f8:	29470a63 	ldp	w3, w2, [x19,#56]
    401022fc:	b9403661 	ldr	w1, [x19,#52]
    40102300:	97fffbe1 	bl	40101284 <tf_printf>
    40102304:	b9403e60 	ldr	w0, [x19,#60]
    40102308:	350000c0 	cbnz	w0, 40102320 <load_monitor+0x50>
    4010230c:	b0000040 	adrp	x0, 4010b000 <__func__.4011+0x10>
    40102310:	910df400 	add	x0, x0, #0x37d
    40102314:	97fffbdc 	bl	40101284 <tf_printf>
    40102318:	52800014 	mov	w20, #0x0                   	// #0
    4010231c:	14000024 	b	401023ac <load_monitor+0xdc>
    40102320:	52b00004 	mov	w4, #0x80000000            	// #-2147483648
    40102324:	0b040001 	add	w1, w0, w4
    40102328:	12bf0003 	mov	w3, #0x7ffffff             	// #134217727
    4010232c:	6b03003f 	cmp	w1, w3
    40102330:	540000c9 	b.ls	40102348 <load_monitor+0x78>
    40102334:	2a0003e1 	mov	w1, w0
    40102338:	b0000040 	adrp	x0, 4010b000 <__func__.4011+0x10>
    4010233c:	910e3000 	add	x0, x0, #0x38c
    40102340:	97fffbd1 	bl	40101284 <tf_printf>
    40102344:	97fffd02 	bl	4010174c <panic_handler>
    40102348:	b9403a61 	ldr	w1, [x19,#56]
    4010234c:	0b010002 	add	w2, w0, w1
    40102350:	0b040042 	add	w2, w2, w4
    40102354:	6b03005f 	cmp	w2, w3
    40102358:	54000089 	b.ls	40102368 <load_monitor+0x98>
    4010235c:	b0000040 	adrp	x0, 4010b000 <__func__.4011+0x10>
    40102360:	910ee400 	add	x0, x0, #0x3b9
    40102364:	17fffff7 	b	40102340 <load_monitor+0x70>
    40102368:	2a0103e2 	mov	w2, w1
    4010236c:	b9403661 	ldr	w1, [x19,#52]
    40102370:	2a1403e3 	mov	w3, w20
    40102374:	2a0003e0 	mov	w0, w0
    40102378:	97fbf73a 	bl	40000060 <p_rom_api_load_image>
    4010237c:	2a0003f4 	mov	w20, w0
    40102380:	37f80160 	tbnz	w0, #31, 401023ac <load_monitor+0xdc>
    40102384:	29470261 	ldp	w1, w0, [x19,#56]
    40102388:	97fbf746 	bl	400000a0 <p_rom_api_image_crc>
    4010238c:	b9403262 	ldr	w2, [x19,#48]
    40102390:	6b02001f 	cmp	w0, w2
    40102394:	54000160 	b.eq	401023c0 <load_monitor+0xf0>
    40102398:	12800014 	mov	w20, #0xffffffff            	// #-1
    4010239c:	2a0003e1 	mov	w1, w0
    401023a0:	b0000040 	adrp	x0, 4010b000 <__func__.4011+0x10>
    401023a4:	910f8c00 	add	x0, x0, #0x3e3
    401023a8:	97fffbb7 	bl	40101284 <tf_printf>
    401023ac:	2a1403e0 	mov	w0, w20
    401023b0:	f94013f5 	ldr	x21, [sp,#32]
    401023b4:	a94153f3 	ldp	x19, x20, [sp,#16]
    401023b8:	a8c37bfd 	ldp	x29, x30, [sp],#48
    401023bc:	d65f03c0 	ret
    401023c0:	29470261 	ldp	w1, w0, [x19,#56]
    401023c4:	d2920003 	mov	x3, #0x9000                	// #36864
    401023c8:	f2a80263 	movk	x3, #0x4013, lsl #16
    401023cc:	d2800002 	mov	x2, #0x0                   	// #0
    401023d0:	97fffe3f 	bl	40101ccc <dec_verify_image>
    401023d4:	2a0003f4 	mov	w20, w0
    401023d8:	36f800c0 	tbz	w0, #31, 401023f0 <load_monitor+0x120>
    401023dc:	2a0003e1 	mov	w1, w0
    401023e0:	b0000040 	adrp	x0, 4010b000 <__func__.4011+0x10>
    401023e4:	91100c00 	add	x0, x0, #0x403
    401023e8:	97fffba7 	bl	40101284 <tf_printf>
    401023ec:	17fffff0 	b	401023ac <load_monitor+0xdc>
    401023f0:	29470261 	ldp	w1, w0, [x19,#56]
    401023f4:	94002281 	bl	4010adf8 <flush_dcache_range>
    401023f8:	b0000040 	adrp	x0, 4010b000 <__func__.4011+0x10>
    401023fc:	91107400 	add	x0, x0, #0x41d
    40102400:	97fffba1 	bl	40101284 <tf_printf>
    40102404:	b9403e60 	ldr	w0, [x19,#60]
    40102408:	f90002a0 	str	x0, [x21]
    4010240c:	17ffffc3 	b	40102318 <load_monitor+0x48>

0000000040102410 <load_loader_2nd>:
    40102410:	a9ba7bfd 	stp	x29, x30, [sp,#-96]!
    40102414:	910003fd 	mov	x29, sp
    40102418:	a9025bf5 	stp	x21, x22, [sp,#32]
    4010241c:	f0000056 	adrp	x22, 4010d000 <__DATA_END__+0x15c0>
    40102420:	913002d5 	add	x21, x22, #0xc00
    40102424:	a90153f3 	stp	x19, x20, [sp,#16]
    40102428:	a9046bf9 	stp	x25, x26, [sp,#64]
    4010242c:	aa0103f9 	mov	x25, x1
    40102430:	a90363f7 	stp	x23, x24, [sp,#48]
    40102434:	2a0003fa 	mov	w26, w0
    40102438:	b0000040 	adrp	x0, 4010b000 <__func__.4011+0x10>
    4010243c:	910aa800 	add	x0, x0, #0x2aa
    40102440:	b94046a1 	ldr	w1, [x21,#68]
    40102444:	90000073 	adrp	x19, 4010e000 <__BSS_START__+0x400>
    40102448:	91300274 	add	x20, x19, #0xc00
    4010244c:	97fffb8e 	bl	40101284 <tf_printf>
    40102450:	b94046a1 	ldr	w1, [x21,#68]
    40102454:	2a1a03e3 	mov	w3, w26
    40102458:	d2804002 	mov	x2, #0x200                 	// #512
    4010245c:	aa1403e0 	mov	x0, x20
    40102460:	97fbf700 	bl	40000060 <p_rom_api_load_image>
    40102464:	36f80060 	tbz	w0, #31, 40102470 <load_loader_2nd+0x60>
    40102468:	12800014 	mov	w20, #0xffffffff            	// #-1
    4010246c:	1400003e 	b	40102564 <load_loader_2nd+0x154>
    40102470:	29408a81 	ldp	w1, w2, [x20,#4]
    40102474:	b0000040 	adrp	x0, 4010b000 <__func__.4011+0x10>
    40102478:	b9400e84 	ldr	w4, [x20,#12]
    4010247c:	910ad800 	add	x0, x0, #0x2b6
    40102480:	f9400a83 	ldr	x3, [x20,#16]
    40102484:	1107fc95 	add	w21, w4, #0x1ff
    40102488:	12175ab5 	and	w21, w21, #0xfffffe00
    4010248c:	2a1503e5 	mov	w5, w21
    40102490:	97fffb7d 	bl	40101284 <tf_printf>
    40102494:	b9400680 	ldr	w0, [x20,#4]
    40102498:	52866841 	mov	w1, #0x3342                	// #13122
    4010249c:	72a68b41 	movk	w1, #0x345a, lsl #16
    401024a0:	6b01001f 	cmp	w0, w1
    401024a4:	54000100 	b.eq	401024c4 <load_loader_2nd+0xb4>
    401024a8:	52866841 	mov	w1, #0x3342                	// #13122
    401024ac:	72a829a1 	movk	w1, #0x414d, lsl #16
    401024b0:	6b01001f 	cmp	w0, w1
    401024b4:	54000d00 	b.eq	40102654 <load_loader_2nd+0x244>
    401024b8:	52800017 	mov	w23, #0x0                   	// #0
    401024bc:	f9400a98 	ldr	x24, [x20,#16]
    401024c0:	14000007 	b	401024dc <load_loader_2nd+0xcc>
    401024c4:	52800057 	mov	w23, #0x2                   	// #2
    401024c8:	d2b03218 	mov	x24, #0x81900000            	// #2173698048
    401024cc:	2a1703e1 	mov	w1, w23
    401024d0:	b0000040 	adrp	x0, 4010b000 <__func__.4011+0x10>
    401024d4:	910d6c00 	add	x0, x0, #0x35b
    401024d8:	97fffb6b 	bl	40101284 <tf_printf>
    401024dc:	913002d6 	add	x22, x22, #0xc00
    401024e0:	2a1a03e3 	mov	w3, w26
    401024e4:	93407ea2 	sxtw	x2, w21
    401024e8:	aa1803e0 	mov	x0, x24
    401024ec:	b94046c1 	ldr	w1, [x22,#68]
    401024f0:	97fbf6dc 	bl	40000060 <p_rom_api_load_image>
    401024f4:	37fffba0 	tbnz	w0, #31, 40102468 <load_loader_2nd+0x58>
    401024f8:	91300276 	add	x22, x19, #0xc00
    401024fc:	91003314 	add	x20, x24, #0xc
    40102500:	aa1403e0 	mov	x0, x20
    40102504:	b9400ec1 	ldr	w1, [x22,#12]
    40102508:	51003021 	sub	w1, w1, #0xc
    4010250c:	97fbf6e5 	bl	400000a0 <p_rom_api_image_crc>
    40102510:	b9400ac2 	ldr	w2, [x22,#8]
    40102514:	6b02001f 	cmp	w0, w2
    40102518:	540000c0 	b.eq	40102530 <load_loader_2nd+0x120>
    4010251c:	2a0003e1 	mov	w1, w0
    40102520:	b0000040 	adrp	x0, 4010b000 <__func__.4011+0x10>
    40102524:	910b5800 	add	x0, x0, #0x2d6
    40102528:	97fffb57 	bl	40101284 <tf_printf>
    4010252c:	17ffffcf 	b	40102468 <load_loader_2nd+0x58>
    40102530:	b9400ec1 	ldr	w1, [x22,#12]
    40102534:	d2920003 	mov	x3, #0x9000                	// #36864
    40102538:	aa1403e0 	mov	x0, x20
    4010253c:	f2a80263 	movk	x3, #0x4013, lsl #16
    40102540:	d2800282 	mov	x2, #0x14                  	// #20
    40102544:	51003021 	sub	w1, w1, #0xc
    40102548:	97fffde1 	bl	40101ccc <dec_verify_image>
    4010254c:	2a0003f4 	mov	w20, w0
    40102550:	36f80180 	tbz	w0, #31, 40102580 <load_loader_2nd+0x170>
    40102554:	2a0003e1 	mov	w1, w0
    40102558:	b0000040 	adrp	x0, 4010b000 <__func__.4011+0x10>
    4010255c:	910be400 	add	x0, x0, #0x2f9
    40102560:	97fffb49 	bl	40101284 <tf_printf>
    40102564:	2a1403e0 	mov	w0, w20
    40102568:	a94153f3 	ldp	x19, x20, [sp,#16]
    4010256c:	a9425bf5 	ldp	x21, x22, [sp,#32]
    40102570:	a94363f7 	ldp	x23, x24, [sp,#48]
    40102574:	a9446bf9 	ldp	x25, x26, [sp,#64]
    40102578:	a8c67bfd 	ldp	x29, x30, [sp],#96
    4010257c:	d65f03c0 	ret
    40102580:	b0000054 	adrp	x20, 4010b000 <__func__.4011+0x10>
    40102584:	f944329a 	ldr	x26, [x20,#2144]
    40102588:	97fffe47 	bl	40101ea4 <read_time_ms>
    4010258c:	39002340 	strb	w0, [x26,#8]
    40102590:	d3483c00 	ubfx	x0, x0, #8, #8
    40102594:	39002740 	strb	w0, [x26,#9]
    40102598:	97fffcac 	bl	40101848 <sys_switch_all_to_pll>
    4010259c:	f944329a 	ldr	x26, [x20,#2144]
    401025a0:	97fffe41 	bl	40101ea4 <read_time_ms>
    401025a4:	39002b40 	strb	w0, [x26,#10]
    401025a8:	d3483c00 	ubfx	x0, x0, #8, #8
    401025ac:	39002f40 	strb	w0, [x26,#11]
    401025b0:	aa1403fa 	mov	x26, x20
    401025b4:	340002f7 	cbz	w23, 40102610 <load_loader_2nd+0x200>
    401025b8:	910183b4 	add	x20, x29, #0x60
    401025bc:	d2a02000 	mov	x0, #0x1000000             	// #16777216
    401025c0:	d2800402 	mov	x2, #0x20                  	// #32
    401025c4:	aa1803e1 	mov	x1, x24
    401025c8:	f81f8e80 	str	x0, [x20,#-8]!
    401025cc:	f9400ad5 	ldr	x21, [x22,#16]
    401025d0:	aa1503e0 	mov	x0, x21
    401025d4:	97fffddf 	bl	40101d50 <memcpy>
    401025d8:	b9400ec3 	ldr	w3, [x22,#12]
    401025dc:	2a1703e4 	mov	w4, w23
    401025e0:	91008302 	add	x2, x24, #0x20
    401025e4:	aa1403e1 	mov	x1, x20
    401025e8:	910082a0 	add	x0, x21, #0x20
    401025ec:	94000141 	bl	40102af0 <decompress>
    401025f0:	36f800e0 	tbz	w0, #31, 4010260c <load_loader_2nd+0x1fc>
    401025f4:	f9402fa2 	ldr	x2, [x29,#88]
    401025f8:	2a0003e1 	mov	w1, w0
    401025fc:	b0000040 	adrp	x0, 4010b000 <__func__.4011+0x10>
    40102600:	910c5800 	add	x0, x0, #0x316
    40102604:	97fffb20 	bl	40101284 <tf_printf>
    40102608:	17ffff98 	b	40102468 <load_loader_2nd+0x58>
    4010260c:	b9405bb5 	ldr	w21, [x29,#88]
    40102610:	91300273 	add	x19, x19, #0xc00
    40102614:	93407ea1 	sxtw	x1, w21
    40102618:	f9400a60 	ldr	x0, [x19,#16]
    4010261c:	940021f7 	bl	4010adf8 <flush_dcache_range>
    40102620:	f9443354 	ldr	x20, [x26,#2144]
    40102624:	97fffe20 	bl	40101ea4 <read_time_ms>
    40102628:	39003280 	strb	w0, [x20,#12]
    4010262c:	d3483c00 	ubfx	x0, x0, #8, #8
    40102630:	39003680 	strb	w0, [x20,#13]
    40102634:	b0000040 	adrp	x0, 4010b000 <__func__.4011+0x10>
    40102638:	910d1400 	add	x0, x0, #0x345
    4010263c:	52800014 	mov	w20, #0x0                   	// #0
    40102640:	97fffb11 	bl	40101284 <tf_printf>
    40102644:	f9400a60 	ldr	x0, [x19,#16]
    40102648:	91008000 	add	x0, x0, #0x20
    4010264c:	f9000320 	str	x0, [x25]
    40102650:	17ffffc5 	b	40102564 <load_loader_2nd+0x154>
    40102654:	52800037 	mov	w23, #0x1                   	// #1
    40102658:	17ffff9c 	b	401024c8 <load_loader_2nd+0xb8>

000000004010265c <load_rest>:
    4010265c:	a9bd7bfd 	stp	x29, x30, [sp,#-48]!
    40102660:	910003fd 	mov	x29, sp
    40102664:	a90153f3 	stp	x19, x20, [sp,#16]
    40102668:	1299d3f4 	mov	w20, #0xffff3160            	// #-52896
    4010266c:	a9027fbf 	stp	xzr, xzr, [x29,#32]
    40102670:	97fffc7b 	bl	4010185c <sys_pll_init>
    40102674:	52800013 	mov	w19, #0x0                   	// #0
    40102678:	97fbf692 	bl	400000c0 <p_rom_api_get_number_of_retries>
    4010267c:	6b00027f 	cmp	w19, w0
    40102680:	540001ca 	b.ge	401026b8 <load_rest+0x5c>
    40102684:	2a1303e0 	mov	w0, w19
    40102688:	97fffead 	bl	4010213c <load_blcp_2nd>
    4010268c:	36f80060 	tbz	w0, #31, 40102698 <load_rest+0x3c>
    40102690:	11000673 	add	w19, w19, #0x1
    40102694:	17fffff9 	b	40102678 <load_rest+0x1c>
    40102698:	910083a1 	add	x1, x29, #0x20
    4010269c:	2a1303e0 	mov	w0, w19
    401026a0:	97ffff0c 	bl	401022d0 <load_monitor>
    401026a4:	37ffff60 	tbnz	w0, #31, 40102690 <load_rest+0x34>
    401026a8:	9100a3a1 	add	x1, x29, #0x28
    401026ac:	2a1303e0 	mov	w0, w19
    401026b0:	97ffff58 	bl	40102410 <load_loader_2nd>
    401026b4:	37fffee0 	tbnz	w0, #31, 40102690 <load_rest+0x34>
    401026b8:	97fbf682 	bl	400000c0 <p_rom_api_get_number_of_retries>
    401026bc:	6b00027f 	cmp	w19, w0
    401026c0:	540001ea 	b.ge	401026fc <load_rest+0xa0>
    401026c4:	97fffa35 	bl	40100f98 <sync_cache>
    401026c8:	9400221b 	bl	4010af34 <console_flush>
    401026cc:	97fffd22 	bl	40101b54 <switch_rtc_mode_2nd_stage>
    401026d0:	f94013a1 	ldr	x1, [x29,#32]
    401026d4:	b40003c1 	cbz	x1, 4010274c <load_rest+0xf0>
    401026d8:	b0000040 	adrp	x0, 4010b000 <__func__.4011+0x10>
    401026dc:	91123800 	add	x0, x0, #0x48e
    401026e0:	97fffae9 	bl	40101284 <tf_printf>
    401026e4:	a94207a0 	ldp	x0, x1, [x29,#32]
    401026e8:	97fffa7d 	bl	401010dc <jump_to_monitor>
    401026ec:	a94153f3 	ldp	x19, x20, [sp,#16]
    401026f0:	52800000 	mov	w0, #0x0                   	// #0
    401026f4:	a8c37bfd 	ldp	x29, x30, [sp],#48
    401026f8:	d65f03c0 	ret
    401026fc:	97fbf649 	bl	40000020 <p_rom_api_get_boot_src>
    40102700:	0b140001 	add	w1, w0, w20
    40102704:	7100143f 	cmp	w1, #0x5
    40102708:	54000188 	b.hi	40102738 <load_rest+0xdc>
    4010270c:	d2800020 	mov	x0, #0x1                   	// #1
    40102710:	9ac12000 	lsl	x0, x0, x1
    40102714:	d2800521 	mov	x1, #0x29                  	// #41
    40102718:	ea01001f 	tst	x0, x1
    4010271c:	540000e0 	b.eq	40102738 <load_rest+0xdc>
    40102720:	2a1303e1 	mov	w1, w19
    40102724:	b0000040 	adrp	x0, 4010b000 <__func__.4011+0x10>
    40102728:	91088c00 	add	x0, x0, #0x223
    4010272c:	97fffad6 	bl	40101284 <tf_printf>
    40102730:	97fbf654 	bl	40000080 <p_rom_api_flash_init>
    40102734:	17ffffd0 	b	40102674 <load_rest+0x18>
    40102738:	2a1303e1 	mov	w1, w19
    4010273c:	b0000040 	adrp	x0, 4010b000 <__func__.4011+0x10>
    40102740:	9111b800 	add	x0, x0, #0x46e
    40102744:	97fffad0 	bl	40101284 <tf_printf>
    40102748:	97fffc01 	bl	4010174c <panic_handler>
    4010274c:	f94017a1 	ldr	x1, [x29,#40]
    40102750:	b0000040 	adrp	x0, 4010b000 <__func__.4011+0x10>
    40102754:	9112ac00 	add	x0, x0, #0x4ab
    40102758:	97fffacb 	bl	40101284 <tf_printf>
    4010275c:	f94017a0 	ldr	x0, [x29,#40]
    40102760:	97fffa96 	bl	401011b8 <jump_to_loader_2nd>
    40102764:	17ffffe2 	b	401026ec <load_rest+0x90>

0000000040102768 <bl2_main>:
    40102768:	a9be7bfd 	stp	x29, x30, [sp,#-32]!
    4010276c:	d2801080 	mov	x0, #0x84                  	// #132
    40102770:	f2a06000 	movk	x0, #0x300, lsl #16
    40102774:	529e0001 	mov	w1, #0xf000                	// #61440
    40102778:	910003fd 	mov	x29, sp
    4010277c:	f9000bf3 	str	x19, [sp,#16]
    40102780:	72b64001 	movk	w1, #0xb200, lsl #16
    40102784:	b9000001 	str	w1, [x0]
    40102788:	b0000040 	adrp	x0, 4010b000 <__func__.4011+0x10>
    4010278c:	f9443013 	ldr	x19, [x0,#2144]
    40102790:	97fffdc5 	bl	40101ea4 <read_time_ms>
    40102794:	90000042 	adrp	x2, 4010a000 <pll_init+0x8>
    40102798:	90000041 	adrp	x1, 4010a000 <pll_init+0x8>
    4010279c:	913ea042 	add	x2, x2, #0xfa8
    401027a0:	913f2021 	add	x1, x1, #0xfc8
    401027a4:	39000260 	strb	w0, [x19]
    401027a8:	d3483c00 	ubfx	x0, x0, #8, #8
    401027ac:	39000660 	strb	w0, [x19,#1]
    401027b0:	b0000040 	adrp	x0, 4010b000 <__func__.4011+0x10>
    401027b4:	91037800 	add	x0, x0, #0xde
    401027b8:	97fffab3 	bl	40101284 <tf_printf>
    401027bc:	d2a1c000 	mov	x0, #0xe000000             	// #234881024
    401027c0:	b9400001 	ldr	w1, [x0]
    401027c4:	b0000040 	adrp	x0, 4010b000 <__func__.4011+0x10>
    401027c8:	9103b400 	add	x0, x0, #0xed
    401027cc:	97fffaae 	bl	40101284 <tf_printf>
    401027d0:	d2920000 	mov	x0, #0x9000                	// #36864
    401027d4:	f2a80260 	movk	x0, #0x4013, lsl #16
    401027d8:	b940e002 	ldr	w2, [x0,#224]
    401027dc:	b9400c01 	ldr	w1, [x0,#12]
    401027e0:	b0000040 	adrp	x0, 4010b000 <__func__.4011+0x10>
    401027e4:	91040000 	add	x0, x0, #0x100
    401027e8:	97fffaa7 	bl	40101284 <tf_printf>
    401027ec:	d2800300 	mov	x0, #0x18                  	// #24
    401027f0:	f2a1c000 	movk	x0, #0xe00, lsl #16
    401027f4:	b9400001 	ldr	w1, [x0]
    401027f8:	b0000040 	adrp	x0, 4010b000 <__func__.4011+0x10>
    401027fc:	9104e000 	add	x0, x0, #0x138
    40102800:	97fffaa1 	bl	40101284 <tf_printf>
    40102804:	97fffbfe 	bl	401017fc <setup_dl_flag>
    40102808:	97fffca9 	bl	40101aac <switch_rtc_mode_1st_stage>
    4010280c:	97fffcf2 	bl	40101bd4 <set_rtc_en_registers>
    40102810:	97fffe0e 	bl	40102048 <load_ddr>
    40102814:	97ffff92 	bl	4010265c <load_rest>
    40102818:	b0000040 	adrp	x0, 4010b000 <__func__.4011+0x10>
    4010281c:	91054000 	add	x0, x0, #0x150
    40102820:	97fffa99 	bl	40101284 <tf_printf>
    40102824:	14000000 	b	40102824 <bl2_main+0xbc>

0000000040102828 <SzFree>:
    40102828:	d65f03c0 	ret

000000004010282c <SzAlloc>:
    4010282c:	90000082 	adrp	x2, 40112000 <sram_union_buf+0x3400>
    40102830:	f9464440 	ldr	x0, [x2,#3208]
    40102834:	8b010003 	add	x3, x0, x1
    40102838:	f9064443 	str	x3, [x2,#3208]
    4010283c:	90000082 	adrp	x2, 40112000 <sram_union_buf+0x3400>
    40102840:	f9464842 	ldr	x2, [x2,#3216]
    40102844:	8b020062 	add	x2, x3, x2
    40102848:	eb02007f 	cmp	x3, x2
    4010284c:	54000183 	b.cc	4010287c <SzAlloc+0x50>
    40102850:	a9bf7bfd 	stp	x29, x30, [sp,#-16]!
    40102854:	aa0103e2 	mov	x2, x1
    40102858:	b0000040 	adrp	x0, 4010b000 <__func__.4011+0x10>
    4010285c:	b0000041 	adrp	x1, 4010b000 <__func__.4011+0x10>
    40102860:	910003fd 	mov	x29, sp
    40102864:	9113c021 	add	x1, x1, #0x4f0
    40102868:	91132c00 	add	x0, x0, #0x4cb
    4010286c:	97fffa86 	bl	40101284 <tf_printf>
    40102870:	d2800000 	mov	x0, #0x0                   	// #0
    40102874:	a8c17bfd 	ldp	x29, x30, [sp],#16
    40102878:	d65f03c0 	ret
    4010287c:	d65f03c0 	ret

0000000040102880 <decompress_lzma>:
    40102880:	d101c3ff 	sub	sp, sp, #0x70
    40102884:	a9017bfd 	stp	x29, x30, [sp,#16]
    40102888:	910043fd 	add	x29, sp, #0x10
    4010288c:	f9001bf5 	str	x21, [sp,#48]
    40102890:	aa0003f5 	mov	x21, x0
    40102894:	90000000 	adrp	x0, 40102000 <load_ddr_param+0x6c>
    40102898:	9120b000 	add	x0, x0, #0x82c
    4010289c:	a90253f3 	stp	x19, x20, [sp,#32]
    401028a0:	f9002ba0 	str	x0, [x29,#80]
    401028a4:	90000000 	adrp	x0, 40102000 <load_ddr_param+0x6c>
    401028a8:	f9001fa3 	str	x3, [x29,#56]
    401028ac:	9120a000 	add	x0, x0, #0x828
    401028b0:	b90047bf 	str	wzr, [x29,#68]
    401028b4:	f90027bf 	str	xzr, [x29,#72]
    401028b8:	f9002fa0 	str	x0, [x29,#88]
    401028bc:	b50001a1 	cbnz	x1, 401028f0 <decompress_lzma+0x70>
    401028c0:	128002b3 	mov	w19, #0xffffffea            	// #-22
    401028c4:	b0000041 	adrp	x1, 4010b000 <__func__.4011+0x10>
    401028c8:	b0000040 	adrp	x0, 4010b000 <__func__.4011+0x10>
    401028cc:	9113e021 	add	x1, x1, #0x4f8
    401028d0:	91167800 	add	x0, x0, #0x59e
    401028d4:	97fffa6c 	bl	40101284 <tf_printf>
    401028d8:	2a1303e0 	mov	w0, w19
    401028dc:	f9401bf5 	ldr	x21, [sp,#48]
    401028e0:	a94253f3 	ldp	x19, x20, [sp,#32]
    401028e4:	a9417bfd 	ldp	x29, x30, [sp,#16]
    401028e8:	9101c3ff 	add	sp, sp, #0x70
    401028ec:	d65f03c0 	ret
    401028f0:	90000080 	adrp	x0, 40112000 <sram_union_buf+0x3400>
    401028f4:	aa0103f4 	mov	x20, x1
    401028f8:	d2b03001 	mov	x1, #0x81800000            	// #2172649472
    401028fc:	aa0203f3 	mov	x19, x2
    40102900:	f9064401 	str	x1, [x0,#3208]
    40102904:	90000080 	adrp	x0, 40112000 <sram_union_buf+0x3400>
    40102908:	d2a00201 	mov	x1, #0x100000              	// #1048576
    4010290c:	f9064801 	str	x1, [x0,#3216]
    40102910:	aa1503e1 	mov	x1, x21
    40102914:	b0000040 	adrp	x0, 4010b000 <__func__.4011+0x10>
    40102918:	9116e800 	add	x0, x0, #0x5ba
    4010291c:	97fffa5a 	bl	40101284 <tf_printf>
    40102920:	f9401fa0 	ldr	x0, [x29,#56]
    40102924:	d2800082 	mov	x2, #0x4                   	// #4
    40102928:	91001661 	add	x1, x19, #0x5
    4010292c:	d1001400 	sub	x0, x0, #0x5
    40102930:	f9001fa0 	str	x0, [x29,#56]
    40102934:	910103a0 	add	x0, x29, #0x40
    40102938:	97fffd06 	bl	40101d50 <memcpy>
    4010293c:	b94043a1 	ldr	w1, [x29,#64]
    40102940:	f9401fa0 	ldr	x0, [x29,#56]
    40102944:	f90027a1 	str	x1, [x29,#72]
    40102948:	d1002000 	sub	x0, x0, #0x8
    4010294c:	f9001fa0 	str	x0, [x29,#56]
    40102950:	b0000040 	adrp	x0, 4010b000 <__func__.4011+0x10>
    40102954:	91173400 	add	x0, x0, #0x5cd
    40102958:	97fffa4b 	bl	40101284 <tf_printf>
    4010295c:	910143a0 	add	x0, x29, #0x50
    40102960:	f90003e0 	str	x0, [sp]
    40102964:	aa1303e4 	mov	x4, x19
    40102968:	91003662 	add	x2, x19, #0xd
    4010296c:	910113a7 	add	x7, x29, #0x44
    40102970:	52800026 	mov	w6, #0x1                   	// #1
    40102974:	528000a5 	mov	w5, #0x5                   	// #5
    40102978:	9100e3a3 	add	x3, x29, #0x38
    4010297c:	910123a1 	add	x1, x29, #0x48
    40102980:	aa1503e0 	mov	x0, x21
    40102984:	94000830 	bl	40104a44 <LzmaDecode>
    40102988:	2a0003f3 	mov	w19, w0
    4010298c:	34000100 	cbz	w0, 401029ac <decompress_lzma+0x12c>
    40102990:	b94047a2 	ldr	w2, [x29,#68]
    40102994:	2a0003e1 	mov	w1, w0
    40102998:	128001b3 	mov	w19, #0xfffffff2            	// #-14
    4010299c:	b0000040 	adrp	x0, 4010b000 <__func__.4011+0x10>
    401029a0:	9117ac00 	add	x0, x0, #0x5eb
    401029a4:	97fffa38 	bl	40101284 <tf_printf>
    401029a8:	17ffffcc 	b	401028d8 <decompress_lzma+0x58>
    401029ac:	f94027a1 	ldr	x1, [x29,#72]
    401029b0:	b0000040 	adrp	x0, 4010b000 <__func__.4011+0x10>
    401029b4:	f9000281 	str	x1, [x20]
    401029b8:	91184800 	add	x0, x0, #0x612
    401029bc:	97fffa32 	bl	40101284 <tf_printf>
    401029c0:	17ffffc6 	b	401028d8 <decompress_lzma+0x58>

00000000401029c4 <LZ4_malloc>:
    401029c4:	aa0003e1 	mov	x1, x0
    401029c8:	d2800000 	mov	x0, #0x0                   	// #0
    401029cc:	17ffff98 	b	4010282c <SzAlloc>

00000000401029d0 <LZ4_calloc>:
    401029d0:	a9be7bfd 	stp	x29, x30, [sp,#-32]!
    401029d4:	910003fd 	mov	x29, sp
    401029d8:	a90153f3 	stp	x19, x20, [sp,#16]
    401029dc:	9b017c14 	mul	x20, x0, x1
    401029e0:	aa1403e0 	mov	x0, x20
    401029e4:	97fffff8 	bl	401029c4 <LZ4_malloc>
    401029e8:	aa0003f3 	mov	x19, x0
    401029ec:	b4000080 	cbz	x0, 401029fc <LZ4_calloc+0x2c>
    401029f0:	aa1403e2 	mov	x2, x20
    401029f4:	52800001 	mov	w1, #0x0                   	// #0
    401029f8:	97fffcb7 	bl	40101cd4 <memset>
    401029fc:	aa1303e0 	mov	x0, x19
    40102a00:	a94153f3 	ldp	x19, x20, [sp,#16]
    40102a04:	a8c27bfd 	ldp	x29, x30, [sp],#32
    40102a08:	d65f03c0 	ret

0000000040102a0c <LZ4_free>:
    40102a0c:	d65f03c0 	ret

0000000040102a10 <decompress_lz4>:
    40102a10:	a9bb7bfd 	stp	x29, x30, [sp,#-80]!
    40102a14:	910003fd 	mov	x29, sp
    40102a18:	a90153f3 	stp	x19, x20, [sp,#16]
    40102a1c:	aa0003f3 	mov	x19, x0
    40102a20:	90000080 	adrp	x0, 40112000 <sram_union_buf+0x3400>
    40102a24:	a9025bf5 	stp	x21, x22, [sp,#32]
    40102a28:	aa0103f5 	mov	x21, x1
    40102a2c:	d2b03001 	mov	x1, #0x81800000            	// #2172649472
    40102a30:	f9064401 	str	x1, [x0,#3208]
    40102a34:	90000080 	adrp	x0, 40112000 <sram_union_buf+0x3400>
    40102a38:	d2a00201 	mov	x1, #0x100000              	// #1048576
    40102a3c:	aa0203f6 	mov	x22, x2
    40102a40:	f9064801 	str	x1, [x0,#3216]
    40102a44:	aa1303e1 	mov	x1, x19
    40102a48:	f9001fa3 	str	x3, [x29,#56]
    40102a4c:	b0000040 	adrp	x0, 4010b000 <__func__.4011+0x10>
    40102a50:	9114d800 	add	x0, x0, #0x536
    40102a54:	97fffa0c 	bl	40101284 <tf_printf>
    40102a58:	52800c81 	mov	w1, #0x64                  	// #100
    40102a5c:	910123a0 	add	x0, x29, #0x48
    40102a60:	940010f5 	bl	40106e34 <LZ4F_createDecompressionContext>
    40102a64:	aa0003f4 	mov	x20, x0
    40102a68:	9400105a 	bl	40106bd0 <LZ4F_isError>
    40102a6c:	34000160 	cbz	w0, 40102a98 <decompress_lz4+0x88>
    40102a70:	b0000040 	adrp	x0, 4010b000 <__func__.4011+0x10>
    40102a74:	aa1403e1 	mov	x1, x20
    40102a78:	91151c00 	add	x0, x0, #0x547
    40102a7c:	97fffa02 	bl	40101284 <tf_printf>
    40102a80:	12800001 	mov	w1, #0xffffffff            	// #-1
    40102a84:	a94153f3 	ldp	x19, x20, [sp,#16]
    40102a88:	2a0103e0 	mov	w0, w1
    40102a8c:	a9425bf5 	ldp	x21, x22, [sp,#32]
    40102a90:	a8c57bfd 	ldp	x29, x30, [sp],#80
    40102a94:	d65f03c0 	ret
    40102a98:	f94027a0 	ldr	x0, [x29,#72]
    40102a9c:	d2800005 	mov	x5, #0x0                   	// #0
    40102aa0:	9100e3a4 	add	x4, x29, #0x38
    40102aa4:	aa1303e1 	mov	x1, x19
    40102aa8:	aa1603e3 	mov	x3, x22
    40102aac:	aa1503e2 	mov	x2, x21
    40102ab0:	940010f3 	bl	40106e7c <LZ4F_decompress>
    40102ab4:	aa0003e3 	mov	x3, x0
    40102ab8:	f94002a1 	ldr	x1, [x21]
    40102abc:	aa0003f3 	mov	x19, x0
    40102ac0:	f9401fa2 	ldr	x2, [x29,#56]
    40102ac4:	b0000040 	adrp	x0, 4010b000 <__func__.4011+0x10>
    40102ac8:	91157000 	add	x0, x0, #0x55c
    40102acc:	97fff9ee 	bl	40101284 <tf_printf>
    40102ad0:	aa1403e0 	mov	x0, x20
    40102ad4:	9400103f 	bl	40106bd0 <LZ4F_isError>
    40102ad8:	52800001 	mov	w1, #0x0                   	// #0
    40102adc:	34fffd40 	cbz	w0, 40102a84 <decompress_lz4+0x74>
    40102ae0:	b0000040 	adrp	x0, 4010b000 <__func__.4011+0x10>
    40102ae4:	aa1303e1 	mov	x1, x19
    40102ae8:	91161000 	add	x0, x0, #0x584
    40102aec:	17ffffe4 	b	40102a7c <decompress_lz4+0x6c>

0000000040102af0 <decompress>:
    40102af0:	a9bc7bfd 	stp	x29, x30, [sp,#-64]!
    40102af4:	2a0403e5 	mov	w5, w4
    40102af8:	910003fd 	mov	x29, sp
    40102afc:	a9025bf5 	stp	x21, x22, [sp,#32]
    40102b00:	aa0203f5 	mov	x21, x2
    40102b04:	f9001bf7 	str	x23, [sp,#48]
    40102b08:	aa0303f6 	mov	x22, x3
    40102b0c:	2a0403f7 	mov	w23, w4
    40102b10:	aa0303e4 	mov	x4, x3
    40102b14:	aa0203e3 	mov	x3, x2
    40102b18:	f9400022 	ldr	x2, [x1]
    40102b1c:	a90153f3 	stp	x19, x20, [sp,#16]
    40102b20:	aa0003f3 	mov	x19, x0
    40102b24:	aa0103f4 	mov	x20, x1
    40102b28:	aa0003e1 	mov	x1, x0
    40102b2c:	b0000040 	adrp	x0, 4010b000 <__func__.4011+0x10>
    40102b30:	91142000 	add	x0, x0, #0x508
    40102b34:	97fff9d4 	bl	40101284 <tf_printf>
    40102b38:	710006ff 	cmp	w23, #0x1
    40102b3c:	54000280 	b.eq	40102b8c <decompress+0x9c>
    40102b40:	71000aff 	cmp	w23, #0x2
    40102b44:	54000301 	b.ne	40102ba4 <decompress+0xb4>
    40102b48:	aa1603e3 	mov	x3, x22
    40102b4c:	aa1503e2 	mov	x2, x21
    40102b50:	aa1403e1 	mov	x1, x20
    40102b54:	aa1303e0 	mov	x0, x19
    40102b58:	97ffffae 	bl	40102a10 <decompress_lz4>
    40102b5c:	2a0003f3 	mov	w19, w0
    40102b60:	f9400281 	ldr	x1, [x20]
    40102b64:	2a1303e2 	mov	w2, w19
    40102b68:	b0000040 	adrp	x0, 4010b000 <__func__.4011+0x10>
    40102b6c:	91149400 	add	x0, x0, #0x525
    40102b70:	97fff9c5 	bl	40101284 <tf_printf>
    40102b74:	f9401bf7 	ldr	x23, [sp,#48]
    40102b78:	2a1303e0 	mov	w0, w19
    40102b7c:	a94153f3 	ldp	x19, x20, [sp,#16]
    40102b80:	a9425bf5 	ldp	x21, x22, [sp,#32]
    40102b84:	a8c47bfd 	ldp	x29, x30, [sp],#64
    40102b88:	d65f03c0 	ret
    40102b8c:	aa1603e3 	mov	x3, x22
    40102b90:	aa1503e2 	mov	x2, x21
    40102b94:	aa1403e1 	mov	x1, x20
    40102b98:	aa1303e0 	mov	x0, x19
    40102b9c:	97ffff39 	bl	40102880 <decompress_lzma>
    40102ba0:	17ffffef 	b	40102b5c <decompress+0x6c>
    40102ba4:	128002b3 	mov	w19, #0xffffffea            	// #-22
    40102ba8:	17ffffee 	b	40102b60 <decompress+0x70>

0000000040102bac <LzmaDec_WriteRem>:
    40102bac:	b9405c03 	ldr	w3, [x0,#92]
    40102bb0:	51000462 	sub	w2, w3, #0x1
    40102bb4:	7104405f 	cmp	w2, #0x110
    40102bb8:	540002c8 	b.hi	40102c10 <LzmaDec_WriteRem+0x64>
    40102bbc:	f9401402 	ldr	x2, [x0,#40]
    40102bc0:	29481c04 	ldp	w4, w7, [x0,#64]
    40102bc4:	cb020021 	sub	x1, x1, x2
    40102bc8:	eb23403f 	cmp	x1, w3, uxtw
    40102bcc:	b9404806 	ldr	w6, [x0,#72]
    40102bd0:	a941a005 	ldp	x5, x8, [x0,#24]
    40102bd4:	1a812061 	csel	w1, w3, w1, cs
    40102bd8:	350000c7 	cbnz	w7, 40102bf0 <LzmaDec_WriteRem+0x44>
    40102bdc:	b9400407 	ldr	w7, [x0,#4]
    40102be0:	4b0400e9 	sub	w9, w7, w4
    40102be4:	6b09003f 	cmp	w1, w9
    40102be8:	54000043 	b.cc	40102bf0 <LzmaDec_WriteRem+0x44>
    40102bec:	b9004407 	str	w7, [x0,#68]
    40102bf0:	0b010084 	add	w4, w4, w1
    40102bf4:	4b010063 	sub	w3, w3, w1
    40102bf8:	8b214041 	add	x1, x2, w1, uxtw
    40102bfc:	b9004004 	str	w4, [x0,#64]
    40102c00:	b9005c03 	str	w3, [x0,#92]
    40102c04:	eb01005f 	cmp	x2, x1
    40102c08:	54000061 	b.ne	40102c14 <LzmaDec_WriteRem+0x68>
    40102c0c:	f9001402 	str	x2, [x0,#40]
    40102c10:	d65f03c0 	ret
    40102c14:	eb06005f 	cmp	x2, x6
    40102c18:	cb060044 	sub	x4, x2, x6
    40102c1c:	9a9f3103 	csel	x3, x8, xzr, cc
    40102c20:	8b0300a3 	add	x3, x5, x3
    40102c24:	38646863 	ldrb	w3, [x3,x4]
    40102c28:	382268a3 	strb	w3, [x5,x2]
    40102c2c:	91000442 	add	x2, x2, #0x1
    40102c30:	17fffff5 	b	40102c04 <LzmaDec_WriteRem+0x58>

0000000040102c34 <LzmaDec_DecodeReal2>:
    40102c34:	a9b77bfd 	stp	x29, x30, [sp,#-144]!
    40102c38:	aa0003eb 	mov	x11, x0
    40102c3c:	5281000a 	mov	w10, #0x800                 	// #2048
    40102c40:	910003fd 	mov	x29, sp
    40102c44:	a9025bf5 	stp	x21, x22, [sp,#32]
    40102c48:	aa0103f6 	mov	x22, x1
    40102c4c:	a90153f3 	stp	x19, x20, [sp,#16]
    40102c50:	a90363f7 	stp	x23, x24, [sp,#48]
    40102c54:	a9046bf9 	stp	x25, x26, [sp,#64]
    40102c58:	a90573fb 	stp	x27, x28, [sp,#80]
    40102c5c:	f90043a2 	str	x2, [x29,#128]
    40102c60:	b9404579 	ldr	w25, [x11,#68]
    40102c64:	2947b160 	ldp	w0, w12, [x11,#60]
    40102c68:	f9401567 	ldr	x7, [x11,#40]
    40102c6c:	35000299 	cbnz	w25, 40102cbc <LzmaDec_DecodeReal2+0x88>
    40102c70:	b9400561 	ldr	w1, [x11,#4]
    40102c74:	cb0702c2 	sub	x2, x22, x7
    40102c78:	4b0c0021 	sub	w1, w1, w12
    40102c7c:	8b0100f3 	add	x19, x7, x1
    40102c80:	eb01005f 	cmp	x2, x1
    40102c84:	9a968273 	csel	x19, x19, x22, hi
    40102c88:	350001cc 	cbnz	w12, 40102cc0 <LzmaDec_DecodeReal2+0x8c>
    40102c8c:	529f7fe1 	mov	w1, #0xfbff                	// #64511
    40102c90:	72b7ffe1 	movk	w1, #0xbfff, lsl #16
    40102c94:	6b01001f 	cmp	w0, w1
    40102c98:	54000149 	b.ls	40102cc0 <LzmaDec_DecodeReal2+0x8c>
    40102c9c:	52800020 	mov	w0, #0x1                   	// #1
    40102ca0:	a94153f3 	ldp	x19, x20, [sp,#16]
    40102ca4:	a9425bf5 	ldp	x21, x22, [sp,#32]
    40102ca8:	a94363f7 	ldp	x23, x24, [sp,#48]
    40102cac:	a9446bf9 	ldp	x25, x26, [sp,#64]
    40102cb0:	a94573fb 	ldp	x27, x28, [sp,#80]
    40102cb4:	a8c97bfd 	ldp	x29, x30, [sp],#144
    40102cb8:	d65f03c0 	ret
    40102cbc:	aa1603f3 	mov	x19, x22
    40102cc0:	39400161 	ldrb	w1, [x11]
    40102cc4:	12bfe004 	mov	w4, #0xffffff              	// #16777215
    40102cc8:	b9008fa1 	str	w1, [x29,#140]
    40102ccc:	5280007a 	mov	w26, #0x3                   	// #3
    40102cd0:	39400562 	ldrb	w2, [x11,#1]
    40102cd4:	52802001 	mov	w1, #0x100                 	// #256
    40102cd8:	394233a3 	ldrb	w3, [x29,#140]
    40102cdc:	5280017b 	mov	w27, #0xb                   	// #11
    40102ce0:	a9414565 	ldp	x5, x17, [x11,#16]
    40102ce4:	1ac22022 	lsl	w2, w1, w2
    40102ce8:	1ac32421 	lsr	w1, w1, w3
    40102cec:	39400963 	ldrb	w3, [x11,#2]
    40102cf0:	4b010041 	sub	w1, w2, w1
    40102cf4:	12800002 	mov	w2, #0xffffffff            	// #-1
    40102cf8:	f9401174 	ldr	x20, [x11,#32]
    40102cfc:	1ac32042 	lsl	w2, w2, w3
    40102d00:	2a2203e2 	mvn	w2, w2
    40102d04:	b9008ba1 	str	w1, [x29,#136]
    40102d08:	52800003 	mov	w3, #0x0                   	// #0
    40102d0c:	b9007fa2 	str	w2, [x29,#124]
    40102d10:	d12800a2 	sub	x2, x5, #0xa00
    40102d14:	b9403966 	ldr	w6, [x11,#56]
    40102d18:	2949356e 	ldp	w14, w13, [x11,#72]
    40102d1c:	f9003ba2 	str	x2, [x29,#112]
    40102d20:	294a6172 	ldp	w18, w24, [x11,#80]
    40102d24:	d11800a2 	sub	x2, x5, #0x600
    40102d28:	b9405969 	ldr	w9, [x11,#88]
    40102d2c:	f9401961 	ldr	x1, [x11,#48]
    40102d30:	f90037a2 	str	x2, [x29,#104]
    40102d34:	d1000682 	sub	x2, x20, #0x1
    40102d38:	f90033a2 	str	x2, [x29,#96]
    40102d3c:	b9407fa2 	ldr	w2, [x29,#124]
    40102d40:	6b0400df 	cmp	w6, w4
    40102d44:	0a0c0048 	and	w8, w2, w12
    40102d48:	531c6d08 	lsl	w8, w8, #4
    40102d4c:	0b09010f 	add	w15, w8, w9
    40102d50:	d37ff9ef 	lsl	x15, x15, #1
    40102d54:	d10801f5 	sub	x21, x15, #0x200
    40102d58:	787568b0 	ldrh	w16, [x5,x21]
    40102d5c:	540000a8 	b.hi	40102d70 <LzmaDec_DecodeReal2+0x13c>
    40102d60:	39400022 	ldrb	w2, [x1]
    40102d64:	53185cc6 	lsl	w6, w6, #8
    40102d68:	91000421 	add	x1, x1, #0x1
    40102d6c:	2a002040 	orr	w0, w2, w0, lsl #8
    40102d70:	530b7cc2 	lsr	w2, w6, #11
    40102d74:	1b107c42 	mul	w2, w2, w16
    40102d78:	6b00005f 	cmp	w2, w0
    40102d7c:	54003549 	b.ls	40103424 <LzmaDec_DecodeReal2+0x7f0>
    40102d80:	4b100146 	sub	w6, w10, w16
    40102d84:	910a00a8 	add	x8, x5, #0x280
    40102d88:	0b461610 	add	w16, w16, w6, lsr #5
    40102d8c:	783568b0 	strh	w16, [x5,x21]
    40102d90:	2a0c0326 	orr	w6, w25, w12
    40102d94:	34000186 	cbz	w6, 40102dc4 <LzmaDec_DecodeReal2+0x190>
    40102d98:	53185d8f 	lsl	w15, w12, #8
    40102d9c:	b50013a7 	cbnz	x7, 40103010 <LzmaDec_DecodeReal2+0x3dc>
    40102da0:	f94033a6 	ldr	x6, [x29,#96]
    40102da4:	38666a26 	ldrb	w6, [x17,x6]
    40102da8:	0b0f00c6 	add	w6, w6, w15
    40102dac:	b9408baf 	ldr	w15, [x29,#136]
    40102db0:	0a0f00c6 	and	w6, w6, w15
    40102db4:	394233af 	ldrb	w15, [x29,#140]
    40102db8:	1acf20c6 	lsl	w6, w6, w15
    40102dbc:	0b0604c6 	add	w6, w6, w6, lsl #1
    40102dc0:	8b060508 	add	x8, x8, x6, lsl #1
    40102dc4:	1100058c 	add	w12, w12, #0x1
    40102dc8:	7100193f 	cmp	w9, #0x6
    40102dcc:	540017a8 	b.hi	401030c0 <LzmaDec_DecodeReal2+0x48c>
    40102dd0:	71000d3f 	cmp	w9, #0x3
    40102dd4:	1a9a9126 	csel	w6, w9, w26, ls
    40102dd8:	6b04005f 	cmp	w2, w4
    40102ddc:	4b060129 	sub	w9, w9, w6
    40102de0:	79400506 	ldrh	w6, [x8,#2]
    40102de4:	540000a8 	b.hi	40102df8 <LzmaDec_DecodeReal2+0x1c4>
    40102de8:	3940002f 	ldrb	w15, [x1]
    40102dec:	53185c42 	lsl	w2, w2, #8
    40102df0:	91000421 	add	x1, x1, #0x1
    40102df4:	2a0021e0 	orr	w0, w15, w0, lsl #8
    40102df8:	530b7c4f 	lsr	w15, w2, #11
    40102dfc:	1b067def 	mul	w15, w15, w6
    40102e00:	6b0001ff 	cmp	w15, w0
    40102e04:	540010a9 	b.ls	40103018 <LzmaDec_DecodeReal2+0x3e4>
    40102e08:	4b060142 	sub	w2, w10, w6
    40102e0c:	0b4214c6 	add	w6, w6, w2, lsr #5
    40102e10:	52800042 	mov	w2, #0x2                   	// #2
    40102e14:	79000506 	strh	w6, [x8,#2]
    40102e18:	d37f0446 	ubfiz	x6, x2, #1, #2
    40102e1c:	6b0401ff 	cmp	w15, w4
    40102e20:	8b060115 	add	x21, x8, x6
    40102e24:	78666910 	ldrh	w16, [x8,x6]
    40102e28:	540000a8 	b.hi	40102e3c <LzmaDec_DecodeReal2+0x208>
    40102e2c:	39400026 	ldrb	w6, [x1]
    40102e30:	53185def 	lsl	w15, w15, #8
    40102e34:	91000421 	add	x1, x1, #0x1
    40102e38:	2a0020c0 	orr	w0, w6, w0, lsl #8
    40102e3c:	530b7de6 	lsr	w6, w15, #11
    40102e40:	531f7842 	lsl	w2, w2, #1
    40102e44:	1b107cc6 	mul	w6, w6, w16
    40102e48:	6b0000df 	cmp	w6, w0
    40102e4c:	54000f29 	b.ls	40103030 <LzmaDec_DecodeReal2+0x3fc>
    40102e50:	4b10014f 	sub	w15, w10, w16
    40102e54:	0b4f1610 	add	w16, w16, w15, lsr #5
    40102e58:	790002b0 	strh	w16, [x21]
    40102e5c:	d37f7c4f 	ubfiz	x15, x2, #1, #32
    40102e60:	6b0400df 	cmp	w6, w4
    40102e64:	8b0f0115 	add	x21, x8, x15
    40102e68:	786f6910 	ldrh	w16, [x8,x15]
    40102e6c:	540000a8 	b.hi	40102e80 <LzmaDec_DecodeReal2+0x24c>
    40102e70:	3940002f 	ldrb	w15, [x1]
    40102e74:	53185cc6 	lsl	w6, w6, #8
    40102e78:	91000421 	add	x1, x1, #0x1
    40102e7c:	2a0021e0 	orr	w0, w15, w0, lsl #8
    40102e80:	530b7ccf 	lsr	w15, w6, #11
    40102e84:	531f7842 	lsl	w2, w2, #1
    40102e88:	1b107def 	mul	w15, w15, w16
    40102e8c:	6b0001ff 	cmp	w15, w0
    40102e90:	54000dc9 	b.ls	40103048 <LzmaDec_DecodeReal2+0x414>
    40102e94:	4b100146 	sub	w6, w10, w16
    40102e98:	0b461610 	add	w16, w16, w6, lsr #5
    40102e9c:	790002b0 	strh	w16, [x21]
    40102ea0:	d37f7c46 	ubfiz	x6, x2, #1, #32
    40102ea4:	6b0401ff 	cmp	w15, w4
    40102ea8:	8b060115 	add	x21, x8, x6
    40102eac:	78666910 	ldrh	w16, [x8,x6]
    40102eb0:	540000a8 	b.hi	40102ec4 <LzmaDec_DecodeReal2+0x290>
    40102eb4:	39400026 	ldrb	w6, [x1]
    40102eb8:	53185def 	lsl	w15, w15, #8
    40102ebc:	91000421 	add	x1, x1, #0x1
    40102ec0:	2a0020c0 	orr	w0, w6, w0, lsl #8
    40102ec4:	530b7de6 	lsr	w6, w15, #11
    40102ec8:	531f7842 	lsl	w2, w2, #1
    40102ecc:	1b107cc6 	mul	w6, w6, w16
    40102ed0:	6b0000df 	cmp	w6, w0
    40102ed4:	54000c69 	b.ls	40103060 <LzmaDec_DecodeReal2+0x42c>
    40102ed8:	4b10014f 	sub	w15, w10, w16
    40102edc:	0b4f1610 	add	w16, w16, w15, lsr #5
    40102ee0:	790002b0 	strh	w16, [x21]
    40102ee4:	d37f7c4f 	ubfiz	x15, x2, #1, #32
    40102ee8:	6b0400df 	cmp	w6, w4
    40102eec:	8b0f0115 	add	x21, x8, x15
    40102ef0:	786f6910 	ldrh	w16, [x8,x15]
    40102ef4:	540000a8 	b.hi	40102f08 <LzmaDec_DecodeReal2+0x2d4>
    40102ef8:	3940002f 	ldrb	w15, [x1]
    40102efc:	53185cc6 	lsl	w6, w6, #8
    40102f00:	91000421 	add	x1, x1, #0x1
    40102f04:	2a0021e0 	orr	w0, w15, w0, lsl #8
    40102f08:	530b7ccf 	lsr	w15, w6, #11
    40102f0c:	531f7842 	lsl	w2, w2, #1
    40102f10:	1b107def 	mul	w15, w15, w16
    40102f14:	6b0001ff 	cmp	w15, w0
    40102f18:	54000b09 	b.ls	40103078 <LzmaDec_DecodeReal2+0x444>
    40102f1c:	4b100146 	sub	w6, w10, w16
    40102f20:	0b461610 	add	w16, w16, w6, lsr #5
    40102f24:	790002b0 	strh	w16, [x21]
    40102f28:	d37f7c46 	ubfiz	x6, x2, #1, #32
    40102f2c:	6b0401ff 	cmp	w15, w4
    40102f30:	8b060115 	add	x21, x8, x6
    40102f34:	78666910 	ldrh	w16, [x8,x6]
    40102f38:	540000a8 	b.hi	40102f4c <LzmaDec_DecodeReal2+0x318>
    40102f3c:	39400026 	ldrb	w6, [x1]
    40102f40:	53185def 	lsl	w15, w15, #8
    40102f44:	91000421 	add	x1, x1, #0x1
    40102f48:	2a0020c0 	orr	w0, w6, w0, lsl #8
    40102f4c:	530b7de6 	lsr	w6, w15, #11
    40102f50:	531f7842 	lsl	w2, w2, #1
    40102f54:	1b107cc6 	mul	w6, w6, w16
    40102f58:	6b0000df 	cmp	w6, w0
    40102f5c:	540009a9 	b.ls	40103090 <LzmaDec_DecodeReal2+0x45c>
    40102f60:	4b10014f 	sub	w15, w10, w16
    40102f64:	0b4f1610 	add	w16, w16, w15, lsr #5
    40102f68:	790002b0 	strh	w16, [x21]
    40102f6c:	d37f7c4f 	ubfiz	x15, x2, #1, #32
    40102f70:	6b0400df 	cmp	w6, w4
    40102f74:	8b0f0115 	add	x21, x8, x15
    40102f78:	786f6910 	ldrh	w16, [x8,x15]
    40102f7c:	540000a8 	b.hi	40102f90 <LzmaDec_DecodeReal2+0x35c>
    40102f80:	3940002f 	ldrb	w15, [x1]
    40102f84:	53185cc6 	lsl	w6, w6, #8
    40102f88:	91000421 	add	x1, x1, #0x1
    40102f8c:	2a0021e0 	orr	w0, w15, w0, lsl #8
    40102f90:	530b7ccf 	lsr	w15, w6, #11
    40102f94:	531f7842 	lsl	w2, w2, #1
    40102f98:	1b107def 	mul	w15, w15, w16
    40102f9c:	6b0001ff 	cmp	w15, w0
    40102fa0:	54000849 	b.ls	401030a8 <LzmaDec_DecodeReal2+0x474>
    40102fa4:	4b100146 	sub	w6, w10, w16
    40102fa8:	0b461610 	add	w16, w16, w6, lsr #5
    40102fac:	790002b0 	strh	w16, [x21]
    40102fb0:	d37f7c46 	ubfiz	x6, x2, #1, #32
    40102fb4:	8b060110 	add	x16, x8, x6
    40102fb8:	6b0401ff 	cmp	w15, w4
    40102fbc:	78666908 	ldrh	w8, [x8,x6]
    40102fc0:	540000a8 	b.hi	40102fd4 <LzmaDec_DecodeReal2+0x3a0>
    40102fc4:	39400026 	ldrb	w6, [x1]
    40102fc8:	53185def 	lsl	w15, w15, #8
    40102fcc:	91000421 	add	x1, x1, #0x1
    40102fd0:	2a0020c0 	orr	w0, w6, w0, lsl #8
    40102fd4:	530b7de6 	lsr	w6, w15, #11
    40102fd8:	531f7842 	lsl	w2, w2, #1
    40102fdc:	1b087cc6 	mul	w6, w6, w8
    40102fe0:	6b0000df 	cmp	w6, w0
    40102fe4:	54002149 	b.ls	4010340c <LzmaDec_DecodeReal2+0x7d8>
    40102fe8:	4b08014f 	sub	w15, w10, w8
    40102fec:	0b4f1508 	add	w8, w8, w15, lsr #5
    40102ff0:	79000208 	strh	w8, [x16]
    40102ff4:	38276a22 	strb	w2, [x17,x7]
    40102ff8:	910004e7 	add	x7, x7, #0x1
    40102ffc:	f94043a2 	ldr	x2, [x29,#128]
    40103000:	eb07027f 	cmp	x19, x7
    40103004:	fa418040 	ccmp	x2, x1, #0x0, hi
    40103008:	54ffe9a8 	b.hi	40102d3c <LzmaDec_DecodeReal2+0x108>
    4010300c:	1400036b 	b	40103db8 <LzmaDec_DecodeReal2+0x1184>
    40103010:	d10004e6 	sub	x6, x7, #0x1
    40103014:	17ffff64 	b	40102da4 <LzmaDec_DecodeReal2+0x170>
    40103018:	4b0f0000 	sub	w0, w0, w15
    4010301c:	4b4614c6 	sub	w6, w6, w6, lsr #5
    40103020:	4b0f004f 	sub	w15, w2, w15
    40103024:	79000506 	strh	w6, [x8,#2]
    40103028:	52800062 	mov	w2, #0x3                   	// #3
    4010302c:	17ffff7b 	b	40102e18 <LzmaDec_DecodeReal2+0x1e4>
    40103030:	4b060000 	sub	w0, w0, w6
    40103034:	4b501610 	sub	w16, w16, w16, lsr #5
    40103038:	11000442 	add	w2, w2, #0x1
    4010303c:	790002b0 	strh	w16, [x21]
    40103040:	4b0601e6 	sub	w6, w15, w6
    40103044:	17ffff86 	b	40102e5c <LzmaDec_DecodeReal2+0x228>
    40103048:	4b0f0000 	sub	w0, w0, w15
    4010304c:	4b501610 	sub	w16, w16, w16, lsr #5
    40103050:	11000442 	add	w2, w2, #0x1
    40103054:	790002b0 	strh	w16, [x21]
    40103058:	4b0f00cf 	sub	w15, w6, w15
    4010305c:	17ffff91 	b	40102ea0 <LzmaDec_DecodeReal2+0x26c>
    40103060:	4b060000 	sub	w0, w0, w6
    40103064:	4b501610 	sub	w16, w16, w16, lsr #5
    40103068:	11000442 	add	w2, w2, #0x1
    4010306c:	790002b0 	strh	w16, [x21]
    40103070:	4b0601e6 	sub	w6, w15, w6
    40103074:	17ffff9c 	b	40102ee4 <LzmaDec_DecodeReal2+0x2b0>
    40103078:	4b0f0000 	sub	w0, w0, w15
    4010307c:	4b501610 	sub	w16, w16, w16, lsr #5
    40103080:	11000442 	add	w2, w2, #0x1
    40103084:	790002b0 	strh	w16, [x21]
    40103088:	4b0f00cf 	sub	w15, w6, w15
    4010308c:	17ffffa7 	b	40102f28 <LzmaDec_DecodeReal2+0x2f4>
    40103090:	4b060000 	sub	w0, w0, w6
    40103094:	4b501610 	sub	w16, w16, w16, lsr #5
    40103098:	11000442 	add	w2, w2, #0x1
    4010309c:	790002b0 	strh	w16, [x21]
    401030a0:	4b0601e6 	sub	w6, w15, w6
    401030a4:	17ffffb2 	b	40102f6c <LzmaDec_DecodeReal2+0x338>
    401030a8:	4b0f0000 	sub	w0, w0, w15
    401030ac:	4b501610 	sub	w16, w16, w16, lsr #5
    401030b0:	11000442 	add	w2, w2, #0x1
    401030b4:	790002b0 	strh	w16, [x21]
    401030b8:	4b0f00cf 	sub	w15, w6, w15
    401030bc:	17ffffbd 	b	40102fb0 <LzmaDec_DecodeReal2+0x37c>
    401030c0:	2a0e03ef 	mov	w15, w14
    401030c4:	cb0f00e6 	sub	x6, x7, x15
    401030c8:	eb0f00ff 	cmp	x7, x15
    401030cc:	9a9f328f 	csel	x15, x20, xzr, cc
    401030d0:	8b060226 	add	x6, x17, x6
    401030d4:	7100293f 	cmp	w9, #0xa
    401030d8:	386f68c6 	ldrb	w6, [x6,x15]
    401030dc:	528000cf 	mov	w15, #0x6                   	// #6
    401030e0:	1a8f334f 	csel	w15, w26, w15, cc
    401030e4:	6b04005f 	cmp	w2, w4
    401030e8:	4b0f0129 	sub	w9, w9, w15
    401030ec:	531f78c6 	lsl	w6, w6, #1
    401030f0:	121800dc 	and	w28, w6, #0x100
    401030f4:	1104078f 	add	w15, w28, #0x101
    401030f8:	d37f25ef 	ubfiz	x15, x15, #1, #10
    401030fc:	8b0f0115 	add	x21, x8, x15
    40103100:	786f6910 	ldrh	w16, [x8,x15]
    40103104:	540000a8 	b.hi	40103118 <LzmaDec_DecodeReal2+0x4e4>
    40103108:	3940002f 	ldrb	w15, [x1]
    4010310c:	53185c42 	lsl	w2, w2, #8
    40103110:	91000421 	add	x1, x1, #0x1
    40103114:	2a0021e0 	orr	w0, w15, w0, lsl #8
    40103118:	530b7c4f 	lsr	w15, w2, #11
    4010311c:	1b107def 	mul	w15, w15, w16
    40103120:	6b0001ff 	cmp	w15, w0
    40103124:	54001209 	b.ls	40103364 <LzmaDec_DecodeReal2+0x730>
    40103128:	2a2603fc 	mvn	w28, w6
    4010312c:	4b100142 	sub	w2, w10, w16
    40103130:	1218039c 	and	w28, w28, #0x100
    40103134:	0b421610 	add	w16, w16, w2, lsr #5
    40103138:	52800042 	mov	w2, #0x2                   	// #2
    4010313c:	790002b0 	strh	w16, [x21]
    40103140:	531f78c6 	lsl	w6, w6, #1
    40103144:	0b020390 	add	w16, w28, w2
    40103148:	0a1c00d7 	and	w23, w6, w28
    4010314c:	6b0401ff 	cmp	w15, w4
    40103150:	0b170210 	add	w16, w16, w23
    40103154:	d37f2a10 	ubfiz	x16, x16, #1, #11
    40103158:	8b10011e 	add	x30, x8, x16
    4010315c:	78706915 	ldrh	w21, [x8,x16]
    40103160:	540000a8 	b.hi	40103174 <LzmaDec_DecodeReal2+0x540>
    40103164:	39400030 	ldrb	w16, [x1]
    40103168:	53185def 	lsl	w15, w15, #8
    4010316c:	91000421 	add	x1, x1, #0x1
    40103170:	2a002200 	orr	w0, w16, w0, lsl #8
    40103174:	530b7df0 	lsr	w16, w15, #11
    40103178:	531f7842 	lsl	w2, w2, #1
    4010317c:	1b157e10 	mul	w16, w16, w21
    40103180:	6b00021f 	cmp	w16, w0
    40103184:	54000fc9 	b.ls	4010337c <LzmaDec_DecodeReal2+0x748>
    40103188:	4b15014f 	sub	w15, w10, w21
    4010318c:	0a260397 	bic	w23, w28, w6
    40103190:	0b4f16b5 	add	w21, w21, w15, lsr #5
    40103194:	790003d5 	strh	w21, [x30]
    40103198:	531f78c6 	lsl	w6, w6, #1
    4010319c:	0b0202ef 	add	w15, w23, w2
    401031a0:	0a1700d5 	and	w21, w6, w23
    401031a4:	6b04021f 	cmp	w16, w4
    401031a8:	0b1501ef 	add	w15, w15, w21
    401031ac:	d37ff9ef 	lsl	x15, x15, #1
    401031b0:	8b0f011e 	add	x30, x8, x15
    401031b4:	786f691c 	ldrh	w28, [x8,x15]
    401031b8:	540000a8 	b.hi	401031cc <LzmaDec_DecodeReal2+0x598>
    401031bc:	3940002f 	ldrb	w15, [x1]
    401031c0:	53185e10 	lsl	w16, w16, #8
    401031c4:	91000421 	add	x1, x1, #0x1
    401031c8:	2a0021e0 	orr	w0, w15, w0, lsl #8
    401031cc:	530b7e0f 	lsr	w15, w16, #11
    401031d0:	531f7842 	lsl	w2, w2, #1
    401031d4:	1b1c7def 	mul	w15, w15, w28
    401031d8:	6b0001ff 	cmp	w15, w0
    401031dc:	54000dc9 	b.ls	40103394 <LzmaDec_DecodeReal2+0x760>
    401031e0:	4b1c0150 	sub	w16, w10, w28
    401031e4:	0a2602f5 	bic	w21, w23, w6
    401031e8:	0b50179c 	add	w28, w28, w16, lsr #5
    401031ec:	790003dc 	strh	w28, [x30]
    401031f0:	531f78c6 	lsl	w6, w6, #1
    401031f4:	0b0202b0 	add	w16, w21, w2
    401031f8:	0a1500d7 	and	w23, w6, w21
    401031fc:	6b0401ff 	cmp	w15, w4
    40103200:	0b170210 	add	w16, w16, w23
    40103204:	d37ffa10 	lsl	x16, x16, #1
    40103208:	8b10011e 	add	x30, x8, x16
    4010320c:	7870691c 	ldrh	w28, [x8,x16]
    40103210:	540000a8 	b.hi	40103224 <LzmaDec_DecodeReal2+0x5f0>
    40103214:	39400030 	ldrb	w16, [x1]
    40103218:	53185def 	lsl	w15, w15, #8
    4010321c:	91000421 	add	x1, x1, #0x1
    40103220:	2a002200 	orr	w0, w16, w0, lsl #8
    40103224:	530b7df0 	lsr	w16, w15, #11
    40103228:	531f7842 	lsl	w2, w2, #1
    4010322c:	1b1c7e10 	mul	w16, w16, w28
    40103230:	6b00021f 	cmp	w16, w0
    40103234:	54000bc9 	b.ls	401033ac <LzmaDec_DecodeReal2+0x778>
    40103238:	4b1c014f 	sub	w15, w10, w28
    4010323c:	0a2602b7 	bic	w23, w21, w6
    40103240:	0b4f179c 	add	w28, w28, w15, lsr #5
    40103244:	790003dc 	strh	w28, [x30]
    40103248:	531f78c6 	lsl	w6, w6, #1
    4010324c:	0b0202ef 	add	w15, w23, w2
    40103250:	0a1700d5 	and	w21, w6, w23
    40103254:	6b04021f 	cmp	w16, w4
    40103258:	0b1501ef 	add	w15, w15, w21
    4010325c:	d37ff9ef 	lsl	x15, x15, #1
    40103260:	8b0f011e 	add	x30, x8, x15
    40103264:	786f691c 	ldrh	w28, [x8,x15]
    40103268:	540000a8 	b.hi	4010327c <LzmaDec_DecodeReal2+0x648>
    4010326c:	3940002f 	ldrb	w15, [x1]
    40103270:	53185e10 	lsl	w16, w16, #8
    40103274:	91000421 	add	x1, x1, #0x1
    40103278:	2a0021e0 	orr	w0, w15, w0, lsl #8
    4010327c:	530b7e0f 	lsr	w15, w16, #11
    40103280:	531f7842 	lsl	w2, w2, #1
    40103284:	1b1c7def 	mul	w15, w15, w28
    40103288:	6b0001ff 	cmp	w15, w0
    4010328c:	540009c9 	b.ls	401033c4 <LzmaDec_DecodeReal2+0x790>
    40103290:	4b1c0150 	sub	w16, w10, w28
    40103294:	0a2602f5 	bic	w21, w23, w6
    40103298:	0b50179c 	add	w28, w28, w16, lsr #5
    4010329c:	790003dc 	strh	w28, [x30]
    401032a0:	531f78c6 	lsl	w6, w6, #1
    401032a4:	0b0202b0 	add	w16, w21, w2
    401032a8:	0a1500d7 	and	w23, w6, w21
    401032ac:	6b0401ff 	cmp	w15, w4
    401032b0:	0b170210 	add	w16, w16, w23
    401032b4:	d37ffa10 	lsl	x16, x16, #1
    401032b8:	8b10011e 	add	x30, x8, x16
    401032bc:	7870691c 	ldrh	w28, [x8,x16]
    401032c0:	540000a8 	b.hi	401032d4 <LzmaDec_DecodeReal2+0x6a0>
    401032c4:	39400030 	ldrb	w16, [x1]
    401032c8:	53185def 	lsl	w15, w15, #8
    401032cc:	91000421 	add	x1, x1, #0x1
    401032d0:	2a002200 	orr	w0, w16, w0, lsl #8
    401032d4:	530b7df0 	lsr	w16, w15, #11
    401032d8:	531f7842 	lsl	w2, w2, #1
    401032dc:	1b1c7e10 	mul	w16, w16, w28
    401032e0:	6b00021f 	cmp	w16, w0
    401032e4:	540007c9 	b.ls	401033dc <LzmaDec_DecodeReal2+0x7a8>
    401032e8:	4b1c014f 	sub	w15, w10, w28
    401032ec:	0a2602b7 	bic	w23, w21, w6
    401032f0:	0b4f179c 	add	w28, w28, w15, lsr #5
    401032f4:	790003dc 	strh	w28, [x30]
    401032f8:	531f78c6 	lsl	w6, w6, #1
    401032fc:	0b0202ef 	add	w15, w23, w2
    40103300:	0a1700d5 	and	w21, w6, w23
    40103304:	6b04021f 	cmp	w16, w4
    40103308:	0b1501ef 	add	w15, w15, w21
    4010330c:	d37ff9ef 	lsl	x15, x15, #1
    40103310:	8b0f011c 	add	x28, x8, x15
    40103314:	786f691e 	ldrh	w30, [x8,x15]
    40103318:	540000a8 	b.hi	4010332c <LzmaDec_DecodeReal2+0x6f8>
    4010331c:	3940002f 	ldrb	w15, [x1]
    40103320:	53185e10 	lsl	w16, w16, #8
    40103324:	91000421 	add	x1, x1, #0x1
    40103328:	2a0021e0 	orr	w0, w15, w0, lsl #8
    4010332c:	530b7e0f 	lsr	w15, w16, #11
    40103330:	531f7842 	lsl	w2, w2, #1
    40103334:	1b1e7def 	mul	w15, w15, w30
    40103338:	6b0001ff 	cmp	w15, w0
    4010333c:	540005c9 	b.ls	401033f4 <LzmaDec_DecodeReal2+0x7c0>
    40103340:	4b1e0150 	sub	w16, w10, w30
    40103344:	0a2602f5 	bic	w21, w23, w6
    40103348:	0b5017de 	add	w30, w30, w16, lsr #5
    4010334c:	7900039e 	strh	w30, [x28]
    40103350:	0a0606a6 	and	w6, w21, w6, lsl #1
    40103354:	0b0202b5 	add	w21, w21, w2
    40103358:	0b1500c6 	add	w6, w6, w21
    4010335c:	d37ff8c6 	lsl	x6, x6, #1
    40103360:	17ffff15 	b	40102fb4 <LzmaDec_DecodeReal2+0x380>
    40103364:	4b0f0000 	sub	w0, w0, w15
    40103368:	4b501610 	sub	w16, w16, w16, lsr #5
    4010336c:	4b0f004f 	sub	w15, w2, w15
    40103370:	790002b0 	strh	w16, [x21]
    40103374:	52800062 	mov	w2, #0x3                   	// #3
    40103378:	17ffff72 	b	40103140 <LzmaDec_DecodeReal2+0x50c>
    4010337c:	4b100000 	sub	w0, w0, w16
    40103380:	4b5516b5 	sub	w21, w21, w21, lsr #5
    40103384:	11000442 	add	w2, w2, #0x1
    40103388:	790003d5 	strh	w21, [x30]
    4010338c:	4b1001f0 	sub	w16, w15, w16
    40103390:	17ffff82 	b	40103198 <LzmaDec_DecodeReal2+0x564>
    40103394:	4b0f0000 	sub	w0, w0, w15
    40103398:	4b5c179c 	sub	w28, w28, w28, lsr #5
    4010339c:	11000442 	add	w2, w2, #0x1
    401033a0:	790003dc 	strh	w28, [x30]
    401033a4:	4b0f020f 	sub	w15, w16, w15
    401033a8:	17ffff92 	b	401031f0 <LzmaDec_DecodeReal2+0x5bc>
    401033ac:	4b100000 	sub	w0, w0, w16
    401033b0:	4b5c179c 	sub	w28, w28, w28, lsr #5
    401033b4:	11000442 	add	w2, w2, #0x1
    401033b8:	790003dc 	strh	w28, [x30]
    401033bc:	4b1001f0 	sub	w16, w15, w16
    401033c0:	17ffffa2 	b	40103248 <LzmaDec_DecodeReal2+0x614>
    401033c4:	4b0f0000 	sub	w0, w0, w15
    401033c8:	4b5c179c 	sub	w28, w28, w28, lsr #5
    401033cc:	11000442 	add	w2, w2, #0x1
    401033d0:	790003dc 	strh	w28, [x30]
    401033d4:	4b0f020f 	sub	w15, w16, w15
    401033d8:	17ffffb2 	b	401032a0 <LzmaDec_DecodeReal2+0x66c>
    401033dc:	4b100000 	sub	w0, w0, w16
    401033e0:	4b5c179c 	sub	w28, w28, w28, lsr #5
    401033e4:	11000442 	add	w2, w2, #0x1
    401033e8:	790003dc 	strh	w28, [x30]
    401033ec:	4b1001f0 	sub	w16, w15, w16
    401033f0:	17ffffc2 	b	401032f8 <LzmaDec_DecodeReal2+0x6c4>
    401033f4:	4b0f0000 	sub	w0, w0, w15
    401033f8:	4b5e17de 	sub	w30, w30, w30, lsr #5
    401033fc:	11000442 	add	w2, w2, #0x1
    40103400:	7900039e 	strh	w30, [x28]
    40103404:	4b0f020f 	sub	w15, w16, w15
    40103408:	17ffffd2 	b	40103350 <LzmaDec_DecodeReal2+0x71c>
    4010340c:	4b060000 	sub	w0, w0, w6
    40103410:	4b481508 	sub	w8, w8, w8, lsr #5
    40103414:	11000442 	add	w2, w2, #0x1
    40103418:	79000208 	strh	w8, [x16]
    4010341c:	4b0601e6 	sub	w6, w15, w6
    40103420:	17fffef5 	b	40102ff4 <LzmaDec_DecodeReal2+0x3c0>
    40103424:	4b501610 	sub	w16, w16, w16, lsr #5
    40103428:	783568b0 	strh	w16, [x5,x21]
    4010342c:	d37f7d30 	ubfiz	x16, x9, #1, #32
    40103430:	4b0200c6 	sub	w6, w6, w2
    40103434:	91008210 	add	x16, x16, #0x20
    40103438:	4b020000 	sub	w0, w0, w2
    4010343c:	6b0400df 	cmp	w6, w4
    40103440:	787068b5 	ldrh	w21, [x5,x16]
    40103444:	540000a8 	b.hi	40103458 <LzmaDec_DecodeReal2+0x824>
    40103448:	39400022 	ldrb	w2, [x1]
    4010344c:	53185cc6 	lsl	w6, w6, #8
    40103450:	91000421 	add	x1, x1, #0x1
    40103454:	2a002040 	orr	w0, w2, w0, lsl #8
    40103458:	530b7cc2 	lsr	w2, w6, #11
    4010345c:	1b157c42 	mul	w2, w2, w21
    40103460:	6b00005f 	cmp	w2, w0
    40103464:	54001b49 	b.ls	401037cc <LzmaDec_DecodeReal2+0xb98>
    40103468:	4b150143 	sub	w3, w10, w21
    4010346c:	11003129 	add	w9, w9, #0xc
    40103470:	0b4316b5 	add	w21, w21, w3, lsr #5
    40103474:	783068b5 	strh	w21, [x5,x16]
    40103478:	f94037b0 	ldr	x16, [x29,#104]
    4010347c:	2a0e03ef 	mov	w15, w14
    40103480:	7940020e 	ldrh	w14, [x16]
    40103484:	6b04005f 	cmp	w2, w4
    40103488:	540000a8 	b.hi	4010349c <LzmaDec_DecodeReal2+0x868>
    4010348c:	39400023 	ldrb	w3, [x1]
    40103490:	53185c42 	lsl	w2, w2, #8
    40103494:	91000421 	add	x1, x1, #0x1
    40103498:	2a002060 	orr	w0, w3, w0, lsl #8
    4010349c:	530b7c43 	lsr	w3, w2, #11
    401034a0:	1b0e7c63 	mul	w3, w3, w14
    401034a4:	6b00007f 	cmp	w3, w0
    401034a8:	54002969 	b.ls	401039d4 <LzmaDec_DecodeReal2+0xda0>
    401034ac:	4b0e0142 	sub	w2, w10, w14
    401034b0:	8b080608 	add	x8, x16, x8, lsl #1
    401034b4:	0b4215ce 	add	w14, w14, w2, lsr #5
    401034b8:	7900020e 	strh	w14, [x16]
    401034bc:	6b04007f 	cmp	w3, w4
    401034c0:	79400502 	ldrh	w2, [x8,#2]
    401034c4:	540000a8 	b.hi	401034d8 <LzmaDec_DecodeReal2+0x8a4>
    401034c8:	39400026 	ldrb	w6, [x1]
    401034cc:	53185c63 	lsl	w3, w3, #8
    401034d0:	91000421 	add	x1, x1, #0x1
    401034d4:	2a0020c0 	orr	w0, w6, w0, lsl #8
    401034d8:	530b7c66 	lsr	w6, w3, #11
    401034dc:	1b027cc6 	mul	w6, w6, w2
    401034e0:	6b0000df 	cmp	w6, w0
    401034e4:	54002549 	b.ls	4010398c <LzmaDec_DecodeReal2+0xd58>
    401034e8:	4b020143 	sub	w3, w10, w2
    401034ec:	0b431442 	add	w2, w2, w3, lsr #5
    401034f0:	52800043 	mov	w3, #0x2                   	// #2
    401034f4:	79000502 	strh	w2, [x8,#2]
    401034f8:	d37f0470 	ubfiz	x16, x3, #1, #2
    401034fc:	6b0400df 	cmp	w6, w4
    40103500:	7870690e 	ldrh	w14, [x8,x16]
    40103504:	540000a8 	b.hi	40103518 <LzmaDec_DecodeReal2+0x8e4>
    40103508:	39400022 	ldrb	w2, [x1]
    4010350c:	53185cc6 	lsl	w6, w6, #8
    40103510:	91000421 	add	x1, x1, #0x1
    40103514:	2a002040 	orr	w0, w2, w0, lsl #8
    40103518:	530b7cc2 	lsr	w2, w6, #11
    4010351c:	531f7863 	lsl	w3, w3, #1
    40103520:	1b0e7c42 	mul	w2, w2, w14
    40103524:	6b00005f 	cmp	w2, w0
    40103528:	540023e9 	b.ls	401039a4 <LzmaDec_DecodeReal2+0xd70>
    4010352c:	4b0e0146 	sub	w6, w10, w14
    40103530:	0b4615ce 	add	w14, w14, w6, lsr #5
    40103534:	7830690e 	strh	w14, [x8,x16]
    40103538:	d37f7c70 	ubfiz	x16, x3, #1, #32
    4010353c:	6b04005f 	cmp	w2, w4
    40103540:	7870690e 	ldrh	w14, [x8,x16]
    40103544:	540000a8 	b.hi	40103558 <LzmaDec_DecodeReal2+0x924>
    40103548:	39400026 	ldrb	w6, [x1]
    4010354c:	53185c42 	lsl	w2, w2, #8
    40103550:	91000421 	add	x1, x1, #0x1
    40103554:	2a0020c0 	orr	w0, w6, w0, lsl #8
    40103558:	530b7c46 	lsr	w6, w2, #11
    4010355c:	531f7863 	lsl	w3, w3, #1
    40103560:	1b0e7cc6 	mul	w6, w6, w14
    40103564:	6b0000df 	cmp	w6, w0
    40103568:	540022a9 	b.ls	401039bc <LzmaDec_DecodeReal2+0xd88>
    4010356c:	4b0e0142 	sub	w2, w10, w14
    40103570:	0b4215ce 	add	w14, w14, w2, lsr #5
    40103574:	7830690e 	strh	w14, [x8,x16]
    40103578:	51002063 	sub	w3, w3, #0x8
    4010357c:	71002d3f 	cmp	w9, #0xb
    40103580:	540048e9 	b.ls	40103e9c <LzmaDec_DecodeReal2+0x1268>
    40103584:	71000c7f 	cmp	w3, #0x3
    40103588:	1a9a906e 	csel	w14, w3, w26, ls
    4010358c:	6b0400df 	cmp	w6, w4
    40103590:	d37965ce 	ubfiz	x14, x14, #7, #26
    40103594:	910201ce 	add	x14, x14, #0x80
    40103598:	8b0e00ae 	add	x14, x5, x14
    4010359c:	794005c2 	ldrh	w2, [x14,#2]
    401035a0:	540000a8 	b.hi	401035b4 <LzmaDec_DecodeReal2+0x980>
    401035a4:	39400028 	ldrb	w8, [x1]
    401035a8:	53185cc6 	lsl	w6, w6, #8
    401035ac:	91000421 	add	x1, x1, #0x1
    401035b0:	2a002100 	orr	w0, w8, w0, lsl #8
    401035b4:	530b7cc8 	lsr	w8, w6, #11
    401035b8:	1b027d08 	mul	w8, w8, w2
    401035bc:	6b00011f 	cmp	w8, w0
    401035c0:	54002fa9 	b.ls	40103bb4 <LzmaDec_DecodeReal2+0xf80>
    401035c4:	4b020146 	sub	w6, w10, w2
    401035c8:	0b461442 	add	w2, w2, w6, lsr #5
    401035cc:	790005c2 	strh	w2, [x14,#2]
    401035d0:	52800042 	mov	w2, #0x2                   	// #2
    401035d4:	d37f0455 	ubfiz	x21, x2, #1, #2
    401035d8:	6b04011f 	cmp	w8, w4
    401035dc:	787569d0 	ldrh	w16, [x14,x21]
    401035e0:	540000a8 	b.hi	401035f4 <LzmaDec_DecodeReal2+0x9c0>
    401035e4:	39400026 	ldrb	w6, [x1]
    401035e8:	53185d08 	lsl	w8, w8, #8
    401035ec:	91000421 	add	x1, x1, #0x1
    401035f0:	2a0020c0 	orr	w0, w6, w0, lsl #8
    401035f4:	530b7d06 	lsr	w6, w8, #11
    401035f8:	531f7842 	lsl	w2, w2, #1
    401035fc:	1b107cc6 	mul	w6, w6, w16
    40103600:	6b0000df 	cmp	w6, w0
    40103604:	54002e49 	b.ls	40103bcc <LzmaDec_DecodeReal2+0xf98>
    40103608:	4b100148 	sub	w8, w10, w16
    4010360c:	0b481610 	add	w16, w16, w8, lsr #5
    40103610:	783569d0 	strh	w16, [x14,x21]
    40103614:	d37f7c55 	ubfiz	x21, x2, #1, #32
    40103618:	6b0400df 	cmp	w6, w4
    4010361c:	787569d0 	ldrh	w16, [x14,x21]
    40103620:	540000a8 	b.hi	40103634 <LzmaDec_DecodeReal2+0xa00>
    40103624:	39400028 	ldrb	w8, [x1]
    40103628:	53185cc6 	lsl	w6, w6, #8
    4010362c:	91000421 	add	x1, x1, #0x1
    40103630:	2a002100 	orr	w0, w8, w0, lsl #8
    40103634:	530b7cc8 	lsr	w8, w6, #11
    40103638:	531f7842 	lsl	w2, w2, #1
    4010363c:	1b107d08 	mul	w8, w8, w16
    40103640:	6b00011f 	cmp	w8, w0
    40103644:	54002d09 	b.ls	40103be4 <LzmaDec_DecodeReal2+0xfb0>
    40103648:	4b100146 	sub	w6, w10, w16
    4010364c:	0b461610 	add	w16, w16, w6, lsr #5
    40103650:	783569d0 	strh	w16, [x14,x21]
    40103654:	d37f7c55 	ubfiz	x21, x2, #1, #32
    40103658:	6b04011f 	cmp	w8, w4
    4010365c:	787569d0 	ldrh	w16, [x14,x21]
    40103660:	540000a8 	b.hi	40103674 <LzmaDec_DecodeReal2+0xa40>
    40103664:	39400026 	ldrb	w6, [x1]
    40103668:	53185d08 	lsl	w8, w8, #8
    4010366c:	91000421 	add	x1, x1, #0x1
    40103670:	2a0020c0 	orr	w0, w6, w0, lsl #8
    40103674:	530b7d06 	lsr	w6, w8, #11
    40103678:	531f7842 	lsl	w2, w2, #1
    4010367c:	1b107cc6 	mul	w6, w6, w16
    40103680:	6b0000df 	cmp	w6, w0
    40103684:	54002bc9 	b.ls	40103bfc <LzmaDec_DecodeReal2+0xfc8>
    40103688:	4b100148 	sub	w8, w10, w16
    4010368c:	0b481610 	add	w16, w16, w8, lsr #5
    40103690:	783569d0 	strh	w16, [x14,x21]
    40103694:	d37f7c57 	ubfiz	x23, x2, #1, #32
    40103698:	6b0400df 	cmp	w6, w4
    4010369c:	787769d5 	ldrh	w21, [x14,x23]
    401036a0:	540000a8 	b.hi	401036b4 <LzmaDec_DecodeReal2+0xa80>
    401036a4:	39400028 	ldrb	w8, [x1]
    401036a8:	53185cc6 	lsl	w6, w6, #8
    401036ac:	91000421 	add	x1, x1, #0x1
    401036b0:	2a002100 	orr	w0, w8, w0, lsl #8
    401036b4:	530b7cd0 	lsr	w16, w6, #11
    401036b8:	531f7842 	lsl	w2, w2, #1
    401036bc:	1b157e10 	mul	w16, w16, w21
    401036c0:	6b00021f 	cmp	w16, w0
    401036c4:	54002a89 	b.ls	40103c14 <LzmaDec_DecodeReal2+0xfe0>
    401036c8:	4b150146 	sub	w6, w10, w21
    401036cc:	0b4616b5 	add	w21, w21, w6, lsr #5
    401036d0:	783769d5 	strh	w21, [x14,x23]
    401036d4:	d37f7c57 	ubfiz	x23, x2, #1, #32
    401036d8:	6b04021f 	cmp	w16, w4
    401036dc:	787769d5 	ldrh	w21, [x14,x23]
    401036e0:	540000a8 	b.hi	401036f4 <LzmaDec_DecodeReal2+0xac0>
    401036e4:	39400026 	ldrb	w6, [x1]
    401036e8:	53185e10 	lsl	w16, w16, #8
    401036ec:	91000421 	add	x1, x1, #0x1
    401036f0:	2a0020c0 	orr	w0, w6, w0, lsl #8
    401036f4:	530b7e06 	lsr	w6, w16, #11
    401036f8:	531f7842 	lsl	w2, w2, #1
    401036fc:	1b157cc6 	mul	w6, w6, w21
    40103700:	6b0000df 	cmp	w6, w0
    40103704:	54002949 	b.ls	40103c2c <LzmaDec_DecodeReal2+0xff8>
    40103708:	4b150148 	sub	w8, w10, w21
    4010370c:	0b4816b5 	add	w21, w21, w8, lsr #5
    40103710:	783769d5 	strh	w21, [x14,x23]
    40103714:	51010042 	sub	w2, w2, #0x40
    40103718:	71000c5f 	cmp	w2, #0x3
    4010371c:	54000429 	b.ls	401037a0 <LzmaDec_DecodeReal2+0xb6c>
    40103720:	12000048 	and	w8, w2, #0x1
    40103724:	53017c4e 	lsr	w14, w2, #1
    40103728:	321f0108 	orr	w8, w8, #0x2
    4010372c:	7100345f 	cmp	w2, #0xd
    40103730:	54002988 	b.hi	40103c60 <LzmaDec_DecodeReal2+0x102c>
    40103734:	510005ce 	sub	w14, w14, #0x1
    40103738:	52800037 	mov	w23, #0x1                   	// #1
    4010373c:	1ace2108 	lsl	w8, w8, w14
    40103740:	11000508 	add	w8, w8, #0x1
    40103744:	92819fe2 	mov	x2, #0xfffffffffffff300    	// #-3328
    40103748:	6b0400df 	cmp	w6, w4
    4010374c:	8b284458 	add	x24, x2, w8, uxtw #1
    40103750:	787868b0 	ldrh	w16, [x5,x24]
    40103754:	540000a8 	b.hi	40103768 <LzmaDec_DecodeReal2+0xb34>
    40103758:	39400022 	ldrb	w2, [x1]
    4010375c:	53185cc6 	lsl	w6, w6, #8
    40103760:	91000421 	add	x1, x1, #0x1
    40103764:	2a002040 	orr	w0, w2, w0, lsl #8
    40103768:	530b7cd5 	lsr	w21, w6, #11
    4010376c:	531f7ae2 	lsl	w2, w23, #1
    40103770:	1b107eb5 	mul	w21, w21, w16
    40103774:	6b0002bf 	cmp	w21, w0
    40103778:	54002669 	b.ls	40103c44 <LzmaDec_DecodeReal2+0x1010>
    4010377c:	4b100146 	sub	w6, w10, w16
    40103780:	0b170108 	add	w8, w8, w23
    40103784:	0b461610 	add	w16, w16, w6, lsr #5
    40103788:	2a0203f7 	mov	w23, w2
    4010378c:	2a1503e6 	mov	w6, w21
    40103790:	783868b0 	strh	w16, [x5,x24]
    40103794:	710005ce 	subs	w14, w14, #0x1
    40103798:	54fffd61 	b.ne	40103744 <LzmaDec_DecodeReal2+0xb10>
    4010379c:	4b020102 	sub	w2, w8, w2
    401037a0:	71004d3f 	cmp	w9, #0x13
    401037a4:	528000e8 	mov	w8, #0x7                   	// #7
    401037a8:	52800149 	mov	w9, #0xa                   	// #10
    401037ac:	1a893109 	csel	w9, w8, w9, cc
    401037b0:	7100033f 	cmp	w25, #0x0
    401037b4:	1100044e 	add	w14, w2, #0x1
    401037b8:	1a990188 	csel	w8, w12, w25, eq
    401037bc:	6b08005f 	cmp	w2, w8
    401037c0:	54003a23 	b.cc	40103f04 <LzmaDec_DecodeReal2+0x12d0>
    401037c4:	f9001567 	str	x7, [x11,#40]
    401037c8:	17fffd35 	b	40102c9c <LzmaDec_DecodeReal2+0x68>
    401037cc:	91006217 	add	x23, x16, #0x18
    401037d0:	4b5516b5 	sub	w21, w21, w21, lsr #5
    401037d4:	783068b5 	strh	w21, [x5,x16]
    401037d8:	4b0200c6 	sub	w6, w6, w2
    401037dc:	4b020000 	sub	w0, w0, w2
    401037e0:	6b0400df 	cmp	w6, w4
    401037e4:	787768b5 	ldrh	w21, [x5,x23]
    401037e8:	540000a8 	b.hi	401037fc <LzmaDec_DecodeReal2+0xbc8>
    401037ec:	39400022 	ldrb	w2, [x1]
    401037f0:	53185cc6 	lsl	w6, w6, #8
    401037f4:	91000421 	add	x1, x1, #0x1
    401037f8:	2a002040 	orr	w0, w2, w0, lsl #8
    401037fc:	530b7cc2 	lsr	w2, w6, #11
    40103800:	1b157c42 	mul	w2, w2, w21
    40103804:	6b00005f 	cmp	w2, w0
    40103808:	540005c9 	b.ls	401038c0 <LzmaDec_DecodeReal2+0xc8c>
    4010380c:	4b150146 	sub	w6, w10, w21
    40103810:	d13001ef 	sub	x15, x15, #0xc00
    40103814:	0b4616b5 	add	w21, w21, w6, lsr #5
    40103818:	783768b5 	strh	w21, [x5,x23]
    4010381c:	6b04005f 	cmp	w2, w4
    40103820:	786f68b0 	ldrh	w16, [x5,x15]
    40103824:	540000a8 	b.hi	40103838 <LzmaDec_DecodeReal2+0xc04>
    40103828:	39400026 	ldrb	w6, [x1]
    4010382c:	53185c42 	lsl	w2, w2, #8
    40103830:	91000421 	add	x1, x1, #0x1
    40103834:	2a0020c0 	orr	w0, w6, w0, lsl #8
    40103838:	530b7c46 	lsr	w6, w2, #11
    4010383c:	1b107cc6 	mul	w6, w6, w16
    40103840:	6b0000df 	cmp	w6, w0
    40103844:	54000229 	b.ls	40103888 <LzmaDec_DecodeReal2+0xc54>
    40103848:	2a0e03e8 	mov	w8, w14
    4010384c:	4b100142 	sub	w2, w10, w16
    40103850:	eb0800ff 	cmp	x7, x8
    40103854:	0b421610 	add	w16, w16, w2, lsr #5
    40103858:	cb0800e2 	sub	x2, x7, x8
    4010385c:	9a9f3288 	csel	x8, x20, xzr, cc
    40103860:	8b020222 	add	x2, x17, x2
    40103864:	782f68b0 	strh	w16, [x5,x15]
    40103868:	71001d3f 	cmp	w9, #0x7
    4010386c:	1100058c 	add	w12, w12, #0x1
    40103870:	38686842 	ldrb	w2, [x2,x8]
    40103874:	38276a22 	strb	w2, [x17,x7]
    40103878:	910004e7 	add	x7, x7, #0x1
    4010387c:	52800122 	mov	w2, #0x9                   	// #9
    40103880:	1a9b3049 	csel	w9, w2, w27, cc
    40103884:	17fffdde 	b	40102ffc <LzmaDec_DecodeReal2+0x3c8>
    40103888:	2a0d03e3 	mov	w3, w13
    4010388c:	4b060042 	sub	w2, w2, w6
    40103890:	2a0e03ed 	mov	w13, w14
    40103894:	4b060000 	sub	w0, w0, w6
    40103898:	2a0303ee 	mov	w14, w3
    4010389c:	4b501610 	sub	w16, w16, w16, lsr #5
    401038a0:	782f68b0 	strh	w16, [x5,x15]
    401038a4:	71001d3f 	cmp	w9, #0x7
    401038a8:	52800103 	mov	w3, #0x8                   	// #8
    401038ac:	2a0d03ef 	mov	w15, w13
    401038b0:	1a9b3069 	csel	w9, w3, w27, cc
    401038b4:	2a0e03ed 	mov	w13, w14
    401038b8:	f9403bb0 	ldr	x16, [x29,#112]
    401038bc:	17fffef1 	b	40103480 <LzmaDec_DecodeReal2+0x84c>
    401038c0:	9100c20f 	add	x15, x16, #0x30
    401038c4:	4b5516b5 	sub	w21, w21, w21, lsr #5
    401038c8:	783768b5 	strh	w21, [x5,x23]
    401038cc:	4b0200c6 	sub	w6, w6, w2
    401038d0:	4b020000 	sub	w0, w0, w2
    401038d4:	6b0400df 	cmp	w6, w4
    401038d8:	786f68a3 	ldrh	w3, [x5,x15]
    401038dc:	540000a8 	b.hi	401038f0 <LzmaDec_DecodeReal2+0xcbc>
    401038e0:	39400022 	ldrb	w2, [x1]
    401038e4:	53185cc6 	lsl	w6, w6, #8
    401038e8:	91000421 	add	x1, x1, #0x1
    401038ec:	2a002040 	orr	w0, w2, w0, lsl #8
    401038f0:	530b7cc2 	lsr	w2, w6, #11
    401038f4:	1b037c42 	mul	w2, w2, w3
    401038f8:	6b00005f 	cmp	w2, w0
    401038fc:	540000a9 	b.ls	40103910 <LzmaDec_DecodeReal2+0xcdc>
    40103900:	4b030146 	sub	w6, w10, w3
    40103904:	0b461463 	add	w3, w3, w6, lsr #5
    40103908:	782f68a3 	strh	w3, [x5,x15]
    4010390c:	17ffffe6 	b	401038a4 <LzmaDec_DecodeReal2+0xc70>
    40103910:	91012210 	add	x16, x16, #0x48
    40103914:	4b431463 	sub	w3, w3, w3, lsr #5
    40103918:	782f68a3 	strh	w3, [x5,x15]
    4010391c:	4b0200c6 	sub	w6, w6, w2
    40103920:	4b020000 	sub	w0, w0, w2
    40103924:	6b0400df 	cmp	w6, w4
    40103928:	787068a3 	ldrh	w3, [x5,x16]
    4010392c:	540000a8 	b.hi	40103940 <LzmaDec_DecodeReal2+0xd0c>
    40103930:	39400022 	ldrb	w2, [x1]
    40103934:	53185cc6 	lsl	w6, w6, #8
    40103938:	91000421 	add	x1, x1, #0x1
    4010393c:	2a002040 	orr	w0, w2, w0, lsl #8
    40103940:	530b7cc2 	lsr	w2, w6, #11
    40103944:	1b037c42 	mul	w2, w2, w3
    40103948:	6b00005f 	cmp	w2, w0
    4010394c:	54000109 	b.ls	4010396c <LzmaDec_DecodeReal2+0xd38>
    40103950:	4b030146 	sub	w6, w10, w3
    40103954:	0b461463 	add	w3, w3, w6, lsr #5
    40103958:	783068a3 	strh	w3, [x5,x16]
    4010395c:	2a0d03e3 	mov	w3, w13
    40103960:	2a1203ed 	mov	w13, w18
    40103964:	2a0303f2 	mov	w18, w3
    40103968:	17ffffcf 	b	401038a4 <LzmaDec_DecodeReal2+0xc70>
    4010396c:	4b431463 	sub	w3, w3, w3, lsr #5
    40103970:	4b020000 	sub	w0, w0, w2
    40103974:	783068a3 	strh	w3, [x5,x16]
    40103978:	4b0200c2 	sub	w2, w6, w2
    4010397c:	2a0d03e3 	mov	w3, w13
    40103980:	2a1803ed 	mov	w13, w24
    40103984:	2a1203f8 	mov	w24, w18
    40103988:	17fffff7 	b	40103964 <LzmaDec_DecodeReal2+0xd30>
    4010398c:	4b060000 	sub	w0, w0, w6
    40103990:	4b421442 	sub	w2, w2, w2, lsr #5
    40103994:	4b060066 	sub	w6, w3, w6
    40103998:	79000502 	strh	w2, [x8,#2]
    4010399c:	52800063 	mov	w3, #0x3                   	// #3
    401039a0:	17fffed6 	b	401034f8 <LzmaDec_DecodeReal2+0x8c4>
    401039a4:	4b020000 	sub	w0, w0, w2
    401039a8:	4b4e15ce 	sub	w14, w14, w14, lsr #5
    401039ac:	11000463 	add	w3, w3, #0x1
    401039b0:	7830690e 	strh	w14, [x8,x16]
    401039b4:	4b0200c2 	sub	w2, w6, w2
    401039b8:	17fffee0 	b	40103538 <LzmaDec_DecodeReal2+0x904>
    401039bc:	4b060000 	sub	w0, w0, w6
    401039c0:	4b4e15ce 	sub	w14, w14, w14, lsr #5
    401039c4:	11000463 	add	w3, w3, #0x1
    401039c8:	7830690e 	strh	w14, [x8,x16]
    401039cc:	4b060046 	sub	w6, w2, w6
    401039d0:	17fffeea 	b	40103578 <LzmaDec_DecodeReal2+0x944>
    401039d4:	4b4e15ce 	sub	w14, w14, w14, lsr #5
    401039d8:	7900020e 	strh	w14, [x16]
    401039dc:	4b030046 	sub	w6, w2, w3
    401039e0:	4b030000 	sub	w0, w0, w3
    401039e4:	7940220e 	ldrh	w14, [x16,#16]
    401039e8:	6b0400df 	cmp	w6, w4
    401039ec:	540000a8 	b.hi	40103a00 <LzmaDec_DecodeReal2+0xdcc>
    401039f0:	39400022 	ldrb	w2, [x1]
    401039f4:	53185cc6 	lsl	w6, w6, #8
    401039f8:	91000421 	add	x1, x1, #0x1
    401039fc:	2a002040 	orr	w0, w2, w0, lsl #8
    40103a00:	530b7cc3 	lsr	w3, w6, #11
    40103a04:	1b0e7c63 	mul	w3, w3, w14
    40103a08:	6b00007f 	cmp	w3, w0
    40103a0c:	54000909 	b.ls	40103b2c <LzmaDec_DecodeReal2+0xef8>
    40103a10:	91002108 	add	x8, x8, #0x8
    40103a14:	4b0e0142 	sub	w2, w10, w14
    40103a18:	8b080608 	add	x8, x16, x8, lsl #1
    40103a1c:	0b4215ce 	add	w14, w14, w2, lsr #5
    40103a20:	7900220e 	strh	w14, [x16,#16]
    40103a24:	6b04007f 	cmp	w3, w4
    40103a28:	79400502 	ldrh	w2, [x8,#2]
    40103a2c:	540000a8 	b.hi	40103a40 <LzmaDec_DecodeReal2+0xe0c>
    40103a30:	39400026 	ldrb	w6, [x1]
    40103a34:	53185c63 	lsl	w3, w3, #8
    40103a38:	91000421 	add	x1, x1, #0x1
    40103a3c:	2a0020c0 	orr	w0, w6, w0, lsl #8
    40103a40:	530b7c66 	lsr	w6, w3, #11
    40103a44:	1b027cc6 	mul	w6, w6, w2
    40103a48:	6b0000df 	cmp	w6, w0
    40103a4c:	540004c9 	b.ls	40103ae4 <LzmaDec_DecodeReal2+0xeb0>
    40103a50:	4b020143 	sub	w3, w10, w2
    40103a54:	0b431442 	add	w2, w2, w3, lsr #5
    40103a58:	52800043 	mov	w3, #0x2                   	// #2
    40103a5c:	79000502 	strh	w2, [x8,#2]
    40103a60:	d37f0470 	ubfiz	x16, x3, #1, #2
    40103a64:	6b0400df 	cmp	w6, w4
    40103a68:	7870690e 	ldrh	w14, [x8,x16]
    40103a6c:	540000a8 	b.hi	40103a80 <LzmaDec_DecodeReal2+0xe4c>
    40103a70:	39400022 	ldrb	w2, [x1]
    40103a74:	53185cc6 	lsl	w6, w6, #8
    40103a78:	91000421 	add	x1, x1, #0x1
    40103a7c:	2a002040 	orr	w0, w2, w0, lsl #8
    40103a80:	530b7cc2 	lsr	w2, w6, #11
    40103a84:	531f7863 	lsl	w3, w3, #1
    40103a88:	1b0e7c42 	mul	w2, w2, w14
    40103a8c:	6b00005f 	cmp	w2, w0
    40103a90:	54000369 	b.ls	40103afc <LzmaDec_DecodeReal2+0xec8>
    40103a94:	4b0e0146 	sub	w6, w10, w14
    40103a98:	0b4615ce 	add	w14, w14, w6, lsr #5
    40103a9c:	7830690e 	strh	w14, [x8,x16]
    40103aa0:	d37f7c70 	ubfiz	x16, x3, #1, #32
    40103aa4:	6b04005f 	cmp	w2, w4
    40103aa8:	7870690e 	ldrh	w14, [x8,x16]
    40103aac:	540000a8 	b.hi	40103ac0 <LzmaDec_DecodeReal2+0xe8c>
    40103ab0:	39400026 	ldrb	w6, [x1]
    40103ab4:	53185c42 	lsl	w2, w2, #8
    40103ab8:	91000421 	add	x1, x1, #0x1
    40103abc:	2a0020c0 	orr	w0, w6, w0, lsl #8
    40103ac0:	530b7c46 	lsr	w6, w2, #11
    40103ac4:	531f7863 	lsl	w3, w3, #1
    40103ac8:	1b0e7cc6 	mul	w6, w6, w14
    40103acc:	6b0000df 	cmp	w6, w0
    40103ad0:	54000229 	b.ls	40103b14 <LzmaDec_DecodeReal2+0xee0>
    40103ad4:	4b0e0142 	sub	w2, w10, w14
    40103ad8:	0b4215ce 	add	w14, w14, w2, lsr #5
    40103adc:	7830690e 	strh	w14, [x8,x16]
    40103ae0:	17fffea7 	b	4010357c <LzmaDec_DecodeReal2+0x948>
    40103ae4:	4b060000 	sub	w0, w0, w6
    40103ae8:	4b421442 	sub	w2, w2, w2, lsr #5
    40103aec:	4b060066 	sub	w6, w3, w6
    40103af0:	79000502 	strh	w2, [x8,#2]
    40103af4:	52800063 	mov	w3, #0x3                   	// #3
    40103af8:	17ffffda 	b	40103a60 <LzmaDec_DecodeReal2+0xe2c>
    40103afc:	4b020000 	sub	w0, w0, w2
    40103b00:	4b4e15ce 	sub	w14, w14, w14, lsr #5
    40103b04:	11000463 	add	w3, w3, #0x1
    40103b08:	7830690e 	strh	w14, [x8,x16]
    40103b0c:	4b0200c2 	sub	w2, w6, w2
    40103b10:	17ffffe4 	b	40103aa0 <LzmaDec_DecodeReal2+0xe6c>
    40103b14:	4b060000 	sub	w0, w0, w6
    40103b18:	4b4e15ce 	sub	w14, w14, w14, lsr #5
    40103b1c:	11000463 	add	w3, w3, #0x1
    40103b20:	7830690e 	strh	w14, [x8,x16]
    40103b24:	4b060046 	sub	w6, w2, w6
    40103b28:	17fffe95 	b	4010357c <LzmaDec_DecodeReal2+0x948>
    40103b2c:	4b0300c6 	sub	w6, w6, w3
    40103b30:	4b030000 	sub	w0, w0, w3
    40103b34:	4b4e15ce 	sub	w14, w14, w14, lsr #5
    40103b38:	52800023 	mov	w3, #0x1                   	// #1
    40103b3c:	7900220e 	strh	w14, [x16,#16]
    40103b40:	d2804002 	mov	x2, #0x200                 	// #512
    40103b44:	6b0400df 	cmp	w6, w4
    40103b48:	8b234442 	add	x2, x2, w3, uxtw #1
    40103b4c:	8b02020e 	add	x14, x16, x2
    40103b50:	78626a02 	ldrh	w2, [x16,x2]
    40103b54:	540000a8 	b.hi	40103b68 <LzmaDec_DecodeReal2+0xf34>
    40103b58:	39400028 	ldrb	w8, [x1]
    40103b5c:	53185cc6 	lsl	w6, w6, #8
    40103b60:	91000421 	add	x1, x1, #0x1
    40103b64:	2a002100 	orr	w0, w8, w0, lsl #8
    40103b68:	530b7cc8 	lsr	w8, w6, #11
    40103b6c:	531f7863 	lsl	w3, w3, #1
    40103b70:	1b027d08 	mul	w8, w8, w2
    40103b74:	6b00011f 	cmp	w8, w0
    40103b78:	54000129 	b.ls	40103b9c <LzmaDec_DecodeReal2+0xf68>
    40103b7c:	4b020146 	sub	w6, w10, w2
    40103b80:	0b461442 	add	w2, w2, w6, lsr #5
    40103b84:	2a0803e6 	mov	w6, w8
    40103b88:	790001c2 	strh	w2, [x14]
    40103b8c:	7103fc7f 	cmp	w3, #0xff
    40103b90:	54fffd89 	b.ls	40103b40 <LzmaDec_DecodeReal2+0xf0c>
    40103b94:	5103c063 	sub	w3, w3, #0xf0
    40103b98:	17fffe79 	b	4010357c <LzmaDec_DecodeReal2+0x948>
    40103b9c:	4b421442 	sub	w2, w2, w2, lsr #5
    40103ba0:	4b0800c6 	sub	w6, w6, w8
    40103ba4:	4b080000 	sub	w0, w0, w8
    40103ba8:	790001c2 	strh	w2, [x14]
    40103bac:	11000463 	add	w3, w3, #0x1
    40103bb0:	17fffff7 	b	40103b8c <LzmaDec_DecodeReal2+0xf58>
    40103bb4:	4b421442 	sub	w2, w2, w2, lsr #5
    40103bb8:	4b080000 	sub	w0, w0, w8
    40103bbc:	790005c2 	strh	w2, [x14,#2]
    40103bc0:	4b0800c8 	sub	w8, w6, w8
    40103bc4:	52800062 	mov	w2, #0x3                   	// #3
    40103bc8:	17fffe83 	b	401035d4 <LzmaDec_DecodeReal2+0x9a0>
    40103bcc:	4b060000 	sub	w0, w0, w6
    40103bd0:	4b501610 	sub	w16, w16, w16, lsr #5
    40103bd4:	11000442 	add	w2, w2, #0x1
    40103bd8:	783569d0 	strh	w16, [x14,x21]
    40103bdc:	4b060106 	sub	w6, w8, w6
    40103be0:	17fffe8d 	b	40103614 <LzmaDec_DecodeReal2+0x9e0>
    40103be4:	4b080000 	sub	w0, w0, w8
    40103be8:	4b501610 	sub	w16, w16, w16, lsr #5
    40103bec:	11000442 	add	w2, w2, #0x1
    40103bf0:	783569d0 	strh	w16, [x14,x21]
    40103bf4:	4b0800c8 	sub	w8, w6, w8
    40103bf8:	17fffe97 	b	40103654 <LzmaDec_DecodeReal2+0xa20>
    40103bfc:	4b060000 	sub	w0, w0, w6
    40103c00:	4b501610 	sub	w16, w16, w16, lsr #5
    40103c04:	11000442 	add	w2, w2, #0x1
    40103c08:	783569d0 	strh	w16, [x14,x21]
    40103c0c:	4b060106 	sub	w6, w8, w6
    40103c10:	17fffea1 	b	40103694 <LzmaDec_DecodeReal2+0xa60>
    40103c14:	4b100000 	sub	w0, w0, w16
    40103c18:	4b5516b5 	sub	w21, w21, w21, lsr #5
    40103c1c:	11000442 	add	w2, w2, #0x1
    40103c20:	783769d5 	strh	w21, [x14,x23]
    40103c24:	4b1000d0 	sub	w16, w6, w16
    40103c28:	17fffeab 	b	401036d4 <LzmaDec_DecodeReal2+0xaa0>
    40103c2c:	4b060000 	sub	w0, w0, w6
    40103c30:	4b5516b5 	sub	w21, w21, w21, lsr #5
    40103c34:	11000442 	add	w2, w2, #0x1
    40103c38:	783769d5 	strh	w21, [x14,x23]
    40103c3c:	4b060206 	sub	w6, w16, w6
    40103c40:	17fffeb5 	b	40103714 <LzmaDec_DecodeReal2+0xae0>
    40103c44:	4b501610 	sub	w16, w16, w16, lsr #5
    40103c48:	4b1500c6 	sub	w6, w6, w21
    40103c4c:	4b150000 	sub	w0, w0, w21
    40103c50:	783868b0 	strh	w16, [x5,x24]
    40103c54:	2a0203f7 	mov	w23, w2
    40103c58:	0b020108 	add	w8, w8, w2
    40103c5c:	17fffece 	b	40103794 <LzmaDec_DecodeReal2+0xb60>
    40103c60:	510015ce 	sub	w14, w14, #0x5
    40103c64:	6b0400df 	cmp	w6, w4
    40103c68:	540000a8 	b.hi	40103c7c <LzmaDec_DecodeReal2+0x1048>
    40103c6c:	39400022 	ldrb	w2, [x1]
    40103c70:	53185cc6 	lsl	w6, w6, #8
    40103c74:	91000421 	add	x1, x1, #0x1
    40103c78:	2a002040 	orr	w0, w2, w0, lsl #8
    40103c7c:	53017cc6 	lsr	w6, w6, #1
    40103c80:	710005ce 	subs	w14, w14, #0x1
    40103c84:	4b060000 	sub	w0, w0, w6
    40103c88:	131f7c10 	asr	w16, w0, #31
    40103c8c:	0b080608 	add	w8, w16, w8, lsl #1
    40103c90:	0a1000d0 	and	w16, w6, w16
    40103c94:	11000508 	add	w8, w8, #0x1
    40103c98:	0b000200 	add	w0, w16, w0
    40103c9c:	54fffe41 	b.ne	40103c64 <LzmaDec_DecodeReal2+0x1030>
    40103ca0:	531c6d08 	lsl	w8, w8, #4
    40103ca4:	794004a2 	ldrh	w2, [x5,#2]
    40103ca8:	6b0400df 	cmp	w6, w4
    40103cac:	540000a8 	b.hi	40103cc0 <LzmaDec_DecodeReal2+0x108c>
    40103cb0:	3940002e 	ldrb	w14, [x1]
    40103cb4:	53185cc6 	lsl	w6, w6, #8
    40103cb8:	91000421 	add	x1, x1, #0x1
    40103cbc:	2a0021c0 	orr	w0, w14, w0, lsl #8
    40103cc0:	530b7cce 	lsr	w14, w6, #11
    40103cc4:	1b027dce 	mul	w14, w14, w2
    40103cc8:	6b0001df 	cmp	w14, w0
    40103ccc:	54000ba9 	b.ls	40103e40 <LzmaDec_DecodeReal2+0x120c>
    40103cd0:	4b020146 	sub	w6, w10, w2
    40103cd4:	0b461442 	add	w2, w2, w6, lsr #5
    40103cd8:	790004a2 	strh	w2, [x5,#2]
    40103cdc:	52800042 	mov	w2, #0x2                   	// #2
    40103ce0:	d37f0455 	ubfiz	x21, x2, #1, #2
    40103ce4:	6b0401df 	cmp	w14, w4
    40103ce8:	787568b0 	ldrh	w16, [x5,x21]
    40103cec:	540000a8 	b.hi	40103d00 <LzmaDec_DecodeReal2+0x10cc>
    40103cf0:	39400026 	ldrb	w6, [x1]
    40103cf4:	53185dce 	lsl	w14, w14, #8
    40103cf8:	91000421 	add	x1, x1, #0x1
    40103cfc:	2a0020c0 	orr	w0, w6, w0, lsl #8
    40103d00:	530b7dc6 	lsr	w6, w14, #11
    40103d04:	1b107cc6 	mul	w6, w6, w16
    40103d08:	6b0000df 	cmp	w6, w0
    40103d0c:	54000a69 	b.ls	40103e58 <LzmaDec_DecodeReal2+0x1224>
    40103d10:	4b10014e 	sub	w14, w10, w16
    40103d14:	11000842 	add	w2, w2, #0x2
    40103d18:	0b4e1610 	add	w16, w16, w14, lsr #5
    40103d1c:	783568b0 	strh	w16, [x5,x21]
    40103d20:	d37f7c55 	ubfiz	x21, x2, #1, #32
    40103d24:	6b0400df 	cmp	w6, w4
    40103d28:	787568b0 	ldrh	w16, [x5,x21]
    40103d2c:	540000a8 	b.hi	40103d40 <LzmaDec_DecodeReal2+0x110c>
    40103d30:	3940002e 	ldrb	w14, [x1]
    40103d34:	53185cc6 	lsl	w6, w6, #8
    40103d38:	91000421 	add	x1, x1, #0x1
    40103d3c:	2a0021c0 	orr	w0, w14, w0, lsl #8
    40103d40:	530b7cce 	lsr	w14, w6, #11
    40103d44:	1b107dce 	mul	w14, w14, w16
    40103d48:	6b0001df 	cmp	w14, w0
    40103d4c:	54000929 	b.ls	40103e70 <LzmaDec_DecodeReal2+0x123c>
    40103d50:	4b100146 	sub	w6, w10, w16
    40103d54:	11001042 	add	w2, w2, #0x4
    40103d58:	0b461610 	add	w16, w16, w6, lsr #5
    40103d5c:	783568b0 	strh	w16, [x5,x21]
    40103d60:	d37f7c55 	ubfiz	x21, x2, #1, #32
    40103d64:	6b0401df 	cmp	w14, w4
    40103d68:	787568b0 	ldrh	w16, [x5,x21]
    40103d6c:	540000a8 	b.hi	40103d80 <LzmaDec_DecodeReal2+0x114c>
    40103d70:	39400026 	ldrb	w6, [x1]
    40103d74:	53185dce 	lsl	w14, w14, #8
    40103d78:	91000421 	add	x1, x1, #0x1
    40103d7c:	2a0020c0 	orr	w0, w6, w0, lsl #8
    40103d80:	530b7dc6 	lsr	w6, w14, #11
    40103d84:	1b107cc6 	mul	w6, w6, w16
    40103d88:	6b0000df 	cmp	w6, w0
    40103d8c:	540007e9 	b.ls	40103e88 <LzmaDec_DecodeReal2+0x1254>
    40103d90:	4b10014e 	sub	w14, w10, w16
    40103d94:	51002042 	sub	w2, w2, #0x8
    40103d98:	0b4e1610 	add	w16, w16, w14, lsr #5
    40103d9c:	783568b0 	strh	w16, [x5,x21]
    40103da0:	2a020102 	orr	w2, w8, w2
    40103da4:	3100045f 	cmn	w2, #0x1
    40103da8:	54ffcfc1 	b.ne	401037a0 <LzmaDec_DecodeReal2+0xb6c>
    40103dac:	51003129 	sub	w9, w9, #0xc
    40103db0:	2a0f03ee 	mov	w14, w15
    40103db4:	52802243 	mov	w3, #0x112                 	// #274
    40103db8:	12bfe002 	mov	w2, #0xffffff              	// #16777215
    40103dbc:	6b0200df 	cmp	w6, w2
    40103dc0:	540000a8 	b.hi	40103dd4 <LzmaDec_DecodeReal2+0x11a0>
    40103dc4:	39400022 	ldrb	w2, [x1]
    40103dc8:	53185cc6 	lsl	w6, w6, #8
    40103dcc:	91000421 	add	x1, x1, #0x1
    40103dd0:	2a002040 	orr	w0, w2, w0, lsl #8
    40103dd4:	29070166 	stp	w6, w0, [x11,#56]
    40103dd8:	b9404560 	ldr	w0, [x11,#68]
    40103ddc:	a9028567 	stp	x7, x1, [x11,#40]
    40103de0:	b900416c 	str	w12, [x11,#64]
    40103de4:	2909356e 	stp	w14, w13, [x11,#72]
    40103de8:	290a6172 	stp	w18, w24, [x11,#80]
    40103dec:	290b0d69 	stp	w9, w3, [x11,#88]
    40103df0:	350000a0 	cbnz	w0, 40103e04 <LzmaDec_DecodeReal2+0x11d0>
    40103df4:	b9400560 	ldr	w0, [x11,#4]
    40103df8:	6b0c001f 	cmp	w0, w12
    40103dfc:	54000048 	b.hi	40103e04 <LzmaDec_DecodeReal2+0x11d0>
    40103e00:	b9004560 	str	w0, [x11,#68]
    40103e04:	aa0b03e0 	mov	x0, x11
    40103e08:	aa1603e1 	mov	x1, x22
    40103e0c:	97fffb68 	bl	40102bac <LzmaDec_WriteRem>
    40103e10:	f9401560 	ldr	x0, [x11,#40]
    40103e14:	eb0002df 	cmp	x22, x0
    40103e18:	54000109 	b.ls	40103e38 <LzmaDec_DecodeReal2+0x1204>
    40103e1c:	f9401960 	ldr	x0, [x11,#48]
    40103e20:	f94043a1 	ldr	x1, [x29,#128]
    40103e24:	eb00003f 	cmp	x1, x0
    40103e28:	54000089 	b.ls	40103e38 <LzmaDec_DecodeReal2+0x1204>
    40103e2c:	b9405d60 	ldr	w0, [x11,#92]
    40103e30:	7104441f 	cmp	w0, #0x111
    40103e34:	54ff7169 	b.ls	40102c60 <LzmaDec_DecodeReal2+0x2c>
    40103e38:	52800000 	mov	w0, #0x0                   	// #0
    40103e3c:	17fffb99 	b	40102ca0 <LzmaDec_DecodeReal2+0x6c>
    40103e40:	4b421442 	sub	w2, w2, w2, lsr #5
    40103e44:	4b0e0000 	sub	w0, w0, w14
    40103e48:	790004a2 	strh	w2, [x5,#2]
    40103e4c:	4b0e00ce 	sub	w14, w6, w14
    40103e50:	52800062 	mov	w2, #0x3                   	// #3
    40103e54:	17ffffa3 	b	40103ce0 <LzmaDec_DecodeReal2+0x10ac>
    40103e58:	4b060000 	sub	w0, w0, w6
    40103e5c:	4b501610 	sub	w16, w16, w16, lsr #5
    40103e60:	11001042 	add	w2, w2, #0x4
    40103e64:	783568b0 	strh	w16, [x5,x21]
    40103e68:	4b0601c6 	sub	w6, w14, w6
    40103e6c:	17ffffad 	b	40103d20 <LzmaDec_DecodeReal2+0x10ec>
    40103e70:	4b0e0000 	sub	w0, w0, w14
    40103e74:	4b501610 	sub	w16, w16, w16, lsr #5
    40103e78:	11002042 	add	w2, w2, #0x8
    40103e7c:	783568b0 	strh	w16, [x5,x21]
    40103e80:	4b0e00ce 	sub	w14, w6, w14
    40103e84:	17ffffb7 	b	40103d60 <LzmaDec_DecodeReal2+0x112c>
    40103e88:	4b060000 	sub	w0, w0, w6
    40103e8c:	4b501610 	sub	w16, w16, w16, lsr #5
    40103e90:	4b0601c6 	sub	w6, w14, w6
    40103e94:	783568b0 	strh	w16, [x5,x21]
    40103e98:	17ffffc2 	b	40103da0 <LzmaDec_DecodeReal2+0x116c>
    40103e9c:	2a0f03ee 	mov	w14, w15
    40103ea0:	11000863 	add	w3, w3, #0x2
    40103ea4:	eb07026f 	subs	x15, x19, x7
    40103ea8:	54ffc8e0 	b.eq	401037c4 <LzmaDec_DecodeReal2+0xb90>
    40103eac:	eb2341ff 	cmp	x15, w3, uxtw
    40103eb0:	2a0e03e2 	mov	w2, w14
    40103eb4:	1a8f206f 	csel	w15, w3, w15, cs
    40103eb8:	eb0200ff 	cmp	x7, x2
    40103ebc:	cb0200e8 	sub	x8, x7, x2
    40103ec0:	9a9f3282 	csel	x2, x20, xzr, cc
    40103ec4:	8b020108 	add	x8, x8, x2
    40103ec8:	2a0f03f0 	mov	w16, w15
    40103ecc:	cb080282 	sub	x2, x20, x8
    40103ed0:	0b0f018c 	add	w12, w12, w15
    40103ed4:	eb02021f 	cmp	x16, x2
    40103ed8:	4b0f0063 	sub	w3, w3, w15
    40103edc:	8b070222 	add	x2, x17, x7
    40103ee0:	540001a8 	b.hi	40103f14 <LzmaDec_DecodeReal2+0x12e0>
    40103ee4:	cb070108 	sub	x8, x8, x7
    40103ee8:	8b10004f 	add	x15, x2, x16
    40103eec:	8b1000e7 	add	x7, x7, x16
    40103ef0:	38686850 	ldrb	w16, [x2,x8]
    40103ef4:	38001450 	strb	w16, [x2],#1
    40103ef8:	eb0201ff 	cmp	x15, x2
    40103efc:	54ffffa1 	b.ne	40103ef0 <LzmaDec_DecodeReal2+0x12bc>
    40103f00:	17fffc3f 	b	40102ffc <LzmaDec_DecodeReal2+0x3c8>
    40103f04:	2a1203f8 	mov	w24, w18
    40103f08:	2a0d03f2 	mov	w18, w13
    40103f0c:	2a0f03ed 	mov	w13, w15
    40103f10:	17ffffe4 	b	40103ea0 <LzmaDec_DecodeReal2+0x126c>
    40103f14:	510005ef 	sub	w15, w15, #0x1
    40103f18:	910004e7 	add	x7, x7, #0x1
    40103f1c:	8b0f00e7 	add	x7, x7, x15
    40103f20:	8b07022f 	add	x15, x17, x7
    40103f24:	38686a30 	ldrb	w16, [x17,x8]
    40103f28:	91000508 	add	x8, x8, #0x1
    40103f2c:	38001450 	strb	w16, [x2],#1
    40103f30:	eb08029f 	cmp	x20, x8
    40103f34:	9a9f1108 	csel	x8, x8, xzr, ne
    40103f38:	eb0201ff 	cmp	x15, x2
    40103f3c:	54ffff41 	b.ne	40103f24 <LzmaDec_DecodeReal2+0x12f0>
    40103f40:	17fffc2f 	b	40102ffc <LzmaDec_DecodeReal2+0x3c8>

0000000040103f44 <LzmaDec_TryDummy>:
    40103f44:	39400804 	ldrb	w4, [x0,#2]
    40103f48:	52800026 	mov	w6, #0x1                   	// #1
    40103f4c:	b940400b 	ldr	w11, [x0,#64]
    40103f50:	12bfe00a 	mov	w10, #0xffffff              	// #16777215
    40103f54:	b9405808 	ldr	w8, [x0,#88]
    40103f58:	8b020022 	add	x2, x1, x2
    40103f5c:	1ac420c6 	lsl	w6, w6, w4
    40103f60:	510004c6 	sub	w6, w6, #0x1
    40103f64:	0a0b00c6 	and	w6, w6, w11
    40103f68:	f9400807 	ldr	x7, [x0,#16]
    40103f6c:	531c6cc6 	lsl	w6, w6, #4
    40103f70:	0b060109 	add	w9, w8, w6
    40103f74:	8b0904e9 	add	x9, x7, x9, lsl #1
    40103f78:	29470c05 	ldp	w5, w3, [x0,#56]
    40103f7c:	d1400524 	sub	x4, x9, #0x1, lsl #12
    40103f80:	6b0a00bf 	cmp	w5, w10
    40103f84:	795c0084 	ldrh	w4, [x4,#3584]
    40103f88:	540000e8 	b.hi	40103fa4 <LzmaDec_TryDummy+0x60>
    40103f8c:	eb02003f 	cmp	x1, x2
    40103f90:	54002e02 	b.cs	40104550 <LzmaDec_TryDummy+0x60c>
    40103f94:	3940002a 	ldrb	w10, [x1]
    40103f98:	53185ca5 	lsl	w5, w5, #8
    40103f9c:	91000421 	add	x1, x1, #0x1
    40103fa0:	2a032143 	orr	w3, w10, w3, lsl #8
    40103fa4:	530b7caa 	lsr	w10, w5, #11
    40103fa8:	1b047d44 	mul	w4, w10, w4
    40103fac:	6b04007f 	cmp	w3, w4
    40103fb0:	54000c22 	b.cs	40104134 <LzmaDec_TryDummy+0x1f0>
    40103fb4:	f9402005 	ldr	x5, [x0,#64]
    40103fb8:	910a00e7 	add	x7, x7, #0x280
    40103fbc:	b40002a5 	cbz	x5, 40104010 <LzmaDec_TryDummy+0xcc>
    40103fc0:	39400406 	ldrb	w6, [x0,#1]
    40103fc4:	52800025 	mov	w5, #0x1                   	// #1
    40103fc8:	f9401409 	ldr	x9, [x0,#40]
    40103fcc:	3940000a 	ldrb	w10, [x0]
    40103fd0:	1ac620a5 	lsl	w5, w5, w6
    40103fd4:	510004a5 	sub	w5, w5, #0x1
    40103fd8:	0a0b00a5 	and	w5, w5, w11
    40103fdc:	1aca20a6 	lsl	w6, w5, w10
    40103fe0:	f9400c05 	ldr	x5, [x0,#24]
    40103fe4:	b5000049 	cbnz	x9, 40103fec <LzmaDec_TryDummy+0xa8>
    40103fe8:	f9401009 	ldr	x9, [x0,#32]
    40103fec:	d1000529 	sub	x9, x9, #0x1
    40103ff0:	386968a5 	ldrb	w5, [x5,x9]
    40103ff4:	52800109 	mov	w9, #0x8                   	// #8
    40103ff8:	4b0a0129 	sub	w9, w9, w10
    40103ffc:	1ac928a5 	asr	w5, w5, w9
    40104000:	0b0600a5 	add	w5, w5, w6
    40104004:	52806006 	mov	w6, #0x300                 	// #768
    40104008:	1b067ca5 	mul	w5, w5, w6
    4010400c:	8b0504e7 	add	x7, x7, x5, lsl #1
    40104010:	7100191f 	cmp	w8, #0x6
    40104014:	540003c8 	b.hi	4010408c <LzmaDec_TryDummy+0x148>
    40104018:	52800020 	mov	w0, #0x1                   	// #1
    4010401c:	12bfe006 	mov	w6, #0xffffff              	// #16777215
    40104020:	786058e8 	ldrh	w8, [x7,w0,uxtw #1]
    40104024:	6b06009f 	cmp	w4, w6
    40104028:	540000e8 	b.hi	40104044 <LzmaDec_TryDummy+0x100>
    4010402c:	eb02003f 	cmp	x1, x2
    40104030:	54002902 	b.cs	40104550 <LzmaDec_TryDummy+0x60c>
    40104034:	39400025 	ldrb	w5, [x1]
    40104038:	53185c84 	lsl	w4, w4, #8
    4010403c:	91000421 	add	x1, x1, #0x1
    40104040:	2a0320a3 	orr	w3, w5, w3, lsl #8
    40104044:	530b7c85 	lsr	w5, w4, #11
    40104048:	531f7800 	lsl	w0, w0, #1
    4010404c:	1b087ca5 	mul	w5, w5, w8
    40104050:	6b05007f 	cmp	w3, w5
    40104054:	54000142 	b.cs	4010407c <LzmaDec_TryDummy+0x138>
    40104058:	2a0503e4 	mov	w4, w5
    4010405c:	7103fc1f 	cmp	w0, #0xff
    40104060:	54fffe09 	b.ls	40104020 <LzmaDec_TryDummy+0xdc>
    40104064:	52800020 	mov	w0, #0x1                   	// #1
    40104068:	12bfe003 	mov	w3, #0xffffff              	// #16777215
    4010406c:	6b03009f 	cmp	w4, w3
    40104070:	54002728 	b.hi	40104554 <LzmaDec_TryDummy+0x610>
    40104074:	eb02003f 	cmp	x1, x2
    40104078:	140000ce 	b	401043b0 <LzmaDec_TryDummy+0x46c>
    4010407c:	4b050084 	sub	w4, w4, w5
    40104080:	4b050063 	sub	w3, w3, w5
    40104084:	11000400 	add	w0, w0, #0x1
    40104088:	17fffff5 	b	4010405c <LzmaDec_TryDummy+0x118>
    4010408c:	b9404806 	ldr	w6, [x0,#72]
    40104090:	f9401408 	ldr	x8, [x0,#40]
    40104094:	f9400c05 	ldr	x5, [x0,#24]
    40104098:	cb060109 	sub	x9, x8, x6
    4010409c:	eb06011f 	cmp	x8, x6
    401040a0:	540003c2 	b.cs	40104118 <LzmaDec_TryDummy+0x1d4>
    401040a4:	f9401000 	ldr	x0, [x0,#32]
    401040a8:	8b0000a0 	add	x0, x5, x0
    401040ac:	52802006 	mov	w6, #0x100                 	// #256
    401040b0:	12bfe00a 	mov	w10, #0xffffff              	// #16777215
    401040b4:	38696808 	ldrb	w8, [x0,x9]
    401040b8:	52800020 	mov	w0, #0x1                   	// #1
    401040bc:	531f7908 	lsl	w8, w8, #1
    401040c0:	0b0000c5 	add	w5, w6, w0
    401040c4:	0a0800c9 	and	w9, w6, w8
    401040c8:	6b0a009f 	cmp	w4, w10
    401040cc:	0b0900a5 	add	w5, w5, w9
    401040d0:	786578eb 	ldrh	w11, [x7,x5,lsl #1]
    401040d4:	540000e8 	b.hi	401040f0 <LzmaDec_TryDummy+0x1ac>
    401040d8:	eb02003f 	cmp	x1, x2
    401040dc:	540023a2 	b.cs	40104550 <LzmaDec_TryDummy+0x60c>
    401040e0:	39400025 	ldrb	w5, [x1]
    401040e4:	53185c84 	lsl	w4, w4, #8
    401040e8:	91000421 	add	x1, x1, #0x1
    401040ec:	2a0320a3 	orr	w3, w5, w3, lsl #8
    401040f0:	530b7c85 	lsr	w5, w4, #11
    401040f4:	531f7800 	lsl	w0, w0, #1
    401040f8:	1b0b7ca5 	mul	w5, w5, w11
    401040fc:	6b05007f 	cmp	w3, w5
    40104100:	54000102 	b.cs	40104120 <LzmaDec_TryDummy+0x1dc>
    40104104:	0a2800c6 	bic	w6, w6, w8
    40104108:	2a0503e4 	mov	w4, w5
    4010410c:	7103fc1f 	cmp	w0, #0xff
    40104110:	54fffd69 	b.ls	401040bc <LzmaDec_TryDummy+0x178>
    40104114:	17ffffd4 	b	40104064 <LzmaDec_TryDummy+0x120>
    40104118:	d2800000 	mov	x0, #0x0                   	// #0
    4010411c:	17ffffe3 	b	401040a8 <LzmaDec_TryDummy+0x164>
    40104120:	4b050084 	sub	w4, w4, w5
    40104124:	4b050063 	sub	w3, w3, w5
    40104128:	11000400 	add	w0, w0, #0x1
    4010412c:	2a0903e6 	mov	w6, w9
    40104130:	17fffff7 	b	4010410c <LzmaDec_TryDummy+0x1c8>
    40104134:	4b0400a0 	sub	w0, w5, w4
    40104138:	4b040063 	sub	w3, w3, w4
    4010413c:	d37f7d04 	ubfiz	x4, x8, #1, #32
    40104140:	12bfe005 	mov	w5, #0xffffff              	// #16777215
    40104144:	91008084 	add	x4, x4, #0x20
    40104148:	6b05001f 	cmp	w0, w5
    4010414c:	786468e8 	ldrh	w8, [x7,x4]
    40104150:	540000e8 	b.hi	4010416c <LzmaDec_TryDummy+0x228>
    40104154:	eb02003f 	cmp	x1, x2
    40104158:	54001fc2 	b.cs	40104550 <LzmaDec_TryDummy+0x60c>
    4010415c:	39400025 	ldrb	w5, [x1]
    40104160:	53185c00 	lsl	w0, w0, #8
    40104164:	91000421 	add	x1, x1, #0x1
    40104168:	2a0320a3 	orr	w3, w5, w3, lsl #8
    4010416c:	530b7c05 	lsr	w5, w0, #11
    40104170:	1b087ca5 	mul	w5, w5, w8
    40104174:	6b05007f 	cmp	w3, w5
    40104178:	54000d22 	b.cs	4010431c <LzmaDec_TryDummy+0x3d8>
    4010417c:	d11800e8 	sub	x8, x7, #0x600
    40104180:	52800040 	mov	w0, #0x2                   	// #2
    40104184:	5280000b 	mov	w11, #0x0                   	// #0
    40104188:	12bfe009 	mov	w9, #0xffffff              	// #16777215
    4010418c:	79400104 	ldrh	w4, [x8]
    40104190:	6b0900bf 	cmp	w5, w9
    40104194:	540000e8 	b.hi	401041b0 <LzmaDec_TryDummy+0x26c>
    40104198:	eb02003f 	cmp	x1, x2
    4010419c:	54001da2 	b.cs	40104550 <LzmaDec_TryDummy+0x60c>
    401041a0:	39400029 	ldrb	w9, [x1]
    401041a4:	53185ca5 	lsl	w5, w5, #8
    401041a8:	91000421 	add	x1, x1, #0x1
    401041ac:	2a032123 	orr	w3, w9, w3, lsl #8
    401041b0:	530b7ca9 	lsr	w9, w5, #11
    401041b4:	1b047d24 	mul	w4, w9, w4
    401041b8:	6b04007f 	cmp	w3, w4
    401041bc:	54001502 	b.cs	4010445c <LzmaDec_TryDummy+0x518>
    401041c0:	8b060508 	add	x8, x8, x6, lsl #1
    401041c4:	52800006 	mov	w6, #0x0                   	// #0
    401041c8:	5280010a 	mov	w10, #0x8                   	// #8
    401041cc:	52800025 	mov	w5, #0x1                   	// #1
    401041d0:	12bfe00c 	mov	w12, #0xffffff              	// #16777215
    401041d4:	7865590d 	ldrh	w13, [x8,w5,uxtw #1]
    401041d8:	6b0c009f 	cmp	w4, w12
    401041dc:	540000e8 	b.hi	401041f8 <LzmaDec_TryDummy+0x2b4>
    401041e0:	eb02003f 	cmp	x1, x2
    401041e4:	54001b62 	b.cs	40104550 <LzmaDec_TryDummy+0x60c>
    401041e8:	39400029 	ldrb	w9, [x1]
    401041ec:	53185c84 	lsl	w4, w4, #8
    401041f0:	91000421 	add	x1, x1, #0x1
    401041f4:	2a032123 	orr	w3, w9, w3, lsl #8
    401041f8:	530b7c89 	lsr	w9, w4, #11
    401041fc:	531f78a5 	lsl	w5, w5, #1
    40104200:	1b0d7d29 	mul	w9, w9, w13
    40104204:	6b09007f 	cmp	w3, w9
    40104208:	540015e2 	b.cs	401044c4 <LzmaDec_TryDummy+0x580>
    4010420c:	2a0903e4 	mov	w4, w9
    40104210:	6b0a00bf 	cmp	w5, w10
    40104214:	54fffe03 	b.cc	401041d4 <LzmaDec_TryDummy+0x290>
    40104218:	71000d7f 	cmp	w11, #0x3
    4010421c:	54fff268 	b.hi	40104068 <LzmaDec_TryDummy+0x124>
    40104220:	4b0a00c6 	sub	w6, w6, w10
    40104224:	12bfe009 	mov	w9, #0xffffff              	// #16777215
    40104228:	0b0500c5 	add	w5, w6, w5
    4010422c:	52800066 	mov	w6, #0x3                   	// #3
    40104230:	71000cbf 	cmp	w5, #0x3
    40104234:	1a8690a5 	csel	w5, w5, w6, ls
    40104238:	d37964a6 	ubfiz	x6, x5, #7, #26
    4010423c:	52800025 	mov	w5, #0x1                   	// #1
    40104240:	910200c6 	add	x6, x6, #0x80
    40104244:	8b0600e6 	add	x6, x7, x6
    40104248:	786558ca 	ldrh	w10, [x6,w5,uxtw #1]
    4010424c:	6b09009f 	cmp	w4, w9
    40104250:	540000e8 	b.hi	4010426c <LzmaDec_TryDummy+0x328>
    40104254:	eb02003f 	cmp	x1, x2
    40104258:	540017c2 	b.cs	40104550 <LzmaDec_TryDummy+0x60c>
    4010425c:	39400028 	ldrb	w8, [x1]
    40104260:	53185c84 	lsl	w4, w4, #8
    40104264:	91000421 	add	x1, x1, #0x1
    40104268:	2a032103 	orr	w3, w8, w3, lsl #8
    4010426c:	530b7c88 	lsr	w8, w4, #11
    40104270:	531f78a5 	lsl	w5, w5, #1
    40104274:	1b0a7d08 	mul	w8, w8, w10
    40104278:	6b08007f 	cmp	w3, w8
    4010427c:	540012c2 	b.cs	401044d4 <LzmaDec_TryDummy+0x590>
    40104280:	2a0803e4 	mov	w4, w8
    40104284:	7100fcbf 	cmp	w5, #0x3f
    40104288:	54fffe09 	b.ls	40104248 <LzmaDec_TryDummy+0x304>
    4010428c:	510100a5 	sub	w5, w5, #0x40
    40104290:	71000cbf 	cmp	w5, #0x3
    40104294:	54ffeea9 	b.ls	40104068 <LzmaDec_TryDummy+0x124>
    40104298:	53017ca6 	lsr	w6, w5, #1
    4010429c:	710034bf 	cmp	w5, #0xd
    401042a0:	54001228 	b.hi	401044e4 <LzmaDec_TryDummy+0x5a0>
    401042a4:	120000a5 	and	w5, w5, #0x1
    401042a8:	510004c6 	sub	w6, w6, #0x1
    401042ac:	321f00a5 	orr	w5, w5, #0x2
    401042b0:	92819fe8 	mov	x8, #0xfffffffffffff300    	// #-3328
    401042b4:	1ac620a5 	lsl	w5, w5, w6
    401042b8:	8b254505 	add	x5, x8, w5, uxtw #1
    401042bc:	8b0500e7 	add	x7, x7, x5
    401042c0:	52800025 	mov	w5, #0x1                   	// #1
    401042c4:	2a0503e9 	mov	w9, w5
    401042c8:	12bfe00b 	mov	w11, #0xffffff              	// #16777215
    401042cc:	786958ea 	ldrh	w10, [x7,w9,uxtw #1]
    401042d0:	6b0b009f 	cmp	w4, w11
    401042d4:	540000e8 	b.hi	401042f0 <LzmaDec_TryDummy+0x3ac>
    401042d8:	eb02003f 	cmp	x1, x2
    401042dc:	540013a2 	b.cs	40104550 <LzmaDec_TryDummy+0x60c>
    401042e0:	39400028 	ldrb	w8, [x1]
    401042e4:	53185c84 	lsl	w4, w4, #8
    401042e8:	91000421 	add	x1, x1, #0x1
    401042ec:	2a032103 	orr	w3, w8, w3, lsl #8
    401042f0:	530b7c88 	lsr	w8, w4, #11
    401042f4:	1b0a7d08 	mul	w8, w8, w10
    401042f8:	531f78aa 	lsl	w10, w5, #1
    401042fc:	6b08007f 	cmp	w3, w8
    40104300:	540011a2 	b.cs	40104534 <LzmaDec_TryDummy+0x5f0>
    40104304:	0b050129 	add	w9, w9, w5
    40104308:	2a0803e4 	mov	w4, w8
    4010430c:	2a0a03e5 	mov	w5, w10
    40104310:	710004c6 	subs	w6, w6, #0x1
    40104314:	54fffdc1 	b.ne	401042cc <LzmaDec_TryDummy+0x388>
    40104318:	17ffff54 	b	40104068 <LzmaDec_TryDummy+0x124>
    4010431c:	8b0400e4 	add	x4, x7, x4
    40104320:	4b050000 	sub	w0, w0, w5
    40104324:	4b050063 	sub	w3, w3, w5
    40104328:	12bfe005 	mov	w5, #0xffffff              	// #16777215
    4010432c:	6b05001f 	cmp	w0, w5
    40104330:	79403088 	ldrh	w8, [x4,#24]
    40104334:	540000e8 	b.hi	40104350 <LzmaDec_TryDummy+0x40c>
    40104338:	eb02003f 	cmp	x1, x2
    4010433c:	540010a2 	b.cs	40104550 <LzmaDec_TryDummy+0x60c>
    40104340:	39400025 	ldrb	w5, [x1]
    40104344:	53185c00 	lsl	w0, w0, #8
    40104348:	91000421 	add	x1, x1, #0x1
    4010434c:	2a0320a3 	orr	w3, w5, w3, lsl #8
    40104350:	530b7c05 	lsr	w5, w0, #11
    40104354:	1b087ca5 	mul	w5, w5, w8
    40104358:	6b05007f 	cmp	w3, w5
    4010435c:	540003a2 	b.cs	401043d0 <LzmaDec_TryDummy+0x48c>
    40104360:	d1400529 	sub	x9, x9, #0x1, lsl #12
    40104364:	12bfe000 	mov	w0, #0xffffff              	// #16777215
    40104368:	6b0000bf 	cmp	w5, w0
    4010436c:	79480124 	ldrh	w4, [x9,#1024]
    40104370:	540000e8 	b.hi	4010438c <LzmaDec_TryDummy+0x448>
    40104374:	eb02003f 	cmp	x1, x2
    40104378:	54000ec2 	b.cs	40104550 <LzmaDec_TryDummy+0x60c>
    4010437c:	39400020 	ldrb	w0, [x1]
    40104380:	53185ca5 	lsl	w5, w5, #8
    40104384:	91000421 	add	x1, x1, #0x1
    40104388:	2a032003 	orr	w3, w0, w3, lsl #8
    4010438c:	530b7ca0 	lsr	w0, w5, #11
    40104390:	1b047c00 	mul	w0, w0, w4
    40104394:	6b00007f 	cmp	w3, w0
    40104398:	54000102 	b.cs	401043b8 <LzmaDec_TryDummy+0x474>
    4010439c:	12bfe003 	mov	w3, #0xffffff              	// #16777215
    401043a0:	6b03001f 	cmp	w0, w3
    401043a4:	54000d28 	b.hi	40104548 <LzmaDec_TryDummy+0x604>
    401043a8:	eb02003f 	cmp	x1, x2
    401043ac:	52800060 	mov	w0, #0x3                   	// #3
    401043b0:	1a9f3000 	csel	w0, w0, wzr, cc
    401043b4:	d65f03c0 	ret
    401043b8:	4b0000a5 	sub	w5, w5, w0
    401043bc:	4b000063 	sub	w3, w3, w0
    401043c0:	d12800e8 	sub	x8, x7, #0xa00
    401043c4:	52800060 	mov	w0, #0x3                   	// #3
    401043c8:	5280018b 	mov	w11, #0xc                   	// #12
    401043cc:	17ffff6f 	b	40104188 <LzmaDec_TryDummy+0x244>
    401043d0:	4b050000 	sub	w0, w0, w5
    401043d4:	4b050063 	sub	w3, w3, w5
    401043d8:	79406088 	ldrh	w8, [x4,#48]
    401043dc:	12bfe005 	mov	w5, #0xffffff              	// #16777215
    401043e0:	6b05001f 	cmp	w0, w5
    401043e4:	540000e8 	b.hi	40104400 <LzmaDec_TryDummy+0x4bc>
    401043e8:	eb02003f 	cmp	x1, x2
    401043ec:	54000b22 	b.cs	40104550 <LzmaDec_TryDummy+0x60c>
    401043f0:	39400025 	ldrb	w5, [x1]
    401043f4:	53185c00 	lsl	w0, w0, #8
    401043f8:	91000421 	add	x1, x1, #0x1
    401043fc:	2a0320a3 	orr	w3, w5, w3, lsl #8
    40104400:	530b7c05 	lsr	w5, w0, #11
    40104404:	1b087ca5 	mul	w5, w5, w8
    40104408:	6b05007f 	cmp	w3, w5
    4010440c:	54fffda3 	b.cc	401043c0 <LzmaDec_TryDummy+0x47c>
    40104410:	4b050000 	sub	w0, w0, w5
    40104414:	4b050063 	sub	w3, w3, w5
    40104418:	79409084 	ldrh	w4, [x4,#72]
    4010441c:	12bfe005 	mov	w5, #0xffffff              	// #16777215
    40104420:	6b05001f 	cmp	w0, w5
    40104424:	540000e8 	b.hi	40104440 <LzmaDec_TryDummy+0x4fc>
    40104428:	eb02003f 	cmp	x1, x2
    4010442c:	54000922 	b.cs	40104550 <LzmaDec_TryDummy+0x60c>
    40104430:	39400025 	ldrb	w5, [x1]
    40104434:	53185c00 	lsl	w0, w0, #8
    40104438:	91000421 	add	x1, x1, #0x1
    4010443c:	2a0320a3 	orr	w3, w5, w3, lsl #8
    40104440:	530b7c05 	lsr	w5, w0, #11
    40104444:	1b047ca5 	mul	w5, w5, w4
    40104448:	6b05007f 	cmp	w3, w5
    4010444c:	54fffba3 	b.cc	401043c0 <LzmaDec_TryDummy+0x47c>
    40104450:	4b050063 	sub	w3, w3, w5
    40104454:	4b050005 	sub	w5, w0, w5
    40104458:	17ffffda 	b	401043c0 <LzmaDec_TryDummy+0x47c>
    4010445c:	4b0400a5 	sub	w5, w5, w4
    40104460:	4b040063 	sub	w3, w3, w4
    40104464:	12bfe009 	mov	w9, #0xffffff              	// #16777215
    40104468:	79402104 	ldrh	w4, [x8,#16]
    4010446c:	6b0900bf 	cmp	w5, w9
    40104470:	540000e8 	b.hi	4010448c <LzmaDec_TryDummy+0x548>
    40104474:	eb02003f 	cmp	x1, x2
    40104478:	540006c2 	b.cs	40104550 <LzmaDec_TryDummy+0x60c>
    4010447c:	39400029 	ldrb	w9, [x1]
    40104480:	53185ca5 	lsl	w5, w5, #8
    40104484:	91000421 	add	x1, x1, #0x1
    40104488:	2a032123 	orr	w3, w9, w3, lsl #8
    4010448c:	530b7ca9 	lsr	w9, w5, #11
    40104490:	1b047d24 	mul	w4, w9, w4
    40104494:	6b04007f 	cmp	w3, w4
    40104498:	540000a2 	b.cs	401044ac <LzmaDec_TryDummy+0x568>
    4010449c:	910020c6 	add	x6, x6, #0x8
    401044a0:	8b060508 	add	x8, x8, x6, lsl #1
    401044a4:	52800106 	mov	w6, #0x8                   	// #8
    401044a8:	17ffff48 	b	401041c8 <LzmaDec_TryDummy+0x284>
    401044ac:	4b040063 	sub	w3, w3, w4
    401044b0:	91080108 	add	x8, x8, #0x200
    401044b4:	4b0400a4 	sub	w4, w5, w4
    401044b8:	52800206 	mov	w6, #0x10                  	// #16
    401044bc:	5280200a 	mov	w10, #0x100                 	// #256
    401044c0:	17ffff43 	b	401041cc <LzmaDec_TryDummy+0x288>
    401044c4:	4b090084 	sub	w4, w4, w9
    401044c8:	4b090063 	sub	w3, w3, w9
    401044cc:	110004a5 	add	w5, w5, #0x1
    401044d0:	17ffff50 	b	40104210 <LzmaDec_TryDummy+0x2cc>
    401044d4:	4b080084 	sub	w4, w4, w8
    401044d8:	4b080063 	sub	w3, w3, w8
    401044dc:	110004a5 	add	w5, w5, #0x1
    401044e0:	17ffff69 	b	40104284 <LzmaDec_TryDummy+0x340>
    401044e4:	510014c6 	sub	w6, w6, #0x5
    401044e8:	12bfe008 	mov	w8, #0xffffff              	// #16777215
    401044ec:	6b08009f 	cmp	w4, w8
    401044f0:	540000e8 	b.hi	4010450c <LzmaDec_TryDummy+0x5c8>
    401044f4:	eb02003f 	cmp	x1, x2
    401044f8:	540002c2 	b.cs	40104550 <LzmaDec_TryDummy+0x60c>
    401044fc:	39400025 	ldrb	w5, [x1]
    40104500:	53185c84 	lsl	w4, w4, #8
    40104504:	91000421 	add	x1, x1, #0x1
    40104508:	2a0320a3 	orr	w3, w5, w3, lsl #8
    4010450c:	53017c84 	lsr	w4, w4, #1
    40104510:	710004c6 	subs	w6, w6, #0x1
    40104514:	4b040065 	sub	w5, w3, w4
    40104518:	531f7ca5 	lsr	w5, w5, #31
    4010451c:	510004a5 	sub	w5, w5, #0x1
    40104520:	0a0400a5 	and	w5, w5, w4
    40104524:	4b050063 	sub	w3, w3, w5
    40104528:	54fffe21 	b.ne	401044ec <LzmaDec_TryDummy+0x5a8>
    4010452c:	52800086 	mov	w6, #0x4                   	// #4
    40104530:	17ffff64 	b	401042c0 <LzmaDec_TryDummy+0x37c>
    40104534:	4b080084 	sub	w4, w4, w8
    40104538:	4b080063 	sub	w3, w3, w8
    4010453c:	2a0a03e5 	mov	w5, w10
    40104540:	0b0a0129 	add	w9, w9, w10
    40104544:	17ffff73 	b	40104310 <LzmaDec_TryDummy+0x3cc>
    40104548:	52800060 	mov	w0, #0x3                   	// #3
    4010454c:	d65f03c0 	ret
    40104550:	52800000 	mov	w0, #0x0                   	// #0
    40104554:	d65f03c0 	ret

0000000040104558 <LzmaDec_Init>:
    40104558:	52802281 	mov	w1, #0x114                 	// #276
    4010455c:	f900141f 	str	xzr, [x0,#40]
    40104560:	29087c1f 	stp	wzr, wzr, [x0,#64]
    40104564:	b9005c01 	str	w1, [x0,#92]
    40104568:	b900641f 	str	wzr, [x0,#100]
    4010456c:	d65f03c0 	ret

0000000040104570 <LzmaDec_DecodeToDic>:
    40104570:	a9ba7bfd 	stp	x29, x30, [sp,#-96]!
    40104574:	910003fd 	mov	x29, sp
    40104578:	a90153f3 	stp	x19, x20, [sp,#16]
    4010457c:	aa0003f3 	mov	x19, x0
    40104580:	a9025bf5 	stp	x21, x22, [sp,#32]
    40104584:	aa0203f5 	mov	x21, x2
    40104588:	a90363f7 	stp	x23, x24, [sp,#48]
    4010458c:	aa0303f6 	mov	x22, x3
    40104590:	a9046bf9 	stp	x25, x26, [sp,#64]
    40104594:	aa0503f7 	mov	x23, x5
    40104598:	a90573fb 	stp	x27, x28, [sp,#80]
    4010459c:	aa0103f9 	mov	x25, x1
    401045a0:	b9405c02 	ldr	w2, [x0,#92]
    401045a4:	2a0403fb 	mov	w27, w4
    401045a8:	f9400074 	ldr	x20, [x3]
    401045ac:	f900007f 	str	xzr, [x3]
    401045b0:	7104485f 	cmp	w2, #0x112
    401045b4:	b90000bf 	str	wzr, [x5]
    401045b8:	540002a8 	b.hi	4010460c <LzmaDec_DecodeToDic+0x9c>
    401045bc:	9101a27a 	add	x26, x19, #0x68
    401045c0:	aa1903e1 	mov	x1, x25
    401045c4:	aa1303e0 	mov	x0, x19
    401045c8:	97fff979 	bl	40102bac <LzmaDec_WriteRem>
    401045cc:	b9405e60 	ldr	w0, [x19,#92]
    401045d0:	7104481f 	cmp	w0, #0x112
    401045d4:	54000861 	b.ne	401046e0 <LzmaDec_DecodeToDic+0x170>
    401045d8:	b9403e60 	ldr	w0, [x19,#60]
    401045dc:	35000260 	cbnz	w0, 40104628 <LzmaDec_DecodeToDic+0xb8>
    401045e0:	52800020 	mov	w0, #0x1                   	// #1
    401045e4:	14000046 	b	401046fc <LzmaDec_DecodeToDic+0x18c>
    401045e8:	11000401 	add	w1, w0, #0x1
    401045ec:	8b204260 	add	x0, x19, w0, uxtw
    401045f0:	b9006661 	str	w1, [x19,#100]
    401045f4:	d1000694 	sub	x20, x20, #0x1
    401045f8:	384016a1 	ldrb	w1, [x21],#1
    401045fc:	3901a001 	strb	w1, [x0,#104]
    40104600:	f94002c0 	ldr	x0, [x22]
    40104604:	91000400 	add	x0, x0, #0x1
    40104608:	f90002c0 	str	x0, [x22]
    4010460c:	b9406660 	ldr	w0, [x19,#100]
    40104610:	b4000074 	cbz	x20, 4010461c <LzmaDec_DecodeToDic+0xac>
    40104614:	7100101f 	cmp	w0, #0x4
    40104618:	54fffe89 	b.ls	401045e8 <LzmaDec_DecodeToDic+0x78>
    4010461c:	340001a0 	cbz	w0, 40104650 <LzmaDec_DecodeToDic+0xe0>
    40104620:	3941a261 	ldrb	w1, [x19,#104]
    40104624:	34000121 	cbz	w1, 40104648 <LzmaDec_DecodeToDic+0xd8>
    40104628:	52800020 	mov	w0, #0x1                   	// #1
    4010462c:	a94153f3 	ldp	x19, x20, [sp,#16]
    40104630:	a9425bf5 	ldp	x21, x22, [sp,#32]
    40104634:	a94363f7 	ldp	x23, x24, [sp,#48]
    40104638:	a9446bf9 	ldp	x25, x26, [sp,#64]
    4010463c:	a94573fb 	ldp	x27, x28, [sp,#80]
    40104640:	a8c67bfd 	ldp	x29, x30, [sp],#96
    40104644:	d65f03c0 	ret
    40104648:	7100101f 	cmp	w0, #0x4
    4010464c:	54000068 	b.hi	40104658 <LzmaDec_DecodeToDic+0xe8>
    40104650:	52800060 	mov	w0, #0x3                   	// #3
    40104654:	1400002a 	b	401046fc <LzmaDec_DecodeToDic+0x18c>
    40104658:	3941aa61 	ldrb	w1, [x19,#106]
    4010465c:	71044c5f 	cmp	w2, #0x113
    40104660:	3941a660 	ldrb	w0, [x19,#105]
    40104664:	3941b263 	ldrb	w3, [x19,#108]
    40104668:	53103c21 	lsl	w1, w1, #16
    4010466c:	b900667f 	str	wzr, [x19,#100]
    40104670:	2a006020 	orr	w0, w1, w0, lsl #24
    40104674:	3941ae61 	ldrb	w1, [x19,#107]
    40104678:	2a012061 	orr	w1, w3, w1, lsl #8
    4010467c:	2a010000 	orr	w0, w0, w1
    40104680:	b9003e60 	str	w0, [x19,#60]
    40104684:	12800000 	mov	w0, #0xffffffff            	// #-1
    40104688:	b9003a60 	str	w0, [x19,#56]
    4010468c:	54000200 	b.eq	401046cc <LzmaDec_DecodeToDic+0x15c>
    40104690:	39400260 	ldrb	w0, [x19]
    40104694:	52808003 	mov	w3, #0x400                 	// #1024
    40104698:	39400661 	ldrb	w1, [x19,#1]
    4010469c:	f9400662 	ldr	x2, [x19,#8]
    401046a0:	0b010001 	add	w1, w0, w1
    401046a4:	52806000 	mov	w0, #0x300                 	// #768
    401046a8:	1ac12000 	lsl	w0, w0, w1
    401046ac:	111f0000 	add	w0, w0, #0x7c0
    401046b0:	d2800001 	mov	x1, #0x0                   	// #0
    401046b4:	eb00003f 	cmp	x1, x0
    401046b8:	540000e3 	b.cc	401046d4 <LzmaDec_DecodeToDic+0x164>
    401046bc:	52800020 	mov	w0, #0x1                   	// #1
    401046c0:	b9005a7f 	str	wzr, [x19,#88]
    401046c4:	29090260 	stp	w0, w0, [x19,#72]
    401046c8:	290a0260 	stp	w0, w0, [x19,#80]
    401046cc:	b9005e7f 	str	wzr, [x19,#92]
    401046d0:	17ffffbb 	b	401045bc <LzmaDec_DecodeToDic+0x4c>
    401046d4:	78217843 	strh	w3, [x2,x1,lsl #1]
    401046d8:	91000421 	add	x1, x1, #0x1
    401046dc:	17fffff6 	b	401046b4 <LzmaDec_DecodeToDic+0x144>
    401046e0:	f9401661 	ldr	x1, [x19,#40]
    401046e4:	eb01033f 	cmp	x25, x1
    401046e8:	54000168 	b.hi	40104714 <LzmaDec_DecodeToDic+0x1a4>
    401046ec:	35000de0 	cbnz	w0, 401048a8 <LzmaDec_DecodeToDic+0x338>
    401046f0:	b9403e60 	ldr	w0, [x19,#60]
    401046f4:	350000a0 	cbnz	w0, 40104708 <LzmaDec_DecodeToDic+0x198>
    401046f8:	52800080 	mov	w0, #0x4                   	// #4
    401046fc:	b90002e0 	str	w0, [x23]
    40104700:	52800000 	mov	w0, #0x0                   	// #0
    40104704:	17ffffca 	b	4010462c <LzmaDec_DecodeToDic+0xbc>
    40104708:	350003bb 	cbnz	w27, 4010477c <LzmaDec_DecodeToDic+0x20c>
    4010470c:	52800040 	mov	w0, #0x2                   	// #2
    40104710:	17fffffb 	b	401046fc <LzmaDec_DecodeToDic+0x18c>
    40104714:	52800000 	mov	w0, #0x0                   	// #0
    40104718:	b9406661 	ldr	w1, [x19,#100]
    4010471c:	34000341 	cbz	w1, 40104784 <LzmaDec_DecodeToDic+0x214>
    40104720:	2a0103e3 	mov	w3, w1
    40104724:	d280000e 	mov	x14, #0x0                   	// #0
    40104728:	0b0e003c 	add	w28, w1, w14
    4010472c:	2a0e03f8 	mov	w24, w14
    40104730:	71004f9f 	cmp	w28, #0x13
    40104734:	54000068 	b.hi	40104740 <LzmaDec_DecodeToDic+0x1d0>
    40104738:	eb0e029f 	cmp	x20, x14
    4010473c:	54000741 	b.ne	40104824 <LzmaDec_DecodeToDic+0x2b4>
    40104740:	71004f9f 	cmp	w28, #0x13
    40104744:	b900667c 	str	w28, [x19,#100]
    40104748:	2a0003ef 	mov	w15, w0
    4010474c:	1a9f87e0 	cset	w0, ls
    40104750:	2a0001e0 	orr	w0, w15, w0
    40104754:	340007c0 	cbz	w0, 4010484c <LzmaDec_DecodeToDic+0x2dc>
    40104758:	2a1c03e2 	mov	w2, w28
    4010475c:	aa1a03e1 	mov	x1, x26
    40104760:	aa1303e0 	mov	x0, x19
    40104764:	97fffdf8 	bl	40103f44 <LzmaDec_TryDummy>
    40104768:	350006a0 	cbnz	w0, 4010483c <LzmaDec_DecodeToDic+0x2cc>
    4010476c:	f94002c0 	ldr	x0, [x22]
    40104770:	8b2e400e 	add	x14, x0, w14, uxtw
    40104774:	f90002ce 	str	x14, [x22]
    40104778:	17ffffb6 	b	40104650 <LzmaDec_DecodeToDic+0xe0>
    4010477c:	52800020 	mov	w0, #0x1                   	// #1
    40104780:	17ffffe6 	b	40104718 <LzmaDec_DecodeToDic+0x1a8>
    40104784:	f1004e9f 	cmp	x20, #0x13
    40104788:	2a0003ee 	mov	w14, w0
    4010478c:	1a9f87e0 	cset	w0, ls
    40104790:	2a0001c0 	orr	w0, w14, w0
    40104794:	34000420 	cbz	w0, 40104818 <LzmaDec_DecodeToDic+0x2a8>
    40104798:	aa1403e2 	mov	x2, x20
    4010479c:	aa1503e1 	mov	x1, x21
    401047a0:	aa1303e0 	mov	x0, x19
    401047a4:	97fffde8 	bl	40103f44 <LzmaDec_TryDummy>
    401047a8:	35000140 	cbnz	w0, 401047d0 <LzmaDec_DecodeToDic+0x260>
    401047ac:	aa1403e2 	mov	x2, x20
    401047b0:	aa1503e1 	mov	x1, x21
    401047b4:	9101a260 	add	x0, x19, #0x68
    401047b8:	97fff566 	bl	40101d50 <memcpy>
    401047bc:	f94002c0 	ldr	x0, [x22]
    401047c0:	b9006674 	str	w20, [x19,#100]
    401047c4:	8b140014 	add	x20, x0, x20
    401047c8:	f90002d4 	str	x20, [x22]
    401047cc:	17ffffa1 	b	40104650 <LzmaDec_DecodeToDic+0xe0>
    401047d0:	7100081f 	cmp	w0, #0x2
    401047d4:	1a9f07e0 	cset	w0, ne
    401047d8:	6a0001df 	tst	w14, w0
    401047dc:	54000681 	b.ne	401048ac <LzmaDec_DecodeToDic+0x33c>
    401047e0:	aa1503e2 	mov	x2, x21
    401047e4:	f9001a75 	str	x21, [x19,#48]
    401047e8:	aa1903e1 	mov	x1, x25
    401047ec:	aa1303e0 	mov	x0, x19
    401047f0:	97fff911 	bl	40102c34 <LzmaDec_DecodeReal2>
    401047f4:	35fff1a0 	cbnz	w0, 40104628 <LzmaDec_DecodeToDic+0xb8>
    401047f8:	f9401a60 	ldr	x0, [x19,#48]
    401047fc:	f94002c1 	ldr	x1, [x22]
    40104800:	cb150015 	sub	x21, x0, x21
    40104804:	cb150294 	sub	x20, x20, x21
    40104808:	8b150021 	add	x1, x1, x21
    4010480c:	f90002c1 	str	x1, [x22]
    40104810:	aa0003f5 	mov	x21, x0
    40104814:	17ffff6e 	b	401045cc <LzmaDec_DecodeToDic+0x5c>
    40104818:	d1005282 	sub	x2, x20, #0x14
    4010481c:	8b0202a2 	add	x2, x21, x2
    40104820:	17fffff1 	b	401047e4 <LzmaDec_DecodeToDic+0x274>
    40104824:	8b0e0062 	add	x2, x3, x14
    40104828:	386e6aa4 	ldrb	w4, [x21,x14]
    4010482c:	8b020262 	add	x2, x19, x2
    40104830:	910005ce 	add	x14, x14, #0x1
    40104834:	3901a044 	strb	w4, [x2,#104]
    40104838:	17ffffbc 	b	40104728 <LzmaDec_DecodeToDic+0x1b8>
    4010483c:	7100081f 	cmp	w0, #0x2
    40104840:	1a9f07e0 	cset	w0, ne
    40104844:	6a0001ff 	tst	w15, w0
    40104848:	54000321 	b.ne	401048ac <LzmaDec_DecodeToDic+0x33c>
    4010484c:	f9001a7a 	str	x26, [x19,#48]
    40104850:	aa1a03e2 	mov	x2, x26
    40104854:	aa1903e1 	mov	x1, x25
    40104858:	aa1303e0 	mov	x0, x19
    4010485c:	97fff8f6 	bl	40102c34 <LzmaDec_DecodeReal2>
    40104860:	35ffee40 	cbnz	w0, 40104628 <LzmaDec_DecodeToDic+0xb8>
    40104864:	f9401a60 	ldr	x0, [x19,#48]
    40104868:	cb1a0000 	sub	x0, x0, x26
    4010486c:	6b00039f 	cmp	w28, w0
    40104870:	54000183 	b.cc	401048a0 <LzmaDec_DecodeToDic+0x330>
    40104874:	4b00039c 	sub	w28, w28, w0
    40104878:	6b1c031f 	cmp	w24, w28
    4010487c:	54000123 	b.cc	401048a0 <LzmaDec_DecodeToDic+0x330>
    40104880:	f94002c0 	ldr	x0, [x22]
    40104884:	4b1c031c 	sub	w28, w24, w28
    40104888:	cb1c0294 	sub	x20, x20, x28
    4010488c:	8b1c0000 	add	x0, x0, x28
    40104890:	f90002c0 	str	x0, [x22]
    40104894:	b900667f 	str	wzr, [x19,#100]
    40104898:	8b1c02a0 	add	x0, x21, x28
    4010489c:	17ffffdd 	b	40104810 <LzmaDec_DecodeToDic+0x2a0>
    401048a0:	52800160 	mov	w0, #0xb                   	// #11
    401048a4:	17ffff62 	b	4010462c <LzmaDec_DecodeToDic+0xbc>
    401048a8:	34fff33b 	cbz	w27, 4010470c <LzmaDec_DecodeToDic+0x19c>
    401048ac:	52800040 	mov	w0, #0x2                   	// #2
    401048b0:	b90002e0 	str	w0, [x23]
    401048b4:	17ffff5d 	b	40104628 <LzmaDec_DecodeToDic+0xb8>

00000000401048b8 <LzmaDec_FreeProbs>:
    401048b8:	a9be7bfd 	stp	x29, x30, [sp,#-32]!
    401048bc:	910003fd 	mov	x29, sp
    401048c0:	f9000bf3 	str	x19, [sp,#16]
    401048c4:	aa0003f3 	mov	x19, x0
    401048c8:	f9400422 	ldr	x2, [x1,#8]
    401048cc:	aa0103e0 	mov	x0, x1
    401048d0:	f9400661 	ldr	x1, [x19,#8]
    401048d4:	d63f0040 	blr	x2
    401048d8:	f900067f 	str	xzr, [x19,#8]
    401048dc:	f9400bf3 	ldr	x19, [sp,#16]
    401048e0:	a8c27bfd 	ldp	x29, x30, [sp],#32
    401048e4:	d65f03c0 	ret

00000000401048e8 <LzmaDec_AllocateProbs2.isra.1>:
    401048e8:	a9bd7bfd 	stp	x29, x30, [sp,#-48]!
    401048ec:	12001c42 	and	w2, w2, #0xff
    401048f0:	0b210041 	add	w1, w2, w1, uxtb
    401048f4:	910003fd 	mov	x29, sp
    401048f8:	a90153f3 	stp	x19, x20, [sp,#16]
    401048fc:	52806014 	mov	w20, #0x300                 	// #768
    40104900:	1ac12294 	lsl	w20, w20, w1
    40104904:	f9400401 	ldr	x1, [x0,#8]
    40104908:	f90013f5 	str	x21, [sp,#32]
    4010490c:	111f0294 	add	w20, w20, #0x7c0
    40104910:	b4000081 	cbz	x1, 40104920 <LzmaDec_AllocateProbs2.isra.1+0x38>
    40104914:	b9406001 	ldr	w1, [x0,#96]
    40104918:	6b01029f 	cmp	w20, w1
    4010491c:	540001c0 	b.eq	40104954 <LzmaDec_AllocateProbs2.isra.1+0x6c>
    40104920:	aa0303f5 	mov	x21, x3
    40104924:	aa0003f3 	mov	x19, x0
    40104928:	aa0303e1 	mov	x1, x3
    4010492c:	97ffffe3 	bl	401048b8 <LzmaDec_FreeProbs>
    40104930:	d37f7e81 	ubfiz	x1, x20, #1, #32
    40104934:	aa1503e0 	mov	x0, x21
    40104938:	f94002a2 	ldr	x2, [x21]
    4010493c:	d63f0040 	blr	x2
    40104940:	f9000660 	str	x0, [x19,#8]
    40104944:	b4000120 	cbz	x0, 40104968 <LzmaDec_AllocateProbs2.isra.1+0x80>
    40104948:	91340000 	add	x0, x0, #0xd00
    4010494c:	b9006274 	str	w20, [x19,#96]
    40104950:	f9000a60 	str	x0, [x19,#16]
    40104954:	52800000 	mov	w0, #0x0                   	// #0
    40104958:	a94153f3 	ldp	x19, x20, [sp,#16]
    4010495c:	f94013f5 	ldr	x21, [sp,#32]
    40104960:	a8c37bfd 	ldp	x29, x30, [sp],#48
    40104964:	d65f03c0 	ret
    40104968:	52800040 	mov	w0, #0x2                   	// #2
    4010496c:	17fffffb 	b	40104958 <LzmaDec_AllocateProbs2.isra.1+0x70>

0000000040104970 <LzmaProps_Decode>:
    40104970:	7100105f 	cmp	w2, #0x4
    40104974:	54000068 	b.hi	40104980 <LzmaProps_Decode+0x10>
    40104978:	52800080 	mov	w0, #0x4                   	// #4
    4010497c:	d65f03c0 	ret
    40104980:	39400422 	ldrb	w2, [x1,#1]
    40104984:	39400823 	ldrb	w3, [x1,#2]
    40104988:	aa032043 	orr	x3, x2, x3, lsl #8
    4010498c:	39400c22 	ldrb	w2, [x1,#3]
    40104990:	aa024063 	orr	x3, x3, x2, lsl #16
    40104994:	39401022 	ldrb	w2, [x1,#4]
    40104998:	aa026062 	orr	x2, x3, x2, lsl #24
    4010499c:	52820003 	mov	w3, #0x1000                	// #4096
    401049a0:	7140045f 	cmp	w2, #0x1, lsl #12
    401049a4:	1a832042 	csel	w2, w2, w3, cs
    401049a8:	b9000402 	str	w2, [x0,#4]
    401049ac:	39400022 	ldrb	w2, [x1]
    401049b0:	7103805f 	cmp	w2, #0xe0
    401049b4:	54fffe28 	b.hi	40104978 <LzmaProps_Decode+0x8>
    401049b8:	52800121 	mov	w1, #0x9                   	// #9
    401049bc:	1ac10841 	udiv	w1, w2, w1
    401049c0:	0b010c23 	add	w3, w1, w1, lsl #3
    401049c4:	12001c21 	and	w1, w1, #0xff
    401049c8:	4b030043 	sub	w3, w2, w3
    401049cc:	39000003 	strb	w3, [x0]
    401049d0:	528005a3 	mov	w3, #0x2d                  	// #45
    401049d4:	1ac30842 	udiv	w2, w2, w3
    401049d8:	39000802 	strb	w2, [x0,#2]
    401049dc:	528000a2 	mov	w2, #0x5                   	// #5
    401049e0:	1ac20822 	udiv	w2, w1, w2
    401049e4:	0b020842 	add	w2, w2, w2, lsl #2
    401049e8:	4b020021 	sub	w1, w1, w2
    401049ec:	39000401 	strb	w1, [x0,#1]
    401049f0:	52800000 	mov	w0, #0x0                   	// #0
    401049f4:	d65f03c0 	ret

00000000401049f8 <LzmaDec_AllocateProbs>:
    401049f8:	a9bd7bfd 	stp	x29, x30, [sp,#-48]!
    401049fc:	aa0303e4 	mov	x4, x3
    40104a00:	910003fd 	mov	x29, sp
    40104a04:	f9000bf3 	str	x19, [sp,#16]
    40104a08:	aa0003f3 	mov	x19, x0
    40104a0c:	9100a3a0 	add	x0, x29, #0x28
    40104a10:	97ffffd8 	bl	40104970 <LzmaProps_Decode>
    40104a14:	35000120 	cbnz	w0, 40104a38 <LzmaDec_AllocateProbs+0x40>
    40104a18:	3940a7a2 	ldrb	w2, [x29,#41]
    40104a1c:	aa0403e3 	mov	x3, x4
    40104a20:	3940a3a1 	ldrb	w1, [x29,#40]
    40104a24:	aa1303e0 	mov	x0, x19
    40104a28:	97ffffb0 	bl	401048e8 <LzmaDec_AllocateProbs2.isra.1>
    40104a2c:	35000060 	cbnz	w0, 40104a38 <LzmaDec_AllocateProbs+0x40>
    40104a30:	f94017a1 	ldr	x1, [x29,#40]
    40104a34:	f9000261 	str	x1, [x19]
    40104a38:	f9400bf3 	ldr	x19, [sp,#16]
    40104a3c:	a8c37bfd 	ldp	x29, x30, [sp],#48
    40104a40:	d65f03c0 	ret

0000000040104a44 <LzmaDecode>:
    40104a44:	a9b27bfd 	stp	x29, x30, [sp,#-224]!
    40104a48:	910003fd 	mov	x29, sp
    40104a4c:	a9046bf9 	stp	x25, x26, [sp,#64]
    40104a50:	a90153f3 	stp	x19, x20, [sp,#16]
    40104a54:	f940003a 	ldr	x26, [x1]
    40104a58:	a9025bf5 	stp	x21, x22, [sp,#32]
    40104a5c:	f9002bfb 	str	x27, [sp,#80]
    40104a60:	a90363f7 	stp	x23, x24, [sp,#48]
    40104a64:	f940007b 	ldr	x27, [x3]
    40104a68:	f900007f 	str	xzr, [x3]
    40104a6c:	f900003f 	str	xzr, [x1]
    40104a70:	f100137f 	cmp	x27, #0x4
    40104a74:	b90000ff 	str	wzr, [x7]
    40104a78:	540005c9 	b.ls	40104b30 <LzmaDecode+0xec>
    40104a7c:	aa0303f4 	mov	x20, x3
    40104a80:	f94073a3 	ldr	x3, [x29,#224]
    40104a84:	aa0703f5 	mov	x21, x7
    40104a88:	2a0603f8 	mov	w24, w6
    40104a8c:	aa0203f7 	mov	x23, x2
    40104a90:	aa0103f6 	mov	x22, x1
    40104a94:	aa0003f9 	mov	x25, x0
    40104a98:	2a0503e2 	mov	w2, w5
    40104a9c:	aa0403e1 	mov	x1, x4
    40104aa0:	910183a0 	add	x0, x29, #0x60
    40104aa4:	f90037bf 	str	xzr, [x29,#104]
    40104aa8:	f9003fbf 	str	xzr, [x29,#120]
    40104aac:	97ffffd3 	bl	401049f8 <LzmaDec_AllocateProbs>
    40104ab0:	2a0003f3 	mov	w19, w0
    40104ab4:	350002e0 	cbnz	w0, 40104b10 <LzmaDecode+0xcc>
    40104ab8:	910183a0 	add	x0, x29, #0x60
    40104abc:	a907ebb9 	stp	x25, x26, [x29,#120]
    40104ac0:	97fffea6 	bl	40104558 <LzmaDec_Init>
    40104ac4:	f900029b 	str	x27, [x20]
    40104ac8:	aa1503e5 	mov	x5, x21
    40104acc:	2a1803e4 	mov	w4, w24
    40104ad0:	aa1403e3 	mov	x3, x20
    40104ad4:	aa1703e2 	mov	x2, x23
    40104ad8:	aa1a03e1 	mov	x1, x26
    40104adc:	910183a0 	add	x0, x29, #0x60
    40104ae0:	97fffea4 	bl	40104570 <LzmaDec_DecodeToDic>
    40104ae4:	2a0003f3 	mov	w19, w0
    40104ae8:	f94047a0 	ldr	x0, [x29,#136]
    40104aec:	f90002c0 	str	x0, [x22]
    40104af0:	350000b3 	cbnz	w19, 40104b04 <LzmaDecode+0xc0>
    40104af4:	b94002a0 	ldr	w0, [x21]
    40104af8:	528000d3 	mov	w19, #0x6                   	// #6
    40104afc:	71000c1f 	cmp	w0, #0x3
    40104b00:	1a9313f3 	csel	w19, wzr, w19, ne
    40104b04:	f94073a1 	ldr	x1, [x29,#224]
    40104b08:	910183a0 	add	x0, x29, #0x60
    40104b0c:	97ffff6b 	bl	401048b8 <LzmaDec_FreeProbs>
    40104b10:	2a1303e0 	mov	w0, w19
    40104b14:	f9402bfb 	ldr	x27, [sp,#80]
    40104b18:	a94153f3 	ldp	x19, x20, [sp,#16]
    40104b1c:	a9425bf5 	ldp	x21, x22, [sp,#32]
    40104b20:	a94363f7 	ldp	x23, x24, [sp,#48]
    40104b24:	a9446bf9 	ldp	x25, x26, [sp,#64]
    40104b28:	a8ce7bfd 	ldp	x29, x30, [sp],#224
    40104b2c:	d65f03c0 	ret
    40104b30:	528000d3 	mov	w19, #0x6                   	// #6
    40104b34:	17fffff7 	b	40104b10 <LzmaDecode+0xcc>

0000000040104b38 <LZ4F_readLE32>:
    40104b38:	39400002 	ldrb	w2, [x0]
    40104b3c:	39400c01 	ldrb	w1, [x0,#3]
    40104b40:	0b016041 	add	w1, w2, w1, lsl #24
    40104b44:	39400402 	ldrb	w2, [x0,#1]
    40104b48:	39400800 	ldrb	w0, [x0,#2]
    40104b4c:	53103c00 	lsl	w0, w0, #16
    40104b50:	0b022000 	add	w0, w0, w2, lsl #8
    40104b54:	0b010000 	add	w0, w0, w1
    40104b58:	d65f03c0 	ret

0000000040104b5c <LZ4_decompress_safe_withSmallPrefix>:
    40104b5c:	a9b57bfd 	stp	x29, x30, [sp,#-176]!
    40104b60:	910003fd 	mov	x29, sp
    40104b64:	a9046bf9 	stp	x25, x26, [sp,#64]
    40104b68:	cb040039 	sub	x25, x1, x4
    40104b6c:	a90153f3 	stp	x19, x20, [sp,#16]
    40104b70:	a9025bf5 	stp	x21, x22, [sp,#32]
    40104b74:	a90363f7 	stp	x23, x24, [sp,#48]
    40104b78:	a90573fb 	stp	x27, x28, [sp,#80]
    40104b7c:	b4003080 	cbz	x0, 4010518c <LZ4_decompress_safe_withSmallPrefix+0x630>
    40104b80:	8b23c037 	add	x23, x1, w3, sxtw
    40104b84:	8b22c015 	add	x21, x0, w2, sxtw
    40104b88:	d10082e4 	sub	x4, x23, #0x20
    40104b8c:	f90047a4 	str	x4, [x29,#136]
    40104b90:	350001a3 	cbnz	w3, 40104bc4 <LZ4_decompress_safe_withSmallPrefix+0x68>
    40104b94:	7100045f 	cmp	w2, #0x1
    40104b98:	54002fa1 	b.ne	4010518c <LZ4_decompress_safe_withSmallPrefix+0x630>
    40104b9c:	39400000 	ldrb	w0, [x0]
    40104ba0:	7100001f 	cmp	w0, #0x0
    40104ba4:	5a9f03e0 	csetm	w0, ne
    40104ba8:	a94153f3 	ldp	x19, x20, [sp,#16]
    40104bac:	a9425bf5 	ldp	x21, x22, [sp,#32]
    40104bb0:	a94363f7 	ldp	x23, x24, [sp,#48]
    40104bb4:	a9446bf9 	ldp	x25, x26, [sp,#64]
    40104bb8:	a94573fb 	ldp	x27, x28, [sp,#80]
    40104bbc:	a8cb7bfd 	ldp	x29, x30, [sp],#176
    40104bc0:	d65f03c0 	ret
    40104bc4:	34002e42 	cbz	w2, 4010518c <LZ4_decompress_safe_withSmallPrefix+0x630>
    40104bc8:	a90903a1 	stp	x1, x0, [x29,#144]
    40104bcc:	7100fc7f 	cmp	w3, #0x3f
    40104bd0:	5400128d 	b.le	40104e20 <LZ4_decompress_safe_withSmallPrefix+0x2c4>
    40104bd4:	aa0103f3 	mov	x19, x1
    40104bd8:	d10046a1 	sub	x1, x21, #0x11
    40104bdc:	f9003fa1 	str	x1, [x29,#120]
    40104be0:	d1003ea1 	sub	x1, x21, #0xf
    40104be4:	f90043a1 	str	x1, [x29,#128]
    40104be8:	d10082a1 	sub	x1, x21, #0x20
    40104bec:	f9003ba1 	str	x1, [x29,#112]
    40104bf0:	9102b3a1 	add	x1, x29, #0xac
    40104bf4:	f90037a1 	str	x1, [x29,#104]
    40104bf8:	39400018 	ldrb	w24, [x0]
    40104bfc:	9100041a 	add	x26, x0, #0x1
    40104c00:	2a1803fb 	mov	w27, w24
    40104c04:	53047f05 	lsr	w5, w24, #4
    40104c08:	71003cbf 	cmp	w5, #0xf
    40104c0c:	540016e1 	b.ne	40104ee8 <LZ4_decompress_safe_withSmallPrefix+0x38c>
    40104c10:	f94043a0 	ldr	x0, [x29,#128]
    40104c14:	eb00035f 	cmp	x26, x0
    40104c18:	540015e2 	b.cs	40104ed4 <LZ4_decompress_safe_withSmallPrefix+0x378>
    40104c1c:	52800005 	mov	w5, #0x0                   	// #0
    40104c20:	38401740 	ldrb	w0, [x26],#1
    40104c24:	f94043a1 	ldr	x1, [x29,#128]
    40104c28:	0b0000a5 	add	w5, w5, w0
    40104c2c:	eb1a003f 	cmp	x1, x26
    40104c30:	54001589 	b.ls	40104ee0 <LZ4_decompress_safe_withSmallPrefix+0x384>
    40104c34:	7103fc1f 	cmp	w0, #0xff
    40104c38:	54ffff40 	b.eq	40104c20 <LZ4_decompress_safe_withSmallPrefix+0xc4>
    40104c3c:	52800000 	mov	w0, #0x0                   	// #0
    40104c40:	91003cbc 	add	x28, x5, #0xf
    40104c44:	3100041f 	cmn	w0, #0x1
    40104c48:	540026c0 	b.eq	40105120 <LZ4_decompress_safe_withSmallPrefix+0x5c4>
    40104c4c:	8b130386 	add	x6, x28, x19
    40104c50:	eb06027f 	cmp	x19, x6
    40104c54:	54002668 	b.hi	40105120 <LZ4_decompress_safe_withSmallPrefix+0x5c4>
    40104c58:	8b1a0394 	add	x20, x28, x26
    40104c5c:	eb14035f 	cmp	x26, x20
    40104c60:	54002608 	b.hi	40105120 <LZ4_decompress_safe_withSmallPrefix+0x5c4>
    40104c64:	f94047a0 	ldr	x0, [x29,#136]
    40104c68:	aa0603f6 	mov	x22, x6
    40104c6c:	eb06001f 	cmp	x0, x6
    40104c70:	54002b63 	b.cc	401051dc <LZ4_decompress_safe_withSmallPrefix+0x680>
    40104c74:	f9403ba0 	ldr	x0, [x29,#112]
    40104c78:	eb00029f 	cmp	x20, x0
    40104c7c:	54002b08 	b.hi	401051dc <LZ4_decompress_safe_withSmallPrefix+0x680>
    40104c80:	aa1a03e1 	mov	x1, x26
    40104c84:	f90033a6 	str	x6, [x29,#96]
    40104c88:	d2800202 	mov	x2, #0x10                  	// #16
    40104c8c:	aa1303e0 	mov	x0, x19
    40104c90:	97fff430 	bl	40101d50 <memcpy>
    40104c94:	d2800202 	mov	x2, #0x10                  	// #16
    40104c98:	8b020341 	add	x1, x26, x2
    40104c9c:	8b020260 	add	x0, x19, x2
    40104ca0:	97fff42c 	bl	40101d50 <memcpy>
    40104ca4:	f94033a6 	ldr	x6, [x29,#96]
    40104ca8:	91008273 	add	x19, x19, #0x20
    40104cac:	9100835a 	add	x26, x26, #0x20
    40104cb0:	eb1300df 	cmp	x6, x19
    40104cb4:	54fffe68 	b.hi	40104c80 <LZ4_decompress_safe_withSmallPrefix+0x124>
    40104cb8:	39400281 	ldrb	w1, [x20]
    40104cbc:	12000f13 	and	w19, w24, #0xf
    40104cc0:	39400680 	ldrb	w0, [x20,#1]
    40104cc4:	91000a9a 	add	x26, x20, #0x2
    40104cc8:	71003e7f 	cmp	w19, #0xf
    40104ccc:	2a002020 	orr	w0, w1, w0, lsl #8
    40104cd0:	92403c06 	and	x6, x0, #0xffff
    40104cd4:	cb0602dc 	sub	x28, x22, x6
    40104cd8:	54001221 	b.ne	40104f1c <LZ4_decompress_safe_withSmallPrefix+0x3c0>
    40104cdc:	eb1c033f 	cmp	x25, x28
    40104ce0:	54002208 	b.hi	40105120 <LZ4_decompress_safe_withSmallPrefix+0x5c4>
    40104ce4:	d10012a2 	sub	x2, x21, #0x4
    40104ce8:	52800013 	mov	w19, #0x0                   	// #0
    40104cec:	38401741 	ldrb	w1, [x26],#1
    40104cf0:	0b010273 	add	w19, w19, w1
    40104cf4:	eb1a005f 	cmp	x2, x26
    40104cf8:	540010e9 	b.ls	40104f14 <LZ4_decompress_safe_withSmallPrefix+0x3b8>
    40104cfc:	7103fc3f 	cmp	w1, #0xff
    40104d00:	54ffff60 	b.eq	40104cec <LZ4_decompress_safe_withSmallPrefix+0x190>
    40104d04:	52800001 	mov	w1, #0x0                   	// #0
    40104d08:	350020c1 	cbnz	w1, 40105120 <LZ4_decompress_safe_withSmallPrefix+0x5c4>
    40104d0c:	91003ec1 	add	x1, x22, #0xf
    40104d10:	8b130021 	add	x1, x1, x19
    40104d14:	eb0102df 	cmp	x22, x1
    40104d18:	54002048 	b.hi	40105120 <LZ4_decompress_safe_withSmallPrefix+0x5c4>
    40104d1c:	91004e78 	add	x24, x19, #0x13
    40104d20:	d10102e1 	sub	x1, x23, #0x40
    40104d24:	8b1802c2 	add	x2, x22, x24
    40104d28:	eb01005f 	cmp	x2, x1
    40104d2c:	540027e3 	b.cc	40105228 <LZ4_decompress_safe_withSmallPrefix+0x6cc>
    40104d30:	8b1802d3 	add	x19, x22, x24
    40104d34:	f1001cdf 	cmp	x6, #0x7
    40104d38:	54001fc8 	b.hi	40105130 <LZ4_decompress_safe_withSmallPrefix+0x5d4>
    40104d3c:	390002df 	strb	wzr, [x22]
    40104d40:	d2800082 	mov	x2, #0x4                   	// #4
    40104d44:	390006df 	strb	wzr, [x22,#1]
    40104d48:	39000adf 	strb	wzr, [x22,#2]
    40104d4c:	39000edf 	strb	wzr, [x22,#3]
    40104d50:	f90043a6 	str	x6, [x29,#128]
    40104d54:	39400380 	ldrb	w0, [x28]
    40104d58:	390002c0 	strb	w0, [x22]
    40104d5c:	39400780 	ldrb	w0, [x28,#1]
    40104d60:	390006c0 	strb	w0, [x22,#1]
    40104d64:	39400b80 	ldrb	w0, [x28,#2]
    40104d68:	39000ac0 	strb	w0, [x22,#2]
    40104d6c:	39400f80 	ldrb	w0, [x28,#3]
    40104d70:	39000ec0 	strb	w0, [x22,#3]
    40104d74:	f0000020 	adrp	x0, 4010b000 <__func__.4011+0x10>
    40104d78:	911a2000 	add	x0, x0, #0x688
    40104d7c:	b8667814 	ldr	w20, [x0,x6,lsl #2]
    40104d80:	8b0202c0 	add	x0, x22, x2
    40104d84:	8b140394 	add	x20, x28, x20
    40104d88:	aa1403e1 	mov	x1, x20
    40104d8c:	97fff3f1 	bl	40101d50 <memcpy>
    40104d90:	f94043a6 	ldr	x6, [x29,#128]
    40104d94:	f0000020 	adrp	x0, 4010b000 <__func__.4011+0x10>
    40104d98:	9119a000 	add	x0, x0, #0x668
    40104d9c:	b8a67800 	ldrsw	x0, [x0,x6,lsl #2]
    40104da0:	cb000294 	sub	x20, x20, x0
    40104da4:	d10032e0 	sub	x0, x23, #0xc
    40104da8:	910022db 	add	x27, x22, #0x8
    40104dac:	eb00027f 	cmp	x19, x0
    40104db0:	54001cc9 	b.ls	40105148 <LZ4_decompress_safe_withSmallPrefix+0x5ec>
    40104db4:	d10016e0 	sub	x0, x23, #0x5
    40104db8:	eb00027f 	cmp	x19, x0
    40104dbc:	54001b28 	b.hi	40105120 <LZ4_decompress_safe_withSmallPrefix+0x5c4>
    40104dc0:	d1001efc 	sub	x28, x23, #0x7
    40104dc4:	eb1c037f 	cmp	x27, x28
    40104dc8:	540001c2 	b.cs	40104e00 <LZ4_decompress_safe_withSmallPrefix+0x2a4>
    40104dcc:	aa1403f6 	mov	x22, x20
    40104dd0:	aa1b03e3 	mov	x3, x27
    40104dd4:	aa1603e1 	mov	x1, x22
    40104dd8:	aa0303e0 	mov	x0, x3
    40104ddc:	d2800102 	mov	x2, #0x8                   	// #8
    40104de0:	97fff3dc 	bl	40101d50 <memcpy>
    40104de4:	91002003 	add	x3, x0, #0x8
    40104de8:	910022d6 	add	x22, x22, #0x8
    40104dec:	eb03039f 	cmp	x28, x3
    40104df0:	54ffff28 	b.hi	40104dd4 <LZ4_decompress_safe_withSmallPrefix+0x278>
    40104df4:	cb1b039b 	sub	x27, x28, x27
    40104df8:	8b1b0294 	add	x20, x20, x27
    40104dfc:	aa1c03fb 	mov	x27, x28
    40104e00:	d2800000 	mov	x0, #0x0                   	// #0
    40104e04:	8b000361 	add	x1, x27, x0
    40104e08:	eb01027f 	cmp	x19, x1
    40104e0c:	540000c9 	b.ls	40104e24 <LZ4_decompress_safe_withSmallPrefix+0x2c8>
    40104e10:	38606a81 	ldrb	w1, [x20,x0]
    40104e14:	38206b61 	strb	w1, [x27,x0]
    40104e18:	91000400 	add	x0, x0, #0x1
    40104e1c:	17fffffa 	b	40104e04 <LZ4_decompress_safe_withSmallPrefix+0x2a8>
    40104e20:	a9496bb3 	ldp	x19, x26, [x29,#144]
    40104e24:	aa1a03e0 	mov	x0, x26
    40104e28:	d10042b4 	sub	x20, x21, #0x10
    40104e2c:	3940001b 	ldrb	w27, [x0]
    40104e30:	9100075a 	add	x26, x26, #0x1
    40104e34:	53047f7c 	lsr	w28, w27, #4
    40104e38:	71003f9f 	cmp	w28, #0xf
    40104e3c:	54001ac0 	b.eq	40105194 <LZ4_decompress_safe_withSmallPrefix+0x638>
    40104e40:	f94047a0 	ldr	x0, [x29,#136]
    40104e44:	eb1a029f 	cmp	x20, x26
    40104e48:	fa538000 	ccmp	x0, x19, #0x0, hi
    40104e4c:	54001c63 	b.cc	401051d8 <LZ4_decompress_safe_withSmallPrefix+0x67c>
    40104e50:	aa1a03e1 	mov	x1, x26
    40104e54:	aa1303e0 	mov	x0, x19
    40104e58:	d2800202 	mov	x2, #0x10                  	// #16
    40104e5c:	97fff3bd 	bl	40101d50 <memcpy>
    40104e60:	8b1c0340 	add	x0, x26, x28
    40104e64:	387c6b41 	ldrb	w1, [x26,x28]
    40104e68:	8b1c0276 	add	x22, x19, x28
    40104e6c:	92400f73 	and	x19, x27, #0xf
    40104e70:	f1003e7f 	cmp	x19, #0xf
    40104e74:	9100081a 	add	x26, x0, #0x2
    40104e78:	39400406 	ldrb	w6, [x0,#1]
    40104e7c:	aa062026 	orr	x6, x1, x6, lsl #8
    40104e80:	cb0602dc 	sub	x28, x22, x6
    40104e84:	fa4718c0 	ccmp	x6, #0x7, #0x0, ne
    40104e88:	540012a9 	b.ls	401050dc <LZ4_decompress_safe_withSmallPrefix+0x580>
    40104e8c:	eb1c033f 	cmp	x25, x28
    40104e90:	54001428 	b.hi	40105114 <LZ4_decompress_safe_withSmallPrefix+0x5b8>
    40104e94:	d2800102 	mov	x2, #0x8                   	// #8
    40104e98:	aa1c03e1 	mov	x1, x28
    40104e9c:	aa1603e0 	mov	x0, x22
    40104ea0:	97fff3ac 	bl	40101d50 <memcpy>
    40104ea4:	d2800102 	mov	x2, #0x8                   	// #8
    40104ea8:	8b020381 	add	x1, x28, x2
    40104eac:	8b0202c0 	add	x0, x22, x2
    40104eb0:	97fff3a8 	bl	40101d50 <memcpy>
    40104eb4:	39404380 	ldrb	w0, [x28,#16]
    40104eb8:	91001273 	add	x19, x19, #0x4
    40104ebc:	390042c0 	strb	w0, [x22,#16]
    40104ec0:	8b1302d3 	add	x19, x22, x19
    40104ec4:	39404780 	ldrb	w0, [x28,#17]
    40104ec8:	390046c0 	strb	w0, [x22,#17]
    40104ecc:	aa1a03e0 	mov	x0, x26
    40104ed0:	17ffffd7 	b	40104e2c <LZ4_decompress_safe_withSmallPrefix+0x2d0>
    40104ed4:	12800000 	mov	w0, #0xffffffff            	// #-1
    40104ed8:	d2800005 	mov	x5, #0x0                   	// #0
    40104edc:	17ffff59 	b	40104c40 <LZ4_decompress_safe_withSmallPrefix+0xe4>
    40104ee0:	12800020 	mov	w0, #0xfffffffe            	// #-2
    40104ee4:	17ffff57 	b	40104c40 <LZ4_decompress_safe_withSmallPrefix+0xe4>
    40104ee8:	f9403fa0 	ldr	x0, [x29,#120]
    40104eec:	2a0503fc 	mov	w28, w5
    40104ef0:	8b1c0276 	add	x22, x19, x28
    40104ef4:	eb00035f 	cmp	x26, x0
    40104ef8:	54001728 	b.hi	401051dc <LZ4_decompress_safe_withSmallPrefix+0x680>
    40104efc:	d2800202 	mov	x2, #0x10                  	// #16
    40104f00:	aa1a03e1 	mov	x1, x26
    40104f04:	aa1303e0 	mov	x0, x19
    40104f08:	8b1c0354 	add	x20, x26, x28
    40104f0c:	97fff391 	bl	40101d50 <memcpy>
    40104f10:	17ffff6a 	b	40104cb8 <LZ4_decompress_safe_withSmallPrefix+0x15c>
    40104f14:	12800021 	mov	w1, #0xfffffffe            	// #-2
    40104f18:	17ffff7c 	b	40104d08 <LZ4_decompress_safe_withSmallPrefix+0x1ac>
    40104f1c:	92401e73 	and	x19, x19, #0xff
    40104f20:	d10102e1 	sub	x1, x23, #0x40
    40104f24:	91001278 	add	x24, x19, #0x4
    40104f28:	8b1802d3 	add	x19, x22, x24
    40104f2c:	eb01027f 	cmp	x19, x1
    40104f30:	54000f42 	b.cs	40105118 <LZ4_decompress_safe_withSmallPrefix+0x5bc>
    40104f34:	eb1c033f 	cmp	x25, x28
    40104f38:	54000f48 	b.hi	40105120 <LZ4_decompress_safe_withSmallPrefix+0x5c4>
    40104f3c:	f1001cdf 	cmp	x6, #0x7
    40104f40:	54001749 	b.ls	40105228 <LZ4_decompress_safe_withSmallPrefix+0x6cc>
    40104f44:	d2800102 	mov	x2, #0x8                   	// #8
    40104f48:	aa1c03e1 	mov	x1, x28
    40104f4c:	aa1603e0 	mov	x0, x22
    40104f50:	97fff380 	bl	40101d50 <memcpy>
    40104f54:	d2800102 	mov	x2, #0x8                   	// #8
    40104f58:	8b020381 	add	x1, x28, x2
    40104f5c:	8b0202c0 	add	x0, x22, x2
    40104f60:	97fff37c 	bl	40101d50 <memcpy>
    40104f64:	39404380 	ldrb	w0, [x28,#16]
    40104f68:	390042c0 	strb	w0, [x22,#16]
    40104f6c:	39404780 	ldrb	w0, [x28,#17]
    40104f70:	390046c0 	strb	w0, [x22,#17]
    40104f74:	aa1a03e0 	mov	x0, x26
    40104f78:	17ffff20 	b	40104bf8 <LZ4_decompress_safe_withSmallPrefix+0x9c>
    40104f7c:	39400780 	ldrb	w0, [x28,#1]
    40104f80:	39400381 	ldrb	w1, [x28]
    40104f84:	3902a3a1 	strb	w1, [x29,#168]
    40104f88:	3902a7a0 	strb	w0, [x29,#169]
    40104f8c:	3902aba1 	strb	w1, [x29,#170]
    40104f90:	3902afa0 	strb	w0, [x29,#171]
    40104f94:	b940aba0 	ldr	w0, [x29,#168]
    40104f98:	b900afa0 	str	w0, [x29,#172]
    40104f9c:	140000b1 	b	40105260 <LZ4_decompress_safe_withSmallPrefix+0x704>
    40104fa0:	aa1c03e1 	mov	x1, x28
    40104fa4:	d2800082 	mov	x2, #0x4                   	// #4
    40104fa8:	9102a3a0 	add	x0, x29, #0xa8
    40104fac:	97fff369 	bl	40101d50 <memcpy>
    40104fb0:	f94037a0 	ldr	x0, [x29,#104]
    40104fb4:	d2800082 	mov	x2, #0x4                   	// #4
    40104fb8:	aa1c03e1 	mov	x1, x28
    40104fbc:	97fff365 	bl	40101d50 <memcpy>
    40104fc0:	140000a8 	b	40105260 <LZ4_decompress_safe_withSmallPrefix+0x704>
    40104fc4:	f1001cdf 	cmp	x6, #0x7
    40104fc8:	54000488 	b.hi	40105058 <LZ4_decompress_safe_withSmallPrefix+0x4fc>
    40104fcc:	390002df 	strb	wzr, [x22]
    40104fd0:	d2800082 	mov	x2, #0x4                   	// #4
    40104fd4:	390006df 	strb	wzr, [x22,#1]
    40104fd8:	39000adf 	strb	wzr, [x22,#2]
    40104fdc:	39000edf 	strb	wzr, [x22,#3]
    40104fe0:	f90033a6 	str	x6, [x29,#96]
    40104fe4:	39400380 	ldrb	w0, [x28]
    40104fe8:	390002c0 	strb	w0, [x22]
    40104fec:	39400780 	ldrb	w0, [x28,#1]
    40104ff0:	390006c0 	strb	w0, [x22,#1]
    40104ff4:	39400b80 	ldrb	w0, [x28,#2]
    40104ff8:	39000ac0 	strb	w0, [x22,#2]
    40104ffc:	39400f80 	ldrb	w0, [x28,#3]
    40105000:	39000ec0 	strb	w0, [x22,#3]
    40105004:	d0000020 	adrp	x0, 4010b000 <__func__.4011+0x10>
    40105008:	911a2000 	add	x0, x0, #0x688
    4010500c:	b8667805 	ldr	w5, [x0,x6,lsl #2]
    40105010:	8b0202c0 	add	x0, x22, x2
    40105014:	8b05039c 	add	x28, x28, x5
    40105018:	aa1c03e1 	mov	x1, x28
    4010501c:	97fff34d 	bl	40101d50 <memcpy>
    40105020:	f94033a6 	ldr	x6, [x29,#96]
    40105024:	d0000020 	adrp	x0, 4010b000 <__func__.4011+0x10>
    40105028:	9119a000 	add	x0, x0, #0x668
    4010502c:	b8a67803 	ldrsw	x3, [x0,x6,lsl #2]
    40105030:	cb03039c 	sub	x28, x28, x3
    40105034:	aa1c03e1 	mov	x1, x28
    40105038:	aa1403e0 	mov	x0, x20
    4010503c:	d2800102 	mov	x2, #0x8                   	// #8
    40105040:	91002294 	add	x20, x20, #0x8
    40105044:	97fff343 	bl	40101d50 <memcpy>
    40105048:	9100239c 	add	x28, x28, #0x8
    4010504c:	eb14027f 	cmp	x19, x20
    40105050:	54ffff28 	b.hi	40105034 <LZ4_decompress_safe_withSmallPrefix+0x4d8>
    40105054:	17ffffc8 	b	40104f74 <LZ4_decompress_safe_withSmallPrefix+0x418>
    40105058:	aa1c03e1 	mov	x1, x28
    4010505c:	d2800102 	mov	x2, #0x8                   	// #8
    40105060:	aa1603e0 	mov	x0, x22
    40105064:	9100239c 	add	x28, x28, #0x8
    40105068:	97fff33a 	bl	40101d50 <memcpy>
    4010506c:	17fffff2 	b	40105034 <LZ4_decompress_safe_withSmallPrefix+0x4d8>
    40105070:	aa1c03e1 	mov	x1, x28
    40105074:	d2800202 	mov	x2, #0x10                  	// #16
    40105078:	aa1603e0 	mov	x0, x22
    4010507c:	97fff335 	bl	40101d50 <memcpy>
    40105080:	d2800202 	mov	x2, #0x10                  	// #16
    40105084:	8b020381 	add	x1, x28, x2
    40105088:	8b0202c0 	add	x0, x22, x2
    4010508c:	910082d6 	add	x22, x22, #0x20
    40105090:	97fff330 	bl	40101d50 <memcpy>
    40105094:	9100839c 	add	x28, x28, #0x20
    40105098:	eb16027f 	cmp	x19, x22
    4010509c:	54fffea8 	b.hi	40105070 <LZ4_decompress_safe_withSmallPrefix+0x514>
    401050a0:	17ffffb5 	b	40104f74 <LZ4_decompress_safe_withSmallPrefix+0x418>
    401050a4:	aa1a03e1 	mov	x1, x26
    401050a8:	aa1303e0 	mov	x0, x19
    401050ac:	d2800102 	mov	x2, #0x8                   	// #8
    401050b0:	91002273 	add	x19, x19, #0x8
    401050b4:	97fff327 	bl	40101d50 <memcpy>
    401050b8:	9100235a 	add	x26, x26, #0x8
    401050bc:	eb1302df 	cmp	x22, x19
    401050c0:	54ffff28 	b.hi	401050a4 <LZ4_decompress_safe_withSmallPrefix+0x548>
    401050c4:	39400280 	ldrb	w0, [x20]
    401050c8:	91000a9a 	add	x26, x20, #0x2
    401050cc:	39400686 	ldrb	w6, [x20,#1]
    401050d0:	92400f73 	and	x19, x27, #0xf
    401050d4:	aa062006 	orr	x6, x0, x6, lsl #8
    401050d8:	cb0602dc 	sub	x28, x22, x6
    401050dc:	f1003e7f 	cmp	x19, #0xf
    401050e0:	540001a1 	b.ne	40105114 <LZ4_decompress_safe_withSmallPrefix+0x5b8>
    401050e4:	d10012a1 	sub	x1, x21, #0x4
    401050e8:	52800013 	mov	w19, #0x0                   	// #0
    401050ec:	38401740 	ldrb	w0, [x26],#1
    401050f0:	0b000273 	add	w19, w19, w0
    401050f4:	eb1a003f 	cmp	x1, x26
    401050f8:	54000149 	b.ls	40105120 <LZ4_decompress_safe_withSmallPrefix+0x5c4>
    401050fc:	7103fc1f 	cmp	w0, #0xff
    40105100:	54ffff60 	b.eq	401050ec <LZ4_decompress_safe_withSmallPrefix+0x590>
    40105104:	91003e73 	add	x19, x19, #0xf
    40105108:	8b160260 	add	x0, x19, x22
    4010510c:	eb0002df 	cmp	x22, x0
    40105110:	54000088 	b.hi	40105120 <LZ4_decompress_safe_withSmallPrefix+0x5c4>
    40105114:	91001278 	add	x24, x19, #0x4
    40105118:	eb1c033f 	cmp	x25, x28
    4010511c:	54ffe0a9 	b.ls	40104d30 <LZ4_decompress_safe_withSmallPrefix+0x1d4>
    40105120:	f9404fa0 	ldr	x0, [x29,#152]
    40105124:	cb000340 	sub	x0, x26, x0
    40105128:	2a2003e0 	mvn	w0, w0
    4010512c:	17fffe9f 	b	40104ba8 <LZ4_decompress_safe_withSmallPrefix+0x4c>
    40105130:	d2800102 	mov	x2, #0x8                   	// #8
    40105134:	aa1c03e1 	mov	x1, x28
    40105138:	aa1603e0 	mov	x0, x22
    4010513c:	91002394 	add	x20, x28, #0x8
    40105140:	97fff304 	bl	40101d50 <memcpy>
    40105144:	17ffff18 	b	40104da4 <LZ4_decompress_safe_withSmallPrefix+0x248>
    40105148:	d2800102 	mov	x2, #0x8                   	// #8
    4010514c:	aa1403e1 	mov	x1, x20
    40105150:	aa1b03e0 	mov	x0, x27
    40105154:	97fff2ff 	bl	40101d50 <memcpy>
    40105158:	f100431f 	cmp	x24, #0x10
    4010515c:	54ffe649 	b.ls	40104e24 <LZ4_decompress_safe_withSmallPrefix+0x2c8>
    40105160:	910042d6 	add	x22, x22, #0x10
    40105164:	91002294 	add	x20, x20, #0x8
    40105168:	aa1403e1 	mov	x1, x20
    4010516c:	aa1603e0 	mov	x0, x22
    40105170:	d2800102 	mov	x2, #0x8                   	// #8
    40105174:	910022d6 	add	x22, x22, #0x8
    40105178:	97fff2f6 	bl	40101d50 <memcpy>
    4010517c:	91002294 	add	x20, x20, #0x8
    40105180:	eb16027f 	cmp	x19, x22
    40105184:	54ffff28 	b.hi	40105168 <LZ4_decompress_safe_withSmallPrefix+0x60c>
    40105188:	17ffff27 	b	40104e24 <LZ4_decompress_safe_withSmallPrefix+0x2c8>
    4010518c:	12800000 	mov	w0, #0xffffffff            	// #-1
    40105190:	17fffe86 	b	40104ba8 <LZ4_decompress_safe_withSmallPrefix+0x4c>
    40105194:	d1003ea0 	sub	x0, x21, #0xf
    40105198:	eb00035f 	cmp	x26, x0
    4010519c:	54fffc22 	b.cs	40105120 <LZ4_decompress_safe_withSmallPrefix+0x5c4>
    401051a0:	52800005 	mov	w5, #0x0                   	// #0
    401051a4:	38401741 	ldrb	w1, [x26],#1
    401051a8:	0b0100a5 	add	w5, w5, w1
    401051ac:	eb1a001f 	cmp	x0, x26
    401051b0:	54000069 	b.ls	401051bc <LZ4_decompress_safe_withSmallPrefix+0x660>
    401051b4:	7103fc3f 	cmp	w1, #0xff
    401051b8:	54ffff60 	b.eq	401051a4 <LZ4_decompress_safe_withSmallPrefix+0x648>
    401051bc:	91003cbc 	add	x28, x5, #0xf
    401051c0:	8b130380 	add	x0, x28, x19
    401051c4:	eb00027f 	cmp	x19, x0
    401051c8:	54fffac8 	b.hi	40105120 <LZ4_decompress_safe_withSmallPrefix+0x5c4>
    401051cc:	8b1a0380 	add	x0, x28, x26
    401051d0:	eb00035f 	cmp	x26, x0
    401051d4:	54fffa68 	b.hi	40105120 <LZ4_decompress_safe_withSmallPrefix+0x5c4>
    401051d8:	8b1c0276 	add	x22, x19, x28
    401051dc:	d10032e0 	sub	x0, x23, #0xc
    401051e0:	8b1a0394 	add	x20, x28, x26
    401051e4:	eb0002df 	cmp	x22, x0
    401051e8:	54000088 	b.hi	401051f8 <LZ4_decompress_safe_withSmallPrefix+0x69c>
    401051ec:	d10022a0 	sub	x0, x21, #0x8
    401051f0:	eb00029f 	cmp	x20, x0
    401051f4:	54fff589 	b.ls	401050a4 <LZ4_decompress_safe_withSmallPrefix+0x548>
    401051f8:	eb1402bf 	cmp	x21, x20
    401051fc:	54fff921 	b.ne	40105120 <LZ4_decompress_safe_withSmallPrefix+0x5c4>
    40105200:	eb1602ff 	cmp	x23, x22
    40105204:	54fff8e3 	b.cc	40105120 <LZ4_decompress_safe_withSmallPrefix+0x5c4>
    40105208:	aa1303e0 	mov	x0, x19
    4010520c:	aa1c03e2 	mov	x2, x28
    40105210:	aa1a03e1 	mov	x1, x26
    40105214:	97fff2f4 	bl	40101de4 <memmove>
    40105218:	b94093a0 	ldr	w0, [x29,#144]
    4010521c:	8b1c0273 	add	x19, x19, x28
    40105220:	4b000260 	sub	w0, w19, w0
    40105224:	17fffe61 	b	40104ba8 <LZ4_decompress_safe_withSmallPrefix+0x4c>
    40105228:	8b1802d3 	add	x19, x22, x24
    4010522c:	f1003cdf 	cmp	x6, #0xf
    40105230:	54fff208 	b.hi	40105070 <LZ4_decompress_safe_withSmallPrefix+0x514>
    40105234:	7100081f 	cmp	w0, #0x2
    40105238:	910022d4 	add	x20, x22, #0x8
    4010523c:	54ffea00 	b.eq	40104f7c <LZ4_decompress_safe_withSmallPrefix+0x420>
    40105240:	7100101f 	cmp	w0, #0x4
    40105244:	54ffeae0 	b.eq	40104fa0 <LZ4_decompress_safe_withSmallPrefix+0x444>
    40105248:	7100041f 	cmp	w0, #0x1
    4010524c:	54ffebc1 	b.ne	40104fc4 <LZ4_decompress_safe_withSmallPrefix+0x468>
    40105250:	39400381 	ldrb	w1, [x28]
    40105254:	d2800102 	mov	x2, #0x8                   	// #8
    40105258:	9102a3a0 	add	x0, x29, #0xa8
    4010525c:	97fff29e 	bl	40101cd4 <memset>
    40105260:	d2800102 	mov	x2, #0x8                   	// #8
    40105264:	9102a3a1 	add	x1, x29, #0xa8
    40105268:	aa1603e0 	mov	x0, x22
    4010526c:	97fff2b9 	bl	40101d50 <memcpy>
    40105270:	eb14027f 	cmp	x19, x20
    40105274:	54ffe809 	b.ls	40104f74 <LZ4_decompress_safe_withSmallPrefix+0x418>
    40105278:	aa1403e0 	mov	x0, x20
    4010527c:	d2800102 	mov	x2, #0x8                   	// #8
    40105280:	9102a3a1 	add	x1, x29, #0xa8
    40105284:	91002294 	add	x20, x20, #0x8
    40105288:	97fff2b2 	bl	40101d50 <memcpy>
    4010528c:	17fffff9 	b	40105270 <LZ4_decompress_safe_withSmallPrefix+0x714>

0000000040105290 <LZ4F_updateDict>:
    40105290:	f9403405 	ldr	x5, [x0,#104]
    40105294:	b5000045 	cbnz	x5, 4010529c <LZ4F_updateDict+0xc>
    40105298:	f9003001 	str	x1, [x0,#96]
    4010529c:	f9403006 	ldr	x6, [x0,#96]
    401052a0:	8b0500c7 	add	x7, x6, x5
    401052a4:	eb07003f 	cmp	x1, x7
    401052a8:	54000081 	b.ne	401052b8 <LZ4F_updateDict+0x28>
    401052ac:	8b0200a5 	add	x5, x5, x2
    401052b0:	f9003405 	str	x5, [x0,#104]
    401052b4:	d65f03c0 	ret
    401052b8:	cb030027 	sub	x7, x1, x3
    401052bc:	d29fffe8 	mov	x8, #0xffff                	// #65535
    401052c0:	8b0200e7 	add	x7, x7, x2
    401052c4:	eb0800ff 	cmp	x7, x8
    401052c8:	54000069 	b.ls	401052d4 <LZ4F_updateDict+0x44>
    401052cc:	a9061c03 	stp	x3, x7, [x0,#96]
    401052d0:	d65f03c0 	ret
    401052d4:	a9bd7bfd 	stp	x29, x30, [sp,#-48]!
    401052d8:	910003fd 	mov	x29, sp
    401052dc:	a90153f3 	stp	x19, x20, [sp,#16]
    401052e0:	aa0003f3 	mov	x19, x0
    401052e4:	a9025bf5 	stp	x21, x22, [sp,#32]
    401052e8:	aa0203f4 	mov	x20, x2
    401052ec:	f9402c00 	ldr	x0, [x0,#88]
    401052f0:	aa0103f6 	mov	x22, x1
    401052f4:	eb0000df 	cmp	x6, x0
    401052f8:	340003e4 	cbz	w4, 40105374 <LZ4F_updateDict+0xe4>
    401052fc:	54000081 	b.ne	4010530c <LZ4F_updateDict+0x7c>
    40105300:	8b1400a5 	add	x5, x5, x20
    40105304:	f9003665 	str	x5, [x19,#104]
    40105308:	14000015 	b	4010535c <LZ4F_updateDict+0xcc>
    4010530c:	a9470e75 	ldp	x21, x3, [x19,#112]
    40105310:	f9404261 	ldr	x1, [x19,#128]
    40105314:	cb0002b5 	sub	x21, x21, x0
    40105318:	f140407f 	cmp	x3, #0x10, lsl #12
    4010531c:	cb0100a1 	sub	x1, x5, x1
    40105320:	54000268 	b.hi	4010536c <LZ4F_updateDict+0xdc>
    40105324:	d2a00022 	mov	x2, #0x10000               	// #65536
    40105328:	cb030042 	sub	x2, x2, x3
    4010532c:	eb15005f 	cmp	x2, x21
    40105330:	9a959042 	csel	x2, x2, x21, ls
    40105334:	cb0202a3 	sub	x3, x21, x2
    40105338:	cb020021 	sub	x1, x1, x2
    4010533c:	8b0100c1 	add	x1, x6, x1
    40105340:	8b030000 	add	x0, x0, x3
    40105344:	97fff283 	bl	40101d50 <memcpy>
    40105348:	f9404265 	ldr	x5, [x19,#128]
    4010534c:	f9402e60 	ldr	x0, [x19,#88]
    40105350:	8b050285 	add	x5, x20, x5
    40105354:	8b1500b5 	add	x21, x5, x21
    40105358:	a9065660 	stp	x0, x21, [x19,#96]
    4010535c:	a94153f3 	ldp	x19, x20, [sp,#16]
    40105360:	a9425bf5 	ldp	x21, x22, [sp,#32]
    40105364:	a8c37bfd 	ldp	x29, x30, [sp],#48
    40105368:	d65f03c0 	ret
    4010536c:	d2800002 	mov	x2, #0x0                   	// #0
    40105370:	17fffff1 	b	40105334 <LZ4F_updateDict+0xa4>
    40105374:	540002a1 	b.ne	401053c8 <LZ4F_updateDict+0x138>
    40105378:	f9401e61 	ldr	x1, [x19,#56]
    4010537c:	8b0200a0 	add	x0, x5, x2
    40105380:	eb01001f 	cmp	x0, x1
    40105384:	54000129 	b.ls	401053a8 <LZ4F_updateDict+0x118>
    40105388:	d2a00035 	mov	x21, #0x10000               	// #65536
    4010538c:	cb0202b5 	sub	x21, x21, x2
    40105390:	cb1500a1 	sub	x1, x5, x21
    40105394:	aa1503e2 	mov	x2, x21
    40105398:	8b0100c1 	add	x1, x6, x1
    4010539c:	aa0603e0 	mov	x0, x6
    401053a0:	97fff26c 	bl	40101d50 <memcpy>
    401053a4:	f9003675 	str	x21, [x19,#104]
    401053a8:	f9402e63 	ldr	x3, [x19,#88]
    401053ac:	aa1403e2 	mov	x2, x20
    401053b0:	f9403660 	ldr	x0, [x19,#104]
    401053b4:	aa1603e1 	mov	x1, x22
    401053b8:	8b000060 	add	x0, x3, x0
    401053bc:	97fff265 	bl	40101d50 <memcpy>
    401053c0:	f9403665 	ldr	x5, [x19,#104]
    401053c4:	17ffffcf 	b	40105300 <LZ4F_updateDict+0x70>
    401053c8:	d2a00035 	mov	x21, #0x10000               	// #65536
    401053cc:	cb0202b5 	sub	x21, x21, x2
    401053d0:	eb1500bf 	cmp	x5, x21
    401053d4:	9a9590b5 	csel	x21, x5, x21, ls
    401053d8:	cb1500a1 	sub	x1, x5, x21
    401053dc:	aa1503e2 	mov	x2, x21
    401053e0:	8b0100c1 	add	x1, x6, x1
    401053e4:	97fff25b 	bl	40101d50 <memcpy>
    401053e8:	f9402e60 	ldr	x0, [x19,#88]
    401053ec:	aa1403e2 	mov	x2, x20
    401053f0:	aa1603e1 	mov	x1, x22
    401053f4:	8b150000 	add	x0, x0, x21
    401053f8:	97fff256 	bl	40101d50 <memcpy>
    401053fc:	f9402e60 	ldr	x0, [x19,#88]
    40105400:	8b150285 	add	x5, x20, x21
    40105404:	f9003260 	str	x0, [x19,#96]
    40105408:	17ffffbf 	b	40105304 <LZ4F_updateDict+0x74>

000000004010540c <LZ4_decompress_safe>:
    4010540c:	b40031a0 	cbz	x0, 40105a40 <LZ4_decompress_safe+0x634>
    40105410:	a9b57bfd 	stp	x29, x30, [sp,#-176]!
    40105414:	910003fd 	mov	x29, sp
    40105418:	a90363f7 	stp	x23, x24, [sp,#48]
    4010541c:	8b23c038 	add	x24, x1, w3, sxtw
    40105420:	a9025bf5 	stp	x21, x22, [sp,#32]
    40105424:	d1008304 	sub	x4, x24, #0x20
    40105428:	a90153f3 	stp	x19, x20, [sp,#16]
    4010542c:	8b22c016 	add	x22, x0, w2, sxtw
    40105430:	a9046bf9 	stp	x25, x26, [sp,#64]
    40105434:	a90573fb 	stp	x27, x28, [sp,#80]
    40105438:	f9004ba4 	str	x4, [x29,#144]
    4010543c:	350001a3 	cbnz	w3, 40105470 <LZ4_decompress_safe+0x64>
    40105440:	7100045f 	cmp	w2, #0x1
    40105444:	54003021 	b.ne	40105a48 <LZ4_decompress_safe+0x63c>
    40105448:	39400000 	ldrb	w0, [x0]
    4010544c:	7100001f 	cmp	w0, #0x0
    40105450:	5a9f03e0 	csetm	w0, ne
    40105454:	a94153f3 	ldp	x19, x20, [sp,#16]
    40105458:	a9425bf5 	ldp	x21, x22, [sp,#32]
    4010545c:	a94363f7 	ldp	x23, x24, [sp,#48]
    40105460:	a9446bf9 	ldp	x25, x26, [sp,#64]
    40105464:	a94573fb 	ldp	x27, x28, [sp,#80]
    40105468:	a8cb7bfd 	ldp	x29, x30, [sp],#176
    4010546c:	d65f03c0 	ret
    40105470:	34002ec2 	cbz	w2, 40105a48 <LZ4_decompress_safe+0x63c>
    40105474:	f9004fa0 	str	x0, [x29,#152]
    40105478:	aa0103f5 	mov	x21, x1
    4010547c:	7100fc7f 	cmp	w3, #0x3f
    40105480:	540012ad 	b.le	401056d4 <LZ4_decompress_safe+0x2c8>
    40105484:	aa0103f3 	mov	x19, x1
    40105488:	d10046c1 	sub	x1, x22, #0x11
    4010548c:	f90043a1 	str	x1, [x29,#128]
    40105490:	d1003ec1 	sub	x1, x22, #0xf
    40105494:	f90047a1 	str	x1, [x29,#136]
    40105498:	d10082c1 	sub	x1, x22, #0x20
    4010549c:	f9003fa1 	str	x1, [x29,#120]
    401054a0:	9102b3a1 	add	x1, x29, #0xac
    401054a4:	f9003ba1 	str	x1, [x29,#112]
    401054a8:	3940001a 	ldrb	w26, [x0]
    401054ac:	91000419 	add	x25, x0, #0x1
    401054b0:	2a1a03fb 	mov	w27, w26
    401054b4:	53047f54 	lsr	w20, w26, #4
    401054b8:	71003e9f 	cmp	w20, #0xf
    401054bc:	54001721 	b.ne	401057a0 <LZ4_decompress_safe+0x394>
    401054c0:	f94047a0 	ldr	x0, [x29,#136]
    401054c4:	eb00033f 	cmp	x25, x0
    401054c8:	54001622 	b.cs	4010578c <LZ4_decompress_safe+0x380>
    401054cc:	52800014 	mov	w20, #0x0                   	// #0
    401054d0:	38401720 	ldrb	w0, [x25],#1
    401054d4:	f94047a1 	ldr	x1, [x29,#136]
    401054d8:	0b000294 	add	w20, w20, w0
    401054dc:	eb19003f 	cmp	x1, x25
    401054e0:	540015c9 	b.ls	40105798 <LZ4_decompress_safe+0x38c>
    401054e4:	7103fc1f 	cmp	w0, #0xff
    401054e8:	54ffff40 	b.eq	401054d0 <LZ4_decompress_safe+0xc4>
    401054ec:	52800000 	mov	w0, #0x0                   	// #0
    401054f0:	91003e94 	add	x20, x20, #0xf
    401054f4:	3100041f 	cmn	w0, #0x1
    401054f8:	540026e0 	b.eq	401059d4 <LZ4_decompress_safe+0x5c8>
    401054fc:	8b130286 	add	x6, x20, x19
    40105500:	eb06027f 	cmp	x19, x6
    40105504:	54002688 	b.hi	401059d4 <LZ4_decompress_safe+0x5c8>
    40105508:	8b190285 	add	x5, x20, x25
    4010550c:	eb05033f 	cmp	x25, x5
    40105510:	54002628 	b.hi	401059d4 <LZ4_decompress_safe+0x5c8>
    40105514:	f9404ba0 	ldr	x0, [x29,#144]
    40105518:	aa0603fc 	mov	x28, x6
    4010551c:	eb06001f 	cmp	x0, x6
    40105520:	54002bc3 	b.cc	40105a98 <LZ4_decompress_safe+0x68c>
    40105524:	f9403fa0 	ldr	x0, [x29,#120]
    40105528:	aa0503f7 	mov	x23, x5
    4010552c:	eb0000bf 	cmp	x5, x0
    40105530:	54002b48 	b.hi	40105a98 <LZ4_decompress_safe+0x68c>
    40105534:	aa1903e1 	mov	x1, x25
    40105538:	f90037a6 	str	x6, [x29,#104]
    4010553c:	d2800202 	mov	x2, #0x10                  	// #16
    40105540:	aa1303e0 	mov	x0, x19
    40105544:	97fff203 	bl	40101d50 <memcpy>
    40105548:	d2800202 	mov	x2, #0x10                  	// #16
    4010554c:	8b020321 	add	x1, x25, x2
    40105550:	8b020260 	add	x0, x19, x2
    40105554:	97fff1ff 	bl	40101d50 <memcpy>
    40105558:	f94037a6 	ldr	x6, [x29,#104]
    4010555c:	91008273 	add	x19, x19, #0x20
    40105560:	91008339 	add	x25, x25, #0x20
    40105564:	eb1300df 	cmp	x6, x19
    40105568:	54fffe68 	b.hi	40105534 <LZ4_decompress_safe+0x128>
    4010556c:	394002e1 	ldrb	w1, [x23]
    40105570:	12000f53 	and	w19, w26, #0xf
    40105574:	394006e0 	ldrb	w0, [x23,#1]
    40105578:	91000af9 	add	x25, x23, #0x2
    4010557c:	71003e7f 	cmp	w19, #0xf
    40105580:	2a002020 	orr	w0, w1, w0, lsl #8
    40105584:	92403c06 	and	x6, x0, #0xffff
    40105588:	cb060397 	sub	x23, x28, x6
    4010558c:	54001221 	b.ne	401057d0 <LZ4_decompress_safe+0x3c4>
    40105590:	eb1702bf 	cmp	x21, x23
    40105594:	54002208 	b.hi	401059d4 <LZ4_decompress_safe+0x5c8>
    40105598:	d10012c2 	sub	x2, x22, #0x4
    4010559c:	52800013 	mov	w19, #0x0                   	// #0
    401055a0:	38401721 	ldrb	w1, [x25],#1
    401055a4:	0b010273 	add	w19, w19, w1
    401055a8:	eb19005f 	cmp	x2, x25
    401055ac:	540010e9 	b.ls	401057c8 <LZ4_decompress_safe+0x3bc>
    401055b0:	7103fc3f 	cmp	w1, #0xff
    401055b4:	54ffff60 	b.eq	401055a0 <LZ4_decompress_safe+0x194>
    401055b8:	52800001 	mov	w1, #0x0                   	// #0
    401055bc:	350020c1 	cbnz	w1, 401059d4 <LZ4_decompress_safe+0x5c8>
    401055c0:	91003f81 	add	x1, x28, #0xf
    401055c4:	8b130021 	add	x1, x1, x19
    401055c8:	eb01039f 	cmp	x28, x1
    401055cc:	54002048 	b.hi	401059d4 <LZ4_decompress_safe+0x5c8>
    401055d0:	91004e7b 	add	x27, x19, #0x13
    401055d4:	d1010301 	sub	x1, x24, #0x40
    401055d8:	8b1b0382 	add	x2, x28, x27
    401055dc:	eb01005f 	cmp	x2, x1
    401055e0:	54002803 	b.cc	40105ae0 <LZ4_decompress_safe+0x6d4>
    401055e4:	8b1b0393 	add	x19, x28, x27
    401055e8:	f1001cdf 	cmp	x6, #0x7
    401055ec:	54001fc8 	b.hi	401059e4 <LZ4_decompress_safe+0x5d8>
    401055f0:	3900039f 	strb	wzr, [x28]
    401055f4:	d2800082 	mov	x2, #0x4                   	// #4
    401055f8:	3900079f 	strb	wzr, [x28,#1]
    401055fc:	39000b9f 	strb	wzr, [x28,#2]
    40105600:	39000f9f 	strb	wzr, [x28,#3]
    40105604:	f90047a6 	str	x6, [x29,#136]
    40105608:	394002e0 	ldrb	w0, [x23]
    4010560c:	39000380 	strb	w0, [x28]
    40105610:	394006e0 	ldrb	w0, [x23,#1]
    40105614:	39000780 	strb	w0, [x28,#1]
    40105618:	39400ae0 	ldrb	w0, [x23,#2]
    4010561c:	39000b80 	strb	w0, [x28,#2]
    40105620:	39400ee0 	ldrb	w0, [x23,#3]
    40105624:	39000f80 	strb	w0, [x28,#3]
    40105628:	d0000020 	adrp	x0, 4010b000 <__func__.4011+0x10>
    4010562c:	911a2000 	add	x0, x0, #0x688
    40105630:	b8667814 	ldr	w20, [x0,x6,lsl #2]
    40105634:	8b020380 	add	x0, x28, x2
    40105638:	8b1402f4 	add	x20, x23, x20
    4010563c:	aa1403e1 	mov	x1, x20
    40105640:	97fff1c4 	bl	40101d50 <memcpy>
    40105644:	f94047a6 	ldr	x6, [x29,#136]
    40105648:	d0000020 	adrp	x0, 4010b000 <__func__.4011+0x10>
    4010564c:	9119a000 	add	x0, x0, #0x668
    40105650:	b8a67800 	ldrsw	x0, [x0,x6,lsl #2]
    40105654:	cb000294 	sub	x20, x20, x0
    40105658:	d1003300 	sub	x0, x24, #0xc
    4010565c:	9100239a 	add	x26, x28, #0x8
    40105660:	eb00027f 	cmp	x19, x0
    40105664:	54001cc9 	b.ls	401059fc <LZ4_decompress_safe+0x5f0>
    40105668:	d1001700 	sub	x0, x24, #0x5
    4010566c:	eb00027f 	cmp	x19, x0
    40105670:	54001b28 	b.hi	401059d4 <LZ4_decompress_safe+0x5c8>
    40105674:	d1001f1b 	sub	x27, x24, #0x7
    40105678:	eb1b035f 	cmp	x26, x27
    4010567c:	540001c2 	b.cs	401056b4 <LZ4_decompress_safe+0x2a8>
    40105680:	aa1403fc 	mov	x28, x20
    40105684:	aa1a03e3 	mov	x3, x26
    40105688:	aa1c03e1 	mov	x1, x28
    4010568c:	aa0303e0 	mov	x0, x3
    40105690:	d2800102 	mov	x2, #0x8                   	// #8
    40105694:	97fff1af 	bl	40101d50 <memcpy>
    40105698:	91002003 	add	x3, x0, #0x8
    4010569c:	9100239c 	add	x28, x28, #0x8
    401056a0:	eb03037f 	cmp	x27, x3
    401056a4:	54ffff28 	b.hi	40105688 <LZ4_decompress_safe+0x27c>
    401056a8:	cb1a037a 	sub	x26, x27, x26
    401056ac:	8b1a0294 	add	x20, x20, x26
    401056b0:	aa1b03fa 	mov	x26, x27
    401056b4:	d2800000 	mov	x0, #0x0                   	// #0
    401056b8:	8b000341 	add	x1, x26, x0
    401056bc:	eb01027f 	cmp	x19, x1
    401056c0:	540000e9 	b.ls	401056dc <LZ4_decompress_safe+0x2d0>
    401056c4:	38606a81 	ldrb	w1, [x20,x0]
    401056c8:	38206b41 	strb	w1, [x26,x0]
    401056cc:	91000400 	add	x0, x0, #0x1
    401056d0:	17fffffa 	b	401056b8 <LZ4_decompress_safe+0x2ac>
    401056d4:	f9404fb9 	ldr	x25, [x29,#152]
    401056d8:	aa0103f3 	mov	x19, x1
    401056dc:	aa1903e0 	mov	x0, x25
    401056e0:	d10042da 	sub	x26, x22, #0x10
    401056e4:	3940001b 	ldrb	w27, [x0]
    401056e8:	91000739 	add	x25, x25, #0x1
    401056ec:	53047f74 	lsr	w20, w27, #4
    401056f0:	71003e9f 	cmp	w20, #0xf
    401056f4:	54001ae0 	b.eq	40105a50 <LZ4_decompress_safe+0x644>
    401056f8:	f9404ba0 	ldr	x0, [x29,#144]
    401056fc:	eb19035f 	cmp	x26, x25
    40105700:	fa538000 	ccmp	x0, x19, #0x0, hi
    40105704:	54001c83 	b.cc	40105a94 <LZ4_decompress_safe+0x688>
    40105708:	aa1903e1 	mov	x1, x25
    4010570c:	d2800202 	mov	x2, #0x10                  	// #16
    40105710:	aa1303e0 	mov	x0, x19
    40105714:	97fff18f 	bl	40101d50 <memcpy>
    40105718:	8b140320 	add	x0, x25, x20
    4010571c:	38746b21 	ldrb	w1, [x25,x20]
    40105720:	92400f7b 	and	x27, x27, #0xf
    40105724:	8b14027c 	add	x28, x19, x20
    40105728:	f1003f7f 	cmp	x27, #0xf
    4010572c:	91000819 	add	x25, x0, #0x2
    40105730:	39400406 	ldrb	w6, [x0,#1]
    40105734:	aa062026 	orr	x6, x1, x6, lsl #8
    40105738:	cb060397 	sub	x23, x28, x6
    4010573c:	fa4718c0 	ccmp	x6, #0x7, #0x0, ne
    40105740:	54001289 	b.ls	40105990 <LZ4_decompress_safe+0x584>
    40105744:	eb1702bf 	cmp	x21, x23
    40105748:	54001408 	b.hi	401059c8 <LZ4_decompress_safe+0x5bc>
    4010574c:	d2800102 	mov	x2, #0x8                   	// #8
    40105750:	aa1703e1 	mov	x1, x23
    40105754:	aa1c03e0 	mov	x0, x28
    40105758:	97fff17e 	bl	40101d50 <memcpy>
    4010575c:	d2800102 	mov	x2, #0x8                   	// #8
    40105760:	8b0202e1 	add	x1, x23, x2
    40105764:	8b020380 	add	x0, x28, x2
    40105768:	97fff17a 	bl	40101d50 <memcpy>
    4010576c:	394042e0 	ldrb	w0, [x23,#16]
    40105770:	91001373 	add	x19, x27, #0x4
    40105774:	39004380 	strb	w0, [x28,#16]
    40105778:	8b130393 	add	x19, x28, x19
    4010577c:	394046e0 	ldrb	w0, [x23,#17]
    40105780:	39004780 	strb	w0, [x28,#17]
    40105784:	aa1903e0 	mov	x0, x25
    40105788:	17ffffd7 	b	401056e4 <LZ4_decompress_safe+0x2d8>
    4010578c:	12800000 	mov	w0, #0xffffffff            	// #-1
    40105790:	d2800014 	mov	x20, #0x0                   	// #0
    40105794:	17ffff57 	b	401054f0 <LZ4_decompress_safe+0xe4>
    40105798:	12800020 	mov	w0, #0xfffffffe            	// #-2
    4010579c:	17ffff55 	b	401054f0 <LZ4_decompress_safe+0xe4>
    401057a0:	f94043a0 	ldr	x0, [x29,#128]
    401057a4:	8b14027c 	add	x28, x19, x20
    401057a8:	eb00033f 	cmp	x25, x0
    401057ac:	54001768 	b.hi	40105a98 <LZ4_decompress_safe+0x68c>
    401057b0:	d2800202 	mov	x2, #0x10                  	// #16
    401057b4:	aa1903e1 	mov	x1, x25
    401057b8:	aa1303e0 	mov	x0, x19
    401057bc:	8b140337 	add	x23, x25, x20
    401057c0:	97fff164 	bl	40101d50 <memcpy>
    401057c4:	17ffff6a 	b	4010556c <LZ4_decompress_safe+0x160>
    401057c8:	12800021 	mov	w1, #0xfffffffe            	// #-2
    401057cc:	17ffff7c 	b	401055bc <LZ4_decompress_safe+0x1b0>
    401057d0:	92401e73 	and	x19, x19, #0xff
    401057d4:	d1010301 	sub	x1, x24, #0x40
    401057d8:	9100127b 	add	x27, x19, #0x4
    401057dc:	8b1b0393 	add	x19, x28, x27
    401057e0:	eb01027f 	cmp	x19, x1
    401057e4:	54000f42 	b.cs	401059cc <LZ4_decompress_safe+0x5c0>
    401057e8:	eb1702bf 	cmp	x21, x23
    401057ec:	54000f48 	b.hi	401059d4 <LZ4_decompress_safe+0x5c8>
    401057f0:	f1001cdf 	cmp	x6, #0x7
    401057f4:	54001769 	b.ls	40105ae0 <LZ4_decompress_safe+0x6d4>
    401057f8:	d2800102 	mov	x2, #0x8                   	// #8
    401057fc:	aa1703e1 	mov	x1, x23
    40105800:	aa1c03e0 	mov	x0, x28
    40105804:	97fff153 	bl	40101d50 <memcpy>
    40105808:	d2800102 	mov	x2, #0x8                   	// #8
    4010580c:	8b0202e1 	add	x1, x23, x2
    40105810:	8b020380 	add	x0, x28, x2
    40105814:	97fff14f 	bl	40101d50 <memcpy>
    40105818:	394042e0 	ldrb	w0, [x23,#16]
    4010581c:	39004380 	strb	w0, [x28,#16]
    40105820:	394046e0 	ldrb	w0, [x23,#17]
    40105824:	39004780 	strb	w0, [x28,#17]
    40105828:	aa1903e0 	mov	x0, x25
    4010582c:	17ffff1f 	b	401054a8 <LZ4_decompress_safe+0x9c>
    40105830:	394006e0 	ldrb	w0, [x23,#1]
    40105834:	394002e1 	ldrb	w1, [x23]
    40105838:	3902a3a1 	strb	w1, [x29,#168]
    4010583c:	3902a7a0 	strb	w0, [x29,#169]
    40105840:	3902aba1 	strb	w1, [x29,#170]
    40105844:	3902afa0 	strb	w0, [x29,#171]
    40105848:	b940aba0 	ldr	w0, [x29,#168]
    4010584c:	b900afa0 	str	w0, [x29,#172]
    40105850:	140000b2 	b	40105b18 <LZ4_decompress_safe+0x70c>
    40105854:	aa1703e1 	mov	x1, x23
    40105858:	d2800082 	mov	x2, #0x4                   	// #4
    4010585c:	9102a3a0 	add	x0, x29, #0xa8
    40105860:	97fff13c 	bl	40101d50 <memcpy>
    40105864:	f9403ba0 	ldr	x0, [x29,#112]
    40105868:	d2800082 	mov	x2, #0x4                   	// #4
    4010586c:	aa1703e1 	mov	x1, x23
    40105870:	97fff138 	bl	40101d50 <memcpy>
    40105874:	140000a9 	b	40105b18 <LZ4_decompress_safe+0x70c>
    40105878:	f1001cdf 	cmp	x6, #0x7
    4010587c:	54000488 	b.hi	4010590c <LZ4_decompress_safe+0x500>
    40105880:	3900039f 	strb	wzr, [x28]
    40105884:	d2800082 	mov	x2, #0x4                   	// #4
    40105888:	3900079f 	strb	wzr, [x28,#1]
    4010588c:	39000b9f 	strb	wzr, [x28,#2]
    40105890:	39000f9f 	strb	wzr, [x28,#3]
    40105894:	f90037a6 	str	x6, [x29,#104]
    40105898:	394002e0 	ldrb	w0, [x23]
    4010589c:	39000380 	strb	w0, [x28]
    401058a0:	394006e0 	ldrb	w0, [x23,#1]
    401058a4:	39000780 	strb	w0, [x28,#1]
    401058a8:	39400ae0 	ldrb	w0, [x23,#2]
    401058ac:	39000b80 	strb	w0, [x28,#2]
    401058b0:	39400ee0 	ldrb	w0, [x23,#3]
    401058b4:	39000f80 	strb	w0, [x28,#3]
    401058b8:	d0000020 	adrp	x0, 4010b000 <__func__.4011+0x10>
    401058bc:	911a2000 	add	x0, x0, #0x688
    401058c0:	b8667805 	ldr	w5, [x0,x6,lsl #2]
    401058c4:	8b020380 	add	x0, x28, x2
    401058c8:	8b0502f7 	add	x23, x23, x5
    401058cc:	aa1703e1 	mov	x1, x23
    401058d0:	97fff120 	bl	40101d50 <memcpy>
    401058d4:	f94037a6 	ldr	x6, [x29,#104]
    401058d8:	d0000020 	adrp	x0, 4010b000 <__func__.4011+0x10>
    401058dc:	9119a000 	add	x0, x0, #0x668
    401058e0:	b8a67803 	ldrsw	x3, [x0,x6,lsl #2]
    401058e4:	cb0302f7 	sub	x23, x23, x3
    401058e8:	aa1703e1 	mov	x1, x23
    401058ec:	aa1403e0 	mov	x0, x20
    401058f0:	d2800102 	mov	x2, #0x8                   	// #8
    401058f4:	91002294 	add	x20, x20, #0x8
    401058f8:	97fff116 	bl	40101d50 <memcpy>
    401058fc:	910022f7 	add	x23, x23, #0x8
    40105900:	eb14027f 	cmp	x19, x20
    40105904:	54ffff28 	b.hi	401058e8 <LZ4_decompress_safe+0x4dc>
    40105908:	17ffffc8 	b	40105828 <LZ4_decompress_safe+0x41c>
    4010590c:	aa1703e1 	mov	x1, x23
    40105910:	d2800102 	mov	x2, #0x8                   	// #8
    40105914:	aa1c03e0 	mov	x0, x28
    40105918:	910022f7 	add	x23, x23, #0x8
    4010591c:	97fff10d 	bl	40101d50 <memcpy>
    40105920:	17fffff2 	b	401058e8 <LZ4_decompress_safe+0x4dc>
    40105924:	aa1703e1 	mov	x1, x23
    40105928:	d2800202 	mov	x2, #0x10                  	// #16
    4010592c:	aa1c03e0 	mov	x0, x28
    40105930:	97fff108 	bl	40101d50 <memcpy>
    40105934:	d2800202 	mov	x2, #0x10                  	// #16
    40105938:	8b0202e1 	add	x1, x23, x2
    4010593c:	8b020380 	add	x0, x28, x2
    40105940:	9100839c 	add	x28, x28, #0x20
    40105944:	97fff103 	bl	40101d50 <memcpy>
    40105948:	910082f7 	add	x23, x23, #0x20
    4010594c:	eb1c027f 	cmp	x19, x28
    40105950:	54fffea8 	b.hi	40105924 <LZ4_decompress_safe+0x518>
    40105954:	17ffffb5 	b	40105828 <LZ4_decompress_safe+0x41c>
    40105958:	aa1903e1 	mov	x1, x25
    4010595c:	aa1303e0 	mov	x0, x19
    40105960:	d2800102 	mov	x2, #0x8                   	// #8
    40105964:	91002273 	add	x19, x19, #0x8
    40105968:	97fff0fa 	bl	40101d50 <memcpy>
    4010596c:	91002339 	add	x25, x25, #0x8
    40105970:	eb13039f 	cmp	x28, x19
    40105974:	54ffff28 	b.hi	40105958 <LZ4_decompress_safe+0x54c>
    40105978:	39400340 	ldrb	w0, [x26]
    4010597c:	91000b59 	add	x25, x26, #0x2
    40105980:	39400746 	ldrb	w6, [x26,#1]
    40105984:	92400f7b 	and	x27, x27, #0xf
    40105988:	aa062006 	orr	x6, x0, x6, lsl #8
    4010598c:	cb060397 	sub	x23, x28, x6
    40105990:	f1003f7f 	cmp	x27, #0xf
    40105994:	540001a1 	b.ne	401059c8 <LZ4_decompress_safe+0x5bc>
    40105998:	d10012c1 	sub	x1, x22, #0x4
    4010599c:	52800013 	mov	w19, #0x0                   	// #0
    401059a0:	38401720 	ldrb	w0, [x25],#1
    401059a4:	0b000273 	add	w19, w19, w0
    401059a8:	eb19003f 	cmp	x1, x25
    401059ac:	54000149 	b.ls	401059d4 <LZ4_decompress_safe+0x5c8>
    401059b0:	7103fc1f 	cmp	w0, #0xff
    401059b4:	54ffff60 	b.eq	401059a0 <LZ4_decompress_safe+0x594>
    401059b8:	91003e7b 	add	x27, x19, #0xf
    401059bc:	8b1c0360 	add	x0, x27, x28
    401059c0:	eb00039f 	cmp	x28, x0
    401059c4:	54000088 	b.hi	401059d4 <LZ4_decompress_safe+0x5c8>
    401059c8:	9100137b 	add	x27, x27, #0x4
    401059cc:	eb1702bf 	cmp	x21, x23
    401059d0:	54ffe0a9 	b.ls	401055e4 <LZ4_decompress_safe+0x1d8>
    401059d4:	f9404fa0 	ldr	x0, [x29,#152]
    401059d8:	cb000320 	sub	x0, x25, x0
    401059dc:	2a2003e0 	mvn	w0, w0
    401059e0:	17fffe9d 	b	40105454 <LZ4_decompress_safe+0x48>
    401059e4:	d2800102 	mov	x2, #0x8                   	// #8
    401059e8:	aa1703e1 	mov	x1, x23
    401059ec:	aa1c03e0 	mov	x0, x28
    401059f0:	910022f4 	add	x20, x23, #0x8
    401059f4:	97fff0d7 	bl	40101d50 <memcpy>
    401059f8:	17ffff18 	b	40105658 <LZ4_decompress_safe+0x24c>
    401059fc:	d2800102 	mov	x2, #0x8                   	// #8
    40105a00:	aa1403e1 	mov	x1, x20
    40105a04:	aa1a03e0 	mov	x0, x26
    40105a08:	97fff0d2 	bl	40101d50 <memcpy>
    40105a0c:	f100437f 	cmp	x27, #0x10
    40105a10:	54ffe669 	b.ls	401056dc <LZ4_decompress_safe+0x2d0>
    40105a14:	9100439c 	add	x28, x28, #0x10
    40105a18:	91002294 	add	x20, x20, #0x8
    40105a1c:	aa1403e1 	mov	x1, x20
    40105a20:	aa1c03e0 	mov	x0, x28
    40105a24:	d2800102 	mov	x2, #0x8                   	// #8
    40105a28:	9100239c 	add	x28, x28, #0x8
    40105a2c:	97fff0c9 	bl	40101d50 <memcpy>
    40105a30:	91002294 	add	x20, x20, #0x8
    40105a34:	eb1c027f 	cmp	x19, x28
    40105a38:	54ffff28 	b.hi	40105a1c <LZ4_decompress_safe+0x610>
    40105a3c:	17ffff28 	b	401056dc <LZ4_decompress_safe+0x2d0>
    40105a40:	12800000 	mov	w0, #0xffffffff            	// #-1
    40105a44:	d65f03c0 	ret
    40105a48:	12800000 	mov	w0, #0xffffffff            	// #-1
    40105a4c:	17fffe82 	b	40105454 <LZ4_decompress_safe+0x48>
    40105a50:	d1003ec0 	sub	x0, x22, #0xf
    40105a54:	eb00033f 	cmp	x25, x0
    40105a58:	54fffbe2 	b.cs	401059d4 <LZ4_decompress_safe+0x5c8>
    40105a5c:	52800014 	mov	w20, #0x0                   	// #0
    40105a60:	38401721 	ldrb	w1, [x25],#1
    40105a64:	0b010294 	add	w20, w20, w1
    40105a68:	eb19001f 	cmp	x0, x25
    40105a6c:	54000069 	b.ls	40105a78 <LZ4_decompress_safe+0x66c>
    40105a70:	7103fc3f 	cmp	w1, #0xff
    40105a74:	54ffff60 	b.eq	40105a60 <LZ4_decompress_safe+0x654>
    40105a78:	91003e94 	add	x20, x20, #0xf
    40105a7c:	8b130280 	add	x0, x20, x19
    40105a80:	eb00027f 	cmp	x19, x0
    40105a84:	54fffa88 	b.hi	401059d4 <LZ4_decompress_safe+0x5c8>
    40105a88:	8b190280 	add	x0, x20, x25
    40105a8c:	eb00033f 	cmp	x25, x0
    40105a90:	54fffa28 	b.hi	401059d4 <LZ4_decompress_safe+0x5c8>
    40105a94:	8b14027c 	add	x28, x19, x20
    40105a98:	d1003300 	sub	x0, x24, #0xc
    40105a9c:	8b19029a 	add	x26, x20, x25
    40105aa0:	eb00039f 	cmp	x28, x0
    40105aa4:	54000088 	b.hi	40105ab4 <LZ4_decompress_safe+0x6a8>
    40105aa8:	d10022c0 	sub	x0, x22, #0x8
    40105aac:	eb00035f 	cmp	x26, x0
    40105ab0:	54fff549 	b.ls	40105958 <LZ4_decompress_safe+0x54c>
    40105ab4:	eb1a02df 	cmp	x22, x26
    40105ab8:	54fff8e1 	b.ne	401059d4 <LZ4_decompress_safe+0x5c8>
    40105abc:	eb1c031f 	cmp	x24, x28
    40105ac0:	54fff8a3 	b.cc	401059d4 <LZ4_decompress_safe+0x5c8>
    40105ac4:	aa1303e0 	mov	x0, x19
    40105ac8:	aa1403e2 	mov	x2, x20
    40105acc:	aa1903e1 	mov	x1, x25
    40105ad0:	8b140273 	add	x19, x19, x20
    40105ad4:	97fff0c4 	bl	40101de4 <memmove>
    40105ad8:	4b150260 	sub	w0, w19, w21
    40105adc:	17fffe5e 	b	40105454 <LZ4_decompress_safe+0x48>
    40105ae0:	8b1b0393 	add	x19, x28, x27
    40105ae4:	f1003cdf 	cmp	x6, #0xf
    40105ae8:	54fff1e8 	b.hi	40105924 <LZ4_decompress_safe+0x518>
    40105aec:	7100081f 	cmp	w0, #0x2
    40105af0:	91002394 	add	x20, x28, #0x8
    40105af4:	54ffe9e0 	b.eq	40105830 <LZ4_decompress_safe+0x424>
    40105af8:	7100101f 	cmp	w0, #0x4
    40105afc:	54ffeac0 	b.eq	40105854 <LZ4_decompress_safe+0x448>
    40105b00:	7100041f 	cmp	w0, #0x1
    40105b04:	54ffeba1 	b.ne	40105878 <LZ4_decompress_safe+0x46c>
    40105b08:	394002e1 	ldrb	w1, [x23]
    40105b0c:	d2800102 	mov	x2, #0x8                   	// #8
    40105b10:	9102a3a0 	add	x0, x29, #0xa8
    40105b14:	97fff070 	bl	40101cd4 <memset>
    40105b18:	d2800102 	mov	x2, #0x8                   	// #8
    40105b1c:	9102a3a1 	add	x1, x29, #0xa8
    40105b20:	aa1c03e0 	mov	x0, x28
    40105b24:	97fff08b 	bl	40101d50 <memcpy>
    40105b28:	eb14027f 	cmp	x19, x20
    40105b2c:	54ffe7e9 	b.ls	40105828 <LZ4_decompress_safe+0x41c>
    40105b30:	aa1403e0 	mov	x0, x20
    40105b34:	d2800102 	mov	x2, #0x8                   	// #8
    40105b38:	9102a3a1 	add	x1, x29, #0xa8
    40105b3c:	91002294 	add	x20, x20, #0x8
    40105b40:	97fff084 	bl	40101d50 <memcpy>
    40105b44:	17fffff9 	b	40105b28 <LZ4_decompress_safe+0x71c>

0000000040105b48 <LZ4_decompress_safe_withPrefix64k>:
    40105b48:	b40035e0 	cbz	x0, 40106204 <LZ4_decompress_safe_withPrefix64k+0x6bc>
    40105b4c:	a9b57bfd 	stp	x29, x30, [sp,#-176]!
    40105b50:	910003fd 	mov	x29, sp
    40105b54:	a9025bf5 	stp	x21, x22, [sp,#32]
    40105b58:	8b23c036 	add	x22, x1, w3, sxtw
    40105b5c:	d10082c4 	sub	x4, x22, #0x20
    40105b60:	a90153f3 	stp	x19, x20, [sp,#16]
    40105b64:	a90363f7 	stp	x23, x24, [sp,#48]
    40105b68:	8b22c015 	add	x21, x0, w2, sxtw
    40105b6c:	a9046bf9 	stp	x25, x26, [sp,#64]
    40105b70:	a90573fb 	stp	x27, x28, [sp,#80]
    40105b74:	f9004ba4 	str	x4, [x29,#144]
    40105b78:	350001a3 	cbnz	w3, 40105bac <LZ4_decompress_safe_withPrefix64k+0x64>
    40105b7c:	7100045f 	cmp	w2, #0x1
    40105b80:	54003461 	b.ne	4010620c <LZ4_decompress_safe_withPrefix64k+0x6c4>
    40105b84:	39400000 	ldrb	w0, [x0]
    40105b88:	7100001f 	cmp	w0, #0x0
    40105b8c:	5a9f03e0 	csetm	w0, ne
    40105b90:	a94153f3 	ldp	x19, x20, [sp,#16]
    40105b94:	a9425bf5 	ldp	x21, x22, [sp,#32]
    40105b98:	a94363f7 	ldp	x23, x24, [sp,#48]
    40105b9c:	a9446bf9 	ldp	x25, x26, [sp,#64]
    40105ba0:	a94573fb 	ldp	x27, x28, [sp,#80]
    40105ba4:	a8cb7bfd 	ldp	x29, x30, [sp],#176
    40105ba8:	d65f03c0 	ret
    40105bac:	34003302 	cbz	w2, 4010620c <LZ4_decompress_safe_withPrefix64k+0x6c4>
    40105bb0:	f9004fa0 	str	x0, [x29,#152]
    40105bb4:	d1404039 	sub	x25, x1, #0x10, lsl #12
    40105bb8:	aa0103f8 	mov	x24, x1
    40105bbc:	7100fc7f 	cmp	w3, #0x3f
    40105bc0:	540012cd 	b.le	40105e18 <LZ4_decompress_safe_withPrefix64k+0x2d0>
    40105bc4:	aa0103f3 	mov	x19, x1
    40105bc8:	d10046a1 	sub	x1, x21, #0x11
    40105bcc:	f90043a1 	str	x1, [x29,#128]
    40105bd0:	d1003ea1 	sub	x1, x21, #0xf
    40105bd4:	f90047a1 	str	x1, [x29,#136]
    40105bd8:	d10082a1 	sub	x1, x21, #0x20
    40105bdc:	f9003fa1 	str	x1, [x29,#120]
    40105be0:	9102b3a1 	add	x1, x29, #0xac
    40105be4:	f9003ba1 	str	x1, [x29,#112]
    40105be8:	39400007 	ldrb	w7, [x0]
    40105bec:	9100041a 	add	x26, x0, #0x1
    40105bf0:	2a0703fc 	mov	w28, w7
    40105bf4:	53047ce4 	lsr	w4, w7, #4
    40105bf8:	71003c9f 	cmp	w4, #0xf
    40105bfc:	54001701 	b.ne	40105edc <LZ4_decompress_safe_withPrefix64k+0x394>
    40105c00:	f94047a0 	ldr	x0, [x29,#136]
    40105c04:	eb00035f 	cmp	x26, x0
    40105c08:	54001602 	b.cs	40105ec8 <LZ4_decompress_safe_withPrefix64k+0x380>
    40105c0c:	52800004 	mov	w4, #0x0                   	// #0
    40105c10:	38401740 	ldrb	w0, [x26],#1
    40105c14:	f94047a1 	ldr	x1, [x29,#136]
    40105c18:	0b000084 	add	w4, w4, w0
    40105c1c:	eb1a003f 	cmp	x1, x26
    40105c20:	540015a9 	b.ls	40105ed4 <LZ4_decompress_safe_withPrefix64k+0x38c>
    40105c24:	7103fc1f 	cmp	w0, #0xff
    40105c28:	54ffff40 	b.eq	40105c10 <LZ4_decompress_safe_withPrefix64k+0xc8>
    40105c2c:	52800000 	mov	w0, #0x0                   	// #0
    40105c30:	91003c9b 	add	x27, x4, #0xf
    40105c34:	3100041f 	cmn	w0, #0x1
    40105c38:	54002b00 	b.eq	40106198 <LZ4_decompress_safe_withPrefix64k+0x650>
    40105c3c:	8b130366 	add	x6, x27, x19
    40105c40:	eb06027f 	cmp	x19, x6
    40105c44:	54002aa8 	b.hi	40106198 <LZ4_decompress_safe_withPrefix64k+0x650>
    40105c48:	8b1a0374 	add	x20, x27, x26
    40105c4c:	eb14035f 	cmp	x26, x20
    40105c50:	54002a48 	b.hi	40106198 <LZ4_decompress_safe_withPrefix64k+0x650>
    40105c54:	f9404ba0 	ldr	x0, [x29,#144]
    40105c58:	aa0603f7 	mov	x23, x6
    40105c5c:	eb06001f 	cmp	x0, x6
    40105c60:	54003043 	b.cc	40106268 <LZ4_decompress_safe_withPrefix64k+0x720>
    40105c64:	f9403fa0 	ldr	x0, [x29,#120]
    40105c68:	eb00029f 	cmp	x20, x0
    40105c6c:	54002fe8 	b.hi	40106268 <LZ4_decompress_safe_withPrefix64k+0x720>
    40105c70:	aa1a03e1 	mov	x1, x26
    40105c74:	f90033a6 	str	x6, [x29,#96]
    40105c78:	b9006ba7 	str	w7, [x29,#104]
    40105c7c:	d2800202 	mov	x2, #0x10                  	// #16
    40105c80:	aa1303e0 	mov	x0, x19
    40105c84:	97fff033 	bl	40101d50 <memcpy>
    40105c88:	d2800202 	mov	x2, #0x10                  	// #16
    40105c8c:	8b020341 	add	x1, x26, x2
    40105c90:	8b020260 	add	x0, x19, x2
    40105c94:	97fff02f 	bl	40101d50 <memcpy>
    40105c98:	f94033a6 	ldr	x6, [x29,#96]
    40105c9c:	91008273 	add	x19, x19, #0x20
    40105ca0:	9100835a 	add	x26, x26, #0x20
    40105ca4:	b9406ba7 	ldr	w7, [x29,#104]
    40105ca8:	eb1300df 	cmp	x6, x19
    40105cac:	54fffe28 	b.hi	40105c70 <LZ4_decompress_safe_withPrefix64k+0x128>
    40105cb0:	39400281 	ldrb	w1, [x20]
    40105cb4:	12000cf3 	and	w19, w7, #0xf
    40105cb8:	39400680 	ldrb	w0, [x20,#1]
    40105cbc:	91000a9a 	add	x26, x20, #0x2
    40105cc0:	71003e7f 	cmp	w19, #0xf
    40105cc4:	2a002020 	orr	w0, w1, w0, lsl #8
    40105cc8:	92403c06 	and	x6, x0, #0xffff
    40105ccc:	cb0602fb 	sub	x27, x23, x6
    40105cd0:	54001241 	b.ne	40105f18 <LZ4_decompress_safe_withPrefix64k+0x3d0>
    40105cd4:	eb1b033f 	cmp	x25, x27
    40105cd8:	54002608 	b.hi	40106198 <LZ4_decompress_safe_withPrefix64k+0x650>
    40105cdc:	d10012a2 	sub	x2, x21, #0x4
    40105ce0:	52800013 	mov	w19, #0x0                   	// #0
    40105ce4:	38401741 	ldrb	w1, [x26],#1
    40105ce8:	0b010273 	add	w19, w19, w1
    40105cec:	eb1a005f 	cmp	x2, x26
    40105cf0:	54001109 	b.ls	40105f10 <LZ4_decompress_safe_withPrefix64k+0x3c8>
    40105cf4:	7103fc3f 	cmp	w1, #0xff
    40105cf8:	54ffff60 	b.eq	40105ce4 <LZ4_decompress_safe_withPrefix64k+0x19c>
    40105cfc:	52800001 	mov	w1, #0x0                   	// #0
    40105d00:	350024c1 	cbnz	w1, 40106198 <LZ4_decompress_safe_withPrefix64k+0x650>
    40105d04:	91003ee1 	add	x1, x23, #0xf
    40105d08:	8b130021 	add	x1, x1, x19
    40105d0c:	eb0102ff 	cmp	x23, x1
    40105d10:	54002448 	b.hi	40106198 <LZ4_decompress_safe_withPrefix64k+0x650>
    40105d14:	91004e7c 	add	x28, x19, #0x13
    40105d18:	d10102c1 	sub	x1, x22, #0x40
    40105d1c:	8b1c02e2 	add	x2, x23, x28
    40105d20:	eb01005f 	cmp	x2, x1
    40105d24:	540012a3 	b.cc	40105f78 <LZ4_decompress_safe_withPrefix64k+0x430>
    40105d28:	8b1c02f3 	add	x19, x23, x28
    40105d2c:	f1001cdf 	cmp	x6, #0x7
    40105d30:	540023c8 	b.hi	401061a8 <LZ4_decompress_safe_withPrefix64k+0x660>
    40105d34:	390002ff 	strb	wzr, [x23]
    40105d38:	d2800082 	mov	x2, #0x4                   	// #4
    40105d3c:	390006ff 	strb	wzr, [x23,#1]
    40105d40:	39000aff 	strb	wzr, [x23,#2]
    40105d44:	39000eff 	strb	wzr, [x23,#3]
    40105d48:	f90047a6 	str	x6, [x29,#136]
    40105d4c:	39400360 	ldrb	w0, [x27]
    40105d50:	390002e0 	strb	w0, [x23]
    40105d54:	39400760 	ldrb	w0, [x27,#1]
    40105d58:	390006e0 	strb	w0, [x23,#1]
    40105d5c:	39400b60 	ldrb	w0, [x27,#2]
    40105d60:	39000ae0 	strb	w0, [x23,#2]
    40105d64:	39400f60 	ldrb	w0, [x27,#3]
    40105d68:	39000ee0 	strb	w0, [x23,#3]
    40105d6c:	d0000020 	adrp	x0, 4010b000 <__func__.4011+0x10>
    40105d70:	911a2000 	add	x0, x0, #0x688
    40105d74:	b8667814 	ldr	w20, [x0,x6,lsl #2]
    40105d78:	8b0202e0 	add	x0, x23, x2
    40105d7c:	8b140374 	add	x20, x27, x20
    40105d80:	aa1403e1 	mov	x1, x20
    40105d84:	97ffeff3 	bl	40101d50 <memcpy>
    40105d88:	f94047a6 	ldr	x6, [x29,#136]
    40105d8c:	d0000020 	adrp	x0, 4010b000 <__func__.4011+0x10>
    40105d90:	9119a000 	add	x0, x0, #0x668
    40105d94:	b8a67804 	ldrsw	x4, [x0,x6,lsl #2]
    40105d98:	cb040294 	sub	x20, x20, x4
    40105d9c:	d10032c0 	sub	x0, x22, #0xc
    40105da0:	910022fb 	add	x27, x23, #0x8
    40105da4:	eb00027f 	cmp	x19, x0
    40105da8:	540020c9 	b.ls	401061c0 <LZ4_decompress_safe_withPrefix64k+0x678>
    40105dac:	d10016c0 	sub	x0, x22, #0x5
    40105db0:	eb00027f 	cmp	x19, x0
    40105db4:	54001f28 	b.hi	40106198 <LZ4_decompress_safe_withPrefix64k+0x650>
    40105db8:	d1001edc 	sub	x28, x22, #0x7
    40105dbc:	eb1c037f 	cmp	x27, x28
    40105dc0:	540001c2 	b.cs	40105df8 <LZ4_decompress_safe_withPrefix64k+0x2b0>
    40105dc4:	aa1403f7 	mov	x23, x20
    40105dc8:	aa1b03e3 	mov	x3, x27
    40105dcc:	aa1703e1 	mov	x1, x23
    40105dd0:	aa0303e0 	mov	x0, x3
    40105dd4:	d2800102 	mov	x2, #0x8                   	// #8
    40105dd8:	97ffefde 	bl	40101d50 <memcpy>
    40105ddc:	91002003 	add	x3, x0, #0x8
    40105de0:	910022f7 	add	x23, x23, #0x8
    40105de4:	eb03039f 	cmp	x28, x3
    40105de8:	54ffff28 	b.hi	40105dcc <LZ4_decompress_safe_withPrefix64k+0x284>
    40105dec:	cb1b039b 	sub	x27, x28, x27
    40105df0:	8b1b0294 	add	x20, x20, x27
    40105df4:	aa1c03fb 	mov	x27, x28
    40105df8:	d2800000 	mov	x0, #0x0                   	// #0
    40105dfc:	8b000361 	add	x1, x27, x0
    40105e00:	eb01027f 	cmp	x19, x1
    40105e04:	540000e9 	b.ls	40105e20 <LZ4_decompress_safe_withPrefix64k+0x2d8>
    40105e08:	38606a81 	ldrb	w1, [x20,x0]
    40105e0c:	38206b61 	strb	w1, [x27,x0]
    40105e10:	91000400 	add	x0, x0, #0x1
    40105e14:	17fffffa 	b	40105dfc <LZ4_decompress_safe_withPrefix64k+0x2b4>
    40105e18:	f9404fba 	ldr	x26, [x29,#152]
    40105e1c:	aa0103f3 	mov	x19, x1
    40105e20:	aa1a03e0 	mov	x0, x26
    40105e24:	d10042b4 	sub	x20, x21, #0x10
    40105e28:	3940001c 	ldrb	w28, [x0]
    40105e2c:	9100075a 	add	x26, x26, #0x1
    40105e30:	53047f9b 	lsr	w27, w28, #4
    40105e34:	71003f7f 	cmp	w27, #0xf
    40105e38:	54001ee0 	b.eq	40106214 <LZ4_decompress_safe_withPrefix64k+0x6cc>
    40105e3c:	f9404ba0 	ldr	x0, [x29,#144]
    40105e40:	eb1a029f 	cmp	x20, x26
    40105e44:	fa538000 	ccmp	x0, x19, #0x0, hi
    40105e48:	540020e3 	b.cc	40106264 <LZ4_decompress_safe_withPrefix64k+0x71c>
    40105e4c:	aa1a03e1 	mov	x1, x26
    40105e50:	d2800202 	mov	x2, #0x10                  	// #16
    40105e54:	aa1303e0 	mov	x0, x19
    40105e58:	97ffefbe 	bl	40101d50 <memcpy>
    40105e5c:	8b1b0340 	add	x0, x26, x27
    40105e60:	387b6b41 	ldrb	w1, [x26,x27]
    40105e64:	92400f9c 	and	x28, x28, #0xf
    40105e68:	8b1b0277 	add	x23, x19, x27
    40105e6c:	f1003f9f 	cmp	x28, #0xf
    40105e70:	9100081a 	add	x26, x0, #0x2
    40105e74:	39400406 	ldrb	w6, [x0,#1]
    40105e78:	aa062026 	orr	x6, x1, x6, lsl #8
    40105e7c:	cb0602fb 	sub	x27, x23, x6
    40105e80:	fa4718c0 	ccmp	x6, #0x7, #0x0, ne
    40105e84:	54001689 	b.ls	40106154 <LZ4_decompress_safe_withPrefix64k+0x60c>
    40105e88:	d2800102 	mov	x2, #0x8                   	// #8
    40105e8c:	aa1b03e1 	mov	x1, x27
    40105e90:	aa1703e0 	mov	x0, x23
    40105e94:	97ffefaf 	bl	40101d50 <memcpy>
    40105e98:	d2800102 	mov	x2, #0x8                   	// #8
    40105e9c:	8b020361 	add	x1, x27, x2
    40105ea0:	8b0202e0 	add	x0, x23, x2
    40105ea4:	97ffefab 	bl	40101d50 <memcpy>
    40105ea8:	39404360 	ldrb	w0, [x27,#16]
    40105eac:	91001393 	add	x19, x28, #0x4
    40105eb0:	390042e0 	strb	w0, [x23,#16]
    40105eb4:	8b1302f3 	add	x19, x23, x19
    40105eb8:	39404760 	ldrb	w0, [x27,#17]
    40105ebc:	390046e0 	strb	w0, [x23,#17]
    40105ec0:	aa1a03e0 	mov	x0, x26
    40105ec4:	17ffffd9 	b	40105e28 <LZ4_decompress_safe_withPrefix64k+0x2e0>
    40105ec8:	12800000 	mov	w0, #0xffffffff            	// #-1
    40105ecc:	d2800004 	mov	x4, #0x0                   	// #0
    40105ed0:	17ffff58 	b	40105c30 <LZ4_decompress_safe_withPrefix64k+0xe8>
    40105ed4:	12800020 	mov	w0, #0xfffffffe            	// #-2
    40105ed8:	17ffff56 	b	40105c30 <LZ4_decompress_safe_withPrefix64k+0xe8>
    40105edc:	f94043a0 	ldr	x0, [x29,#128]
    40105ee0:	2a0403fb 	mov	w27, w4
    40105ee4:	b9006ba7 	str	w7, [x29,#104]
    40105ee8:	8b1b0277 	add	x23, x19, x27
    40105eec:	eb00035f 	cmp	x26, x0
    40105ef0:	54001bc8 	b.hi	40106268 <LZ4_decompress_safe_withPrefix64k+0x720>
    40105ef4:	d2800202 	mov	x2, #0x10                  	// #16
    40105ef8:	aa1a03e1 	mov	x1, x26
    40105efc:	aa1303e0 	mov	x0, x19
    40105f00:	97ffef94 	bl	40101d50 <memcpy>
    40105f04:	8b1b0354 	add	x20, x26, x27
    40105f08:	b9406ba7 	ldr	w7, [x29,#104]
    40105f0c:	17ffff69 	b	40105cb0 <LZ4_decompress_safe_withPrefix64k+0x168>
    40105f10:	12800021 	mov	w1, #0xfffffffe            	// #-2
    40105f14:	17ffff7b 	b	40105d00 <LZ4_decompress_safe_withPrefix64k+0x1b8>
    40105f18:	92401e73 	and	x19, x19, #0xff
    40105f1c:	d10102c1 	sub	x1, x22, #0x40
    40105f20:	9100127c 	add	x28, x19, #0x4
    40105f24:	8b1c02f3 	add	x19, x23, x28
    40105f28:	eb01027f 	cmp	x19, x1
    40105f2c:	54001322 	b.cs	40106190 <LZ4_decompress_safe_withPrefix64k+0x648>
    40105f30:	f1001cdf 	cmp	x6, #0x7
    40105f34:	540001e9 	b.ls	40105f70 <LZ4_decompress_safe_withPrefix64k+0x428>
    40105f38:	d2800102 	mov	x2, #0x8                   	// #8
    40105f3c:	aa1b03e1 	mov	x1, x27
    40105f40:	aa1703e0 	mov	x0, x23
    40105f44:	97ffef83 	bl	40101d50 <memcpy>
    40105f48:	d2800102 	mov	x2, #0x8                   	// #8
    40105f4c:	8b020361 	add	x1, x27, x2
    40105f50:	8b0202e0 	add	x0, x23, x2
    40105f54:	97ffef7f 	bl	40101d50 <memcpy>
    40105f58:	39404360 	ldrb	w0, [x27,#16]
    40105f5c:	390042e0 	strb	w0, [x23,#16]
    40105f60:	39404760 	ldrb	w0, [x27,#17]
    40105f64:	390046e0 	strb	w0, [x23,#17]
    40105f68:	aa1a03e0 	mov	x0, x26
    40105f6c:	17ffff1f 	b	40105be8 <LZ4_decompress_safe_withPrefix64k+0xa0>
    40105f70:	eb1b033f 	cmp	x25, x27
    40105f74:	54001128 	b.hi	40106198 <LZ4_decompress_safe_withPrefix64k+0x650>
    40105f78:	8b1c02f3 	add	x19, x23, x28
    40105f7c:	f1003cdf 	cmp	x6, #0xf
    40105f80:	54000aa8 	b.hi	401060d4 <LZ4_decompress_safe_withPrefix64k+0x58c>
    40105f84:	7100081f 	cmp	w0, #0x2
    40105f88:	910022f4 	add	x20, x23, #0x8
    40105f8c:	540002a0 	b.eq	40105fe0 <LZ4_decompress_safe_withPrefix64k+0x498>
    40105f90:	7100101f 	cmp	w0, #0x4
    40105f94:	54000380 	b.eq	40106004 <LZ4_decompress_safe_withPrefix64k+0x4bc>
    40105f98:	7100041f 	cmp	w0, #0x1
    40105f9c:	54000461 	b.ne	40106028 <LZ4_decompress_safe_withPrefix64k+0x4e0>
    40105fa0:	39400361 	ldrb	w1, [x27]
    40105fa4:	d2800102 	mov	x2, #0x8                   	// #8
    40105fa8:	9102a3a0 	add	x0, x29, #0xa8
    40105fac:	97ffef4a 	bl	40101cd4 <memset>
    40105fb0:	d2800102 	mov	x2, #0x8                   	// #8
    40105fb4:	9102a3a1 	add	x1, x29, #0xa8
    40105fb8:	aa1703e0 	mov	x0, x23
    40105fbc:	97ffef65 	bl	40101d50 <memcpy>
    40105fc0:	eb14027f 	cmp	x19, x20
    40105fc4:	54fffd29 	b.ls	40105f68 <LZ4_decompress_safe_withPrefix64k+0x420>
    40105fc8:	aa1403e0 	mov	x0, x20
    40105fcc:	d2800102 	mov	x2, #0x8                   	// #8
    40105fd0:	9102a3a1 	add	x1, x29, #0xa8
    40105fd4:	91002294 	add	x20, x20, #0x8
    40105fd8:	97ffef5e 	bl	40101d50 <memcpy>
    40105fdc:	17fffff9 	b	40105fc0 <LZ4_decompress_safe_withPrefix64k+0x478>
    40105fe0:	39400760 	ldrb	w0, [x27,#1]
    40105fe4:	39400361 	ldrb	w1, [x27]
    40105fe8:	3902a3a1 	strb	w1, [x29,#168]
    40105fec:	3902a7a0 	strb	w0, [x29,#169]
    40105ff0:	3902aba1 	strb	w1, [x29,#170]
    40105ff4:	3902afa0 	strb	w0, [x29,#171]
    40105ff8:	b940aba0 	ldr	w0, [x29,#168]
    40105ffc:	b900afa0 	str	w0, [x29,#172]
    40106000:	17ffffec 	b	40105fb0 <LZ4_decompress_safe_withPrefix64k+0x468>
    40106004:	aa1b03e1 	mov	x1, x27
    40106008:	d2800082 	mov	x2, #0x4                   	// #4
    4010600c:	9102a3a0 	add	x0, x29, #0xa8
    40106010:	97ffef50 	bl	40101d50 <memcpy>
    40106014:	f9403ba0 	ldr	x0, [x29,#112]
    40106018:	d2800082 	mov	x2, #0x4                   	// #4
    4010601c:	aa1b03e1 	mov	x1, x27
    40106020:	97ffef4c 	bl	40101d50 <memcpy>
    40106024:	17ffffe3 	b	40105fb0 <LZ4_decompress_safe_withPrefix64k+0x468>
    40106028:	f1001cdf 	cmp	x6, #0x7
    4010602c:	54000488 	b.hi	401060bc <LZ4_decompress_safe_withPrefix64k+0x574>
    40106030:	390002ff 	strb	wzr, [x23]
    40106034:	d2800082 	mov	x2, #0x4                   	// #4
    40106038:	390006ff 	strb	wzr, [x23,#1]
    4010603c:	39000aff 	strb	wzr, [x23,#2]
    40106040:	39000eff 	strb	wzr, [x23,#3]
    40106044:	f90037a6 	str	x6, [x29,#104]
    40106048:	39400360 	ldrb	w0, [x27]
    4010604c:	390002e0 	strb	w0, [x23]
    40106050:	39400760 	ldrb	w0, [x27,#1]
    40106054:	390006e0 	strb	w0, [x23,#1]
    40106058:	39400b60 	ldrb	w0, [x27,#2]
    4010605c:	39000ae0 	strb	w0, [x23,#2]
    40106060:	39400f60 	ldrb	w0, [x27,#3]
    40106064:	39000ee0 	strb	w0, [x23,#3]
    40106068:	b0000020 	adrp	x0, 4010b000 <__func__.4011+0x10>
    4010606c:	911a2000 	add	x0, x0, #0x688
    40106070:	b8667800 	ldr	w0, [x0,x6,lsl #2]
    40106074:	8b00037b 	add	x27, x27, x0
    40106078:	8b0202e0 	add	x0, x23, x2
    4010607c:	aa1b03e1 	mov	x1, x27
    40106080:	97ffef34 	bl	40101d50 <memcpy>
    40106084:	f94037a6 	ldr	x6, [x29,#104]
    40106088:	b0000020 	adrp	x0, 4010b000 <__func__.4011+0x10>
    4010608c:	9119a000 	add	x0, x0, #0x668
    40106090:	b8a67800 	ldrsw	x0, [x0,x6,lsl #2]
    40106094:	cb00037b 	sub	x27, x27, x0
    40106098:	aa1b03e1 	mov	x1, x27
    4010609c:	aa1403e0 	mov	x0, x20
    401060a0:	d2800102 	mov	x2, #0x8                   	// #8
    401060a4:	91002294 	add	x20, x20, #0x8
    401060a8:	97ffef2a 	bl	40101d50 <memcpy>
    401060ac:	9100237b 	add	x27, x27, #0x8
    401060b0:	eb14027f 	cmp	x19, x20
    401060b4:	54ffff28 	b.hi	40106098 <LZ4_decompress_safe_withPrefix64k+0x550>
    401060b8:	17ffffac 	b	40105f68 <LZ4_decompress_safe_withPrefix64k+0x420>
    401060bc:	aa1b03e1 	mov	x1, x27
    401060c0:	d2800102 	mov	x2, #0x8                   	// #8
    401060c4:	aa1703e0 	mov	x0, x23
    401060c8:	9100237b 	add	x27, x27, #0x8
    401060cc:	97ffef21 	bl	40101d50 <memcpy>
    401060d0:	17fffff2 	b	40106098 <LZ4_decompress_safe_withPrefix64k+0x550>
    401060d4:	aa1b03e1 	mov	x1, x27
    401060d8:	d2800202 	mov	x2, #0x10                  	// #16
    401060dc:	aa1703e0 	mov	x0, x23
    401060e0:	97ffef1c 	bl	40101d50 <memcpy>
    401060e4:	d2800202 	mov	x2, #0x10                  	// #16
    401060e8:	8b020361 	add	x1, x27, x2
    401060ec:	8b0202e0 	add	x0, x23, x2
    401060f0:	910082f7 	add	x23, x23, #0x20
    401060f4:	97ffef17 	bl	40101d50 <memcpy>
    401060f8:	9100837b 	add	x27, x27, #0x20
    401060fc:	eb17027f 	cmp	x19, x23
    40106100:	54fffea8 	b.hi	401060d4 <LZ4_decompress_safe_withPrefix64k+0x58c>
    40106104:	17ffff99 	b	40105f68 <LZ4_decompress_safe_withPrefix64k+0x420>
    40106108:	12800020 	mov	w0, #0xfffffffe            	// #-2
    4010610c:	1400004d 	b	40106240 <LZ4_decompress_safe_withPrefix64k+0x6f8>
    40106110:	12800000 	mov	w0, #0xffffffff            	// #-1
    40106114:	d2800004 	mov	x4, #0x0                   	// #0
    40106118:	1400004a 	b	40106240 <LZ4_decompress_safe_withPrefix64k+0x6f8>
    4010611c:	aa1a03e1 	mov	x1, x26
    40106120:	aa1303e0 	mov	x0, x19
    40106124:	d2800102 	mov	x2, #0x8                   	// #8
    40106128:	91002273 	add	x19, x19, #0x8
    4010612c:	97ffef09 	bl	40101d50 <memcpy>
    40106130:	9100235a 	add	x26, x26, #0x8
    40106134:	eb1302ff 	cmp	x23, x19
    40106138:	54ffff28 	b.hi	4010611c <LZ4_decompress_safe_withPrefix64k+0x5d4>
    4010613c:	39400280 	ldrb	w0, [x20]
    40106140:	91000a9a 	add	x26, x20, #0x2
    40106144:	39400686 	ldrb	w6, [x20,#1]
    40106148:	92400f9c 	and	x28, x28, #0xf
    4010614c:	aa062006 	orr	x6, x0, x6, lsl #8
    40106150:	cb0602fb 	sub	x27, x23, x6
    40106154:	f1003f9f 	cmp	x28, #0xf
    40106158:	540001a1 	b.ne	4010618c <LZ4_decompress_safe_withPrefix64k+0x644>
    4010615c:	d10012a1 	sub	x1, x21, #0x4
    40106160:	52800013 	mov	w19, #0x0                   	// #0
    40106164:	38401740 	ldrb	w0, [x26],#1
    40106168:	0b000273 	add	w19, w19, w0
    4010616c:	eb1a003f 	cmp	x1, x26
    40106170:	54000149 	b.ls	40106198 <LZ4_decompress_safe_withPrefix64k+0x650>
    40106174:	7103fc1f 	cmp	w0, #0xff
    40106178:	54ffff60 	b.eq	40106164 <LZ4_decompress_safe_withPrefix64k+0x61c>
    4010617c:	91003e7c 	add	x28, x19, #0xf
    40106180:	8b170380 	add	x0, x28, x23
    40106184:	eb0002ff 	cmp	x23, x0
    40106188:	54000088 	b.hi	40106198 <LZ4_decompress_safe_withPrefix64k+0x650>
    4010618c:	9100139c 	add	x28, x28, #0x4
    40106190:	eb1b033f 	cmp	x25, x27
    40106194:	54ffdca9 	b.ls	40105d28 <LZ4_decompress_safe_withPrefix64k+0x1e0>
    40106198:	f9404fa0 	ldr	x0, [x29,#152]
    4010619c:	cb000340 	sub	x0, x26, x0
    401061a0:	2a2003e0 	mvn	w0, w0
    401061a4:	17fffe7b 	b	40105b90 <LZ4_decompress_safe_withPrefix64k+0x48>
    401061a8:	d2800102 	mov	x2, #0x8                   	// #8
    401061ac:	aa1b03e1 	mov	x1, x27
    401061b0:	aa1703e0 	mov	x0, x23
    401061b4:	91002374 	add	x20, x27, #0x8
    401061b8:	97ffeee6 	bl	40101d50 <memcpy>
    401061bc:	17fffef8 	b	40105d9c <LZ4_decompress_safe_withPrefix64k+0x254>
    401061c0:	d2800102 	mov	x2, #0x8                   	// #8
    401061c4:	aa1403e1 	mov	x1, x20
    401061c8:	aa1b03e0 	mov	x0, x27
    401061cc:	97ffeee1 	bl	40101d50 <memcpy>
    401061d0:	f100439f 	cmp	x28, #0x10
    401061d4:	54ffe269 	b.ls	40105e20 <LZ4_decompress_safe_withPrefix64k+0x2d8>
    401061d8:	910042e3 	add	x3, x23, #0x10
    401061dc:	91002294 	add	x20, x20, #0x8
    401061e0:	aa1403e1 	mov	x1, x20
    401061e4:	aa0303e0 	mov	x0, x3
    401061e8:	d2800102 	mov	x2, #0x8                   	// #8
    401061ec:	97ffeed9 	bl	40101d50 <memcpy>
    401061f0:	91002003 	add	x3, x0, #0x8
    401061f4:	91002294 	add	x20, x20, #0x8
    401061f8:	eb03027f 	cmp	x19, x3
    401061fc:	54ffff28 	b.hi	401061e0 <LZ4_decompress_safe_withPrefix64k+0x698>
    40106200:	17ffff08 	b	40105e20 <LZ4_decompress_safe_withPrefix64k+0x2d8>
    40106204:	12800000 	mov	w0, #0xffffffff            	// #-1
    40106208:	d65f03c0 	ret
    4010620c:	12800000 	mov	w0, #0xffffffff            	// #-1
    40106210:	17fffe60 	b	40105b90 <LZ4_decompress_safe_withPrefix64k+0x48>
    40106214:	d1003ea0 	sub	x0, x21, #0xf
    40106218:	eb00035f 	cmp	x26, x0
    4010621c:	54fff7a2 	b.cs	40106110 <LZ4_decompress_safe_withPrefix64k+0x5c8>
    40106220:	52800004 	mov	w4, #0x0                   	// #0
    40106224:	38401741 	ldrb	w1, [x26],#1
    40106228:	0b010084 	add	w4, w4, w1
    4010622c:	eb1a001f 	cmp	x0, x26
    40106230:	54fff6c9 	b.ls	40106108 <LZ4_decompress_safe_withPrefix64k+0x5c0>
    40106234:	7103fc3f 	cmp	w1, #0xff
    40106238:	54ffff60 	b.eq	40106224 <LZ4_decompress_safe_withPrefix64k+0x6dc>
    4010623c:	52800000 	mov	w0, #0x0                   	// #0
    40106240:	91003c9b 	add	x27, x4, #0xf
    40106244:	3100041f 	cmn	w0, #0x1
    40106248:	54fffa80 	b.eq	40106198 <LZ4_decompress_safe_withPrefix64k+0x650>
    4010624c:	8b130360 	add	x0, x27, x19
    40106250:	eb00027f 	cmp	x19, x0
    40106254:	54fffa28 	b.hi	40106198 <LZ4_decompress_safe_withPrefix64k+0x650>
    40106258:	8b1a0360 	add	x0, x27, x26
    4010625c:	eb00035f 	cmp	x26, x0
    40106260:	54fff9c8 	b.hi	40106198 <LZ4_decompress_safe_withPrefix64k+0x650>
    40106264:	8b1b0277 	add	x23, x19, x27
    40106268:	d10032c0 	sub	x0, x22, #0xc
    4010626c:	8b1a0374 	add	x20, x27, x26
    40106270:	eb0002ff 	cmp	x23, x0
    40106274:	54000088 	b.hi	40106284 <LZ4_decompress_safe_withPrefix64k+0x73c>
    40106278:	d10022a0 	sub	x0, x21, #0x8
    4010627c:	eb00029f 	cmp	x20, x0
    40106280:	54fff4e9 	b.ls	4010611c <LZ4_decompress_safe_withPrefix64k+0x5d4>
    40106284:	eb1402bf 	cmp	x21, x20
    40106288:	54fff881 	b.ne	40106198 <LZ4_decompress_safe_withPrefix64k+0x650>
    4010628c:	eb1702df 	cmp	x22, x23
    40106290:	54fff843 	b.cc	40106198 <LZ4_decompress_safe_withPrefix64k+0x650>
    40106294:	aa1303e0 	mov	x0, x19
    40106298:	aa1b03e2 	mov	x2, x27
    4010629c:	aa1a03e1 	mov	x1, x26
    401062a0:	8b1b0273 	add	x19, x19, x27
    401062a4:	97ffeed0 	bl	40101de4 <memmove>
    401062a8:	4b180260 	sub	w0, w19, w24
    401062ac:	17fffe39 	b	40105b90 <LZ4_decompress_safe_withPrefix64k+0x48>

00000000401062b0 <LZ4_decompress_safe_forceExtDict>:
    401062b0:	b4004060 	cbz	x0, 40106abc <LZ4_decompress_safe_forceExtDict+0x80c>
    401062b4:	a9b47bfd 	stp	x29, x30, [sp,#-192]!
    401062b8:	f100009f 	cmp	x4, #0x0
    401062bc:	910003fd 	mov	x29, sp
    401062c0:	a9046bf9 	stp	x25, x26, [sp,#64]
    401062c4:	8b05009a 	add	x26, x4, x5
    401062c8:	a90363f7 	stp	x23, x24, [sp,#48]
    401062cc:	9a9f1344 	csel	x4, x26, xzr, ne
    401062d0:	8b23c037 	add	x23, x1, w3, sxtw
    401062d4:	f9004fa4 	str	x4, [x29,#152]
    401062d8:	a90153f3 	stp	x19, x20, [sp,#16]
    401062dc:	d10082e4 	sub	x4, x23, #0x20
    401062e0:	a9025bf5 	stp	x21, x22, [sp,#32]
    401062e4:	8b22c018 	add	x24, x0, w2, sxtw
    401062e8:	a90573fb 	stp	x27, x28, [sp,#80]
    401062ec:	f90053a4 	str	x4, [x29,#160]
    401062f0:	350001a3 	cbnz	w3, 40106324 <LZ4_decompress_safe_forceExtDict+0x74>
    401062f4:	7100045f 	cmp	w2, #0x1
    401062f8:	54003e61 	b.ne	40106ac4 <LZ4_decompress_safe_forceExtDict+0x814>
    401062fc:	39400000 	ldrb	w0, [x0]
    40106300:	7100001f 	cmp	w0, #0x0
    40106304:	5a9f03e0 	csetm	w0, ne
    40106308:	a94153f3 	ldp	x19, x20, [sp,#16]
    4010630c:	a9425bf5 	ldp	x21, x22, [sp,#32]
    40106310:	a94363f7 	ldp	x23, x24, [sp,#48]
    40106314:	a9446bf9 	ldp	x25, x26, [sp,#64]
    40106318:	a94573fb 	ldp	x27, x28, [sp,#80]
    4010631c:	a8cc7bfd 	ldp	x29, x30, [sp],#192
    40106320:	d65f03c0 	ret
    40106324:	34003d02 	cbz	w2, 40106ac4 <LZ4_decompress_safe_forceExtDict+0x814>
    40106328:	f90057a0 	str	x0, [x29,#168]
    4010632c:	aa0503f6 	mov	x22, x5
    40106330:	aa0103f4 	mov	x20, x1
    40106334:	7100fc7f 	cmp	w3, #0x3f
    40106338:	540028ed 	b.le	40106854 <LZ4_decompress_safe_forceExtDict+0x5a4>
    4010633c:	aa0103fb 	mov	x27, x1
    40106340:	d1004701 	sub	x1, x24, #0x11
    40106344:	f90047a1 	str	x1, [x29,#136]
    40106348:	d1003f01 	sub	x1, x24, #0xf
    4010634c:	f9004ba1 	str	x1, [x29,#144]
    40106350:	d1008301 	sub	x1, x24, #0x20
    40106354:	f90043a1 	str	x1, [x29,#128]
    40106358:	9102f3a1 	add	x1, x29, #0xbc
    4010635c:	f9003fa1 	str	x1, [x29,#120]
    40106360:	39400005 	ldrb	w5, [x0]
    40106364:	91000413 	add	x19, x0, #0x1
    40106368:	2a0503fc 	mov	w28, w5
    4010636c:	53047ca6 	lsr	w6, w5, #4
    40106370:	71003cdf 	cmp	w6, #0xf
    40106374:	54000d41 	b.ne	4010651c <LZ4_decompress_safe_forceExtDict+0x26c>
    40106378:	f9404ba0 	ldr	x0, [x29,#144]
    4010637c:	eb00027f 	cmp	x19, x0
    40106380:	54000c42 	b.cs	40106508 <LZ4_decompress_safe_forceExtDict+0x258>
    40106384:	52800006 	mov	w6, #0x0                   	// #0
    40106388:	38401660 	ldrb	w0, [x19],#1
    4010638c:	f9404ba1 	ldr	x1, [x29,#144]
    40106390:	0b0000c6 	add	w6, w6, w0
    40106394:	eb13003f 	cmp	x1, x19
    40106398:	54000be9 	b.ls	40106514 <LZ4_decompress_safe_forceExtDict+0x264>
    4010639c:	7103fc1f 	cmp	w0, #0xff
    401063a0:	54ffff40 	b.eq	40106388 <LZ4_decompress_safe_forceExtDict+0xd8>
    401063a4:	52800000 	mov	w0, #0x0                   	// #0
    401063a8:	91003cda 	add	x26, x6, #0xf
    401063ac:	3100041f 	cmn	w0, #0x1
    401063b0:	54003aa0 	b.eq	40106b04 <LZ4_decompress_safe_forceExtDict+0x854>
    401063b4:	8b1b0344 	add	x4, x26, x27
    401063b8:	eb04037f 	cmp	x27, x4
    401063bc:	54003a48 	b.hi	40106b04 <LZ4_decompress_safe_forceExtDict+0x854>
    401063c0:	8b130355 	add	x21, x26, x19
    401063c4:	eb15027f 	cmp	x19, x21
    401063c8:	540039e8 	b.hi	40106b04 <LZ4_decompress_safe_forceExtDict+0x854>
    401063cc:	f94053a0 	ldr	x0, [x29,#160]
    401063d0:	aa0403f9 	mov	x25, x4
    401063d4:	eb04001f 	cmp	x0, x4
    401063d8:	54001de3 	b.cc	40106794 <LZ4_decompress_safe_forceExtDict+0x4e4>
    401063dc:	f94043a0 	ldr	x0, [x29,#128]
    401063e0:	eb0002bf 	cmp	x21, x0
    401063e4:	54001d88 	b.hi	40106794 <LZ4_decompress_safe_forceExtDict+0x4e4>
    401063e8:	aa1303e1 	mov	x1, x19
    401063ec:	f90037a4 	str	x4, [x29,#104]
    401063f0:	b90073a5 	str	w5, [x29,#112]
    401063f4:	d2800202 	mov	x2, #0x10                  	// #16
    401063f8:	aa1b03e0 	mov	x0, x27
    401063fc:	97ffee55 	bl	40101d50 <memcpy>
    40106400:	d2800202 	mov	x2, #0x10                  	// #16
    40106404:	8b020261 	add	x1, x19, x2
    40106408:	8b020360 	add	x0, x27, x2
    4010640c:	97ffee51 	bl	40101d50 <memcpy>
    40106410:	f94037a4 	ldr	x4, [x29,#104]
    40106414:	9100837b 	add	x27, x27, #0x20
    40106418:	91008273 	add	x19, x19, #0x20
    4010641c:	b94073a5 	ldr	w5, [x29,#112]
    40106420:	eb1b009f 	cmp	x4, x27
    40106424:	54fffe28 	b.hi	401063e8 <LZ4_decompress_safe_forceExtDict+0x138>
    40106428:	394002a0 	ldrb	w0, [x21]
    4010642c:	12000ca5 	and	w5, w5, #0xf
    40106430:	394006a1 	ldrb	w1, [x21,#1]
    40106434:	91000ab3 	add	x19, x21, #0x2
    40106438:	71003cbf 	cmp	w5, #0xf
    4010643c:	2a012000 	orr	w0, w0, w1, lsl #8
    40106440:	92403c06 	and	x6, x0, #0xffff
    40106444:	cb06033a 	sub	x26, x25, x6
    40106448:	54000881 	b.ne	40106558 <LZ4_decompress_safe_forceExtDict+0x2a8>
    4010644c:	d29fffe1 	mov	x1, #0xffff                	// #65535
    40106450:	eb0102df 	cmp	x22, x1
    40106454:	54000088 	b.hi	40106464 <LZ4_decompress_safe_forceExtDict+0x1b4>
    40106458:	8b160341 	add	x1, x26, x22
    4010645c:	eb01029f 	cmp	x20, x1
    40106460:	54003528 	b.hi	40106b04 <LZ4_decompress_safe_forceExtDict+0x854>
    40106464:	d1001302 	sub	x2, x24, #0x4
    40106468:	52800005 	mov	w5, #0x0                   	// #0
    4010646c:	38401661 	ldrb	w1, [x19],#1
    40106470:	0b0100a5 	add	w5, w5, w1
    40106474:	eb13005f 	cmp	x2, x19
    40106478:	540006c9 	b.ls	40106550 <LZ4_decompress_safe_forceExtDict+0x2a0>
    4010647c:	7103fc3f 	cmp	w1, #0xff
    40106480:	54ffff60 	b.eq	4010646c <LZ4_decompress_safe_forceExtDict+0x1bc>
    40106484:	52800001 	mov	w1, #0x0                   	// #0
    40106488:	350033e1 	cbnz	w1, 40106b04 <LZ4_decompress_safe_forceExtDict+0x854>
    4010648c:	91003f21 	add	x1, x25, #0xf
    40106490:	8b050021 	add	x1, x1, x5
    40106494:	eb01033f 	cmp	x25, x1
    40106498:	54003368 	b.hi	40106b04 <LZ4_decompress_safe_forceExtDict+0x854>
    4010649c:	91004ca5 	add	x5, x5, #0x13
    401064a0:	d10102e1 	sub	x1, x23, #0x40
    401064a4:	8b050322 	add	x2, x25, x5
    401064a8:	eb01005f 	cmp	x2, x1
    401064ac:	54000863 	b.cc	401065b8 <LZ4_decompress_safe_forceExtDict+0x308>
    401064b0:	d29fffe0 	mov	x0, #0xffff                	// #65535
    401064b4:	eb0002df 	cmp	x22, x0
    401064b8:	54000088 	b.hi	401064c8 <LZ4_decompress_safe_forceExtDict+0x218>
    401064bc:	8b160340 	add	x0, x26, x22
    401064c0:	eb00029f 	cmp	x20, x0
    401064c4:	54003208 	b.hi	40106b04 <LZ4_decompress_safe_forceExtDict+0x854>
    401064c8:	eb1a029f 	cmp	x20, x26
    401064cc:	8b050335 	add	x21, x25, x5
    401064d0:	54002449 	b.ls	40106958 <LZ4_decompress_safe_forceExtDict+0x6a8>
    401064d4:	d10016e0 	sub	x0, x23, #0x5
    401064d8:	eb0002bf 	cmp	x21, x0
    401064dc:	54003148 	b.hi	40106b04 <LZ4_decompress_safe_forceExtDict+0x854>
    401064e0:	f9404fa0 	ldr	x0, [x29,#152]
    401064e4:	cb1a029b 	sub	x27, x20, x26
    401064e8:	eb1b00bf 	cmp	x5, x27
    401064ec:	cb1b0001 	sub	x1, x0, x27
    401064f0:	540020e8 	b.hi	4010690c <LZ4_decompress_safe_forceExtDict+0x65c>
    401064f4:	aa0503e2 	mov	x2, x5
    401064f8:	aa1903e0 	mov	x0, x25
    401064fc:	97ffee3a 	bl	40101de4 <memmove>
    40106500:	aa1503fb 	mov	x27, x21
    40106504:	140000d6 	b	4010685c <LZ4_decompress_safe_forceExtDict+0x5ac>
    40106508:	12800000 	mov	w0, #0xffffffff            	// #-1
    4010650c:	d2800006 	mov	x6, #0x0                   	// #0
    40106510:	17ffffa6 	b	401063a8 <LZ4_decompress_safe_forceExtDict+0xf8>
    40106514:	12800020 	mov	w0, #0xfffffffe            	// #-2
    40106518:	17ffffa4 	b	401063a8 <LZ4_decompress_safe_forceExtDict+0xf8>
    4010651c:	f94047a0 	ldr	x0, [x29,#136]
    40106520:	2a0603fa 	mov	w26, w6
    40106524:	b90073a5 	str	w5, [x29,#112]
    40106528:	8b1a0379 	add	x25, x27, x26
    4010652c:	eb00027f 	cmp	x19, x0
    40106530:	54001328 	b.hi	40106794 <LZ4_decompress_safe_forceExtDict+0x4e4>
    40106534:	d2800202 	mov	x2, #0x10                  	// #16
    40106538:	aa1303e1 	mov	x1, x19
    4010653c:	aa1b03e0 	mov	x0, x27
    40106540:	97ffee04 	bl	40101d50 <memcpy>
    40106544:	8b1a0275 	add	x21, x19, x26
    40106548:	b94073a5 	ldr	w5, [x29,#112]
    4010654c:	17ffffb7 	b	40106428 <LZ4_decompress_safe_forceExtDict+0x178>
    40106550:	12800021 	mov	w1, #0xfffffffe            	// #-2
    40106554:	17ffffcd 	b	40106488 <LZ4_decompress_safe_forceExtDict+0x1d8>
    40106558:	92401ca5 	and	x5, x5, #0xff
    4010655c:	d10102e1 	sub	x1, x23, #0x40
    40106560:	910010a5 	add	x5, x5, #0x4
    40106564:	8b05033b 	add	x27, x25, x5
    40106568:	eb01037f 	cmp	x27, x1
    4010656c:	54fffa22 	b.cs	401064b0 <LZ4_decompress_safe_forceExtDict+0x200>
    40106570:	eb1a029f 	cmp	x20, x26
    40106574:	54002d08 	b.hi	40106b14 <LZ4_decompress_safe_forceExtDict+0x864>
    40106578:	f1001cdf 	cmp	x6, #0x7
    4010657c:	54002d49 	b.ls	40106b24 <LZ4_decompress_safe_forceExtDict+0x874>
    40106580:	d2800102 	mov	x2, #0x8                   	// #8
    40106584:	aa1a03e1 	mov	x1, x26
    40106588:	aa1903e0 	mov	x0, x25
    4010658c:	97ffedf1 	bl	40101d50 <memcpy>
    40106590:	d2800102 	mov	x2, #0x8                   	// #8
    40106594:	8b020341 	add	x1, x26, x2
    40106598:	8b020320 	add	x0, x25, x2
    4010659c:	97ffeded 	bl	40101d50 <memcpy>
    401065a0:	39404340 	ldrb	w0, [x26,#16]
    401065a4:	39004320 	strb	w0, [x25,#16]
    401065a8:	39404740 	ldrb	w0, [x26,#17]
    401065ac:	39004720 	strb	w0, [x25,#17]
    401065b0:	aa1303e0 	mov	x0, x19
    401065b4:	17ffff6b 	b	40106360 <LZ4_decompress_safe_forceExtDict+0xb0>
    401065b8:	d29fffe1 	mov	x1, #0xffff                	// #65535
    401065bc:	eb0102df 	cmp	x22, x1
    401065c0:	54000088 	b.hi	401065d0 <LZ4_decompress_safe_forceExtDict+0x320>
    401065c4:	8b160341 	add	x1, x26, x22
    401065c8:	eb01029f 	cmp	x20, x1
    401065cc:	540029c8 	b.hi	40106b04 <LZ4_decompress_safe_forceExtDict+0x854>
    401065d0:	eb1a029f 	cmp	x20, x26
    401065d4:	54002ae9 	b.ls	40106b30 <LZ4_decompress_safe_forceExtDict+0x880>
    401065d8:	8b050335 	add	x21, x25, x5
    401065dc:	d10016e0 	sub	x0, x23, #0x5
    401065e0:	eb0002bf 	cmp	x21, x0
    401065e4:	54002908 	b.hi	40106b04 <LZ4_decompress_safe_forceExtDict+0x854>
    401065e8:	f9404fa0 	ldr	x0, [x29,#152]
    401065ec:	cb1a029b 	sub	x27, x20, x26
    401065f0:	eb05037f 	cmp	x27, x5
    401065f4:	cb1b0001 	sub	x1, x0, x27
    401065f8:	540000c3 	b.cc	40106610 <LZ4_decompress_safe_forceExtDict+0x360>
    401065fc:	aa0503e2 	mov	x2, x5
    40106600:	aa1903e0 	mov	x0, x25
    40106604:	97ffedf8 	bl	40101de4 <memmove>
    40106608:	aa1503fb 	mov	x27, x21
    4010660c:	17ffffe9 	b	401065b0 <LZ4_decompress_safe_forceExtDict+0x300>
    40106610:	cb1b00ba 	sub	x26, x5, x27
    40106614:	aa1b03e2 	mov	x2, x27
    40106618:	aa1903e0 	mov	x0, x25
    4010661c:	8b1b033b 	add	x27, x25, x27
    40106620:	97ffedcc 	bl	40101d50 <memcpy>
    40106624:	cb140360 	sub	x0, x27, x20
    40106628:	eb00035f 	cmp	x26, x0
    4010662c:	540000e9 	b.ls	40106648 <LZ4_decompress_safe_forceExtDict+0x398>
    40106630:	aa1403e0 	mov	x0, x20
    40106634:	eb1b02bf 	cmp	x21, x27
    40106638:	54fffbc9 	b.ls	401065b0 <LZ4_decompress_safe_forceExtDict+0x300>
    4010663c:	38401401 	ldrb	w1, [x0],#1
    40106640:	38001761 	strb	w1, [x27],#1
    40106644:	17fffffc 	b	40106634 <LZ4_decompress_safe_forceExtDict+0x384>
    40106648:	aa1a03e2 	mov	x2, x26
    4010664c:	aa1403e1 	mov	x1, x20
    40106650:	aa1b03e0 	mov	x0, x27
    40106654:	97ffedbf 	bl	40101d50 <memcpy>
    40106658:	17ffffec 	b	40106608 <LZ4_decompress_safe_forceExtDict+0x358>
    4010665c:	39400740 	ldrb	w0, [x26,#1]
    40106660:	39400341 	ldrb	w1, [x26]
    40106664:	3902e3a1 	strb	w1, [x29,#184]
    40106668:	3902e7a0 	strb	w0, [x29,#185]
    4010666c:	3902eba1 	strb	w1, [x29,#186]
    40106670:	3902efa0 	strb	w0, [x29,#187]
    40106674:	b940bba0 	ldr	w0, [x29,#184]
    40106678:	b900bfa0 	str	w0, [x29,#188]
    4010667c:	1400013b 	b	40106b68 <LZ4_decompress_safe_forceExtDict+0x8b8>
    40106680:	aa1a03e1 	mov	x1, x26
    40106684:	d2800082 	mov	x2, #0x4                   	// #4
    40106688:	9102e3a0 	add	x0, x29, #0xb8
    4010668c:	97ffedb1 	bl	40101d50 <memcpy>
    40106690:	f9403fa0 	ldr	x0, [x29,#120]
    40106694:	d2800082 	mov	x2, #0x4                   	// #4
    40106698:	aa1a03e1 	mov	x1, x26
    4010669c:	97ffedad 	bl	40101d50 <memcpy>
    401066a0:	14000132 	b	40106b68 <LZ4_decompress_safe_forceExtDict+0x8b8>
    401066a4:	f1001cdf 	cmp	x6, #0x7
    401066a8:	54000488 	b.hi	40106738 <LZ4_decompress_safe_forceExtDict+0x488>
    401066ac:	3900033f 	strb	wzr, [x25]
    401066b0:	d2800082 	mov	x2, #0x4                   	// #4
    401066b4:	3900073f 	strb	wzr, [x25,#1]
    401066b8:	39000b3f 	strb	wzr, [x25,#2]
    401066bc:	39000f3f 	strb	wzr, [x25,#3]
    401066c0:	f9003ba6 	str	x6, [x29,#112]
    401066c4:	39400340 	ldrb	w0, [x26]
    401066c8:	39000320 	strb	w0, [x25]
    401066cc:	39400740 	ldrb	w0, [x26,#1]
    401066d0:	39000720 	strb	w0, [x25,#1]
    401066d4:	39400b40 	ldrb	w0, [x26,#2]
    401066d8:	39000b20 	strb	w0, [x25,#2]
    401066dc:	39400f40 	ldrb	w0, [x26,#3]
    401066e0:	39000f20 	strb	w0, [x25,#3]
    401066e4:	b0000020 	adrp	x0, 4010b000 <__func__.4011+0x10>
    401066e8:	911a2000 	add	x0, x0, #0x688
    401066ec:	b8667800 	ldr	w0, [x0,x6,lsl #2]
    401066f0:	8b00035a 	add	x26, x26, x0
    401066f4:	8b020320 	add	x0, x25, x2
    401066f8:	aa1a03e1 	mov	x1, x26
    401066fc:	97ffed95 	bl	40101d50 <memcpy>
    40106700:	f9403ba6 	ldr	x6, [x29,#112]
    40106704:	b0000020 	adrp	x0, 4010b000 <__func__.4011+0x10>
    40106708:	9119a000 	add	x0, x0, #0x668
    4010670c:	b8a67800 	ldrsw	x0, [x0,x6,lsl #2]
    40106710:	cb00035a 	sub	x26, x26, x0
    40106714:	aa1a03e1 	mov	x1, x26
    40106718:	aa1503e0 	mov	x0, x21
    4010671c:	d2800102 	mov	x2, #0x8                   	// #8
    40106720:	910022b5 	add	x21, x21, #0x8
    40106724:	97ffed8b 	bl	40101d50 <memcpy>
    40106728:	9100235a 	add	x26, x26, #0x8
    4010672c:	eb15037f 	cmp	x27, x21
    40106730:	54ffff28 	b.hi	40106714 <LZ4_decompress_safe_forceExtDict+0x464>
    40106734:	17ffff9f 	b	401065b0 <LZ4_decompress_safe_forceExtDict+0x300>
    40106738:	aa1a03e1 	mov	x1, x26
    4010673c:	d2800102 	mov	x2, #0x8                   	// #8
    40106740:	aa1903e0 	mov	x0, x25
    40106744:	9100235a 	add	x26, x26, #0x8
    40106748:	97ffed82 	bl	40101d50 <memcpy>
    4010674c:	17fffff2 	b	40106714 <LZ4_decompress_safe_forceExtDict+0x464>
    40106750:	aa1a03e1 	mov	x1, x26
    40106754:	d2800202 	mov	x2, #0x10                  	// #16
    40106758:	aa1903e0 	mov	x0, x25
    4010675c:	97ffed7d 	bl	40101d50 <memcpy>
    40106760:	d2800202 	mov	x2, #0x10                  	// #16
    40106764:	8b020341 	add	x1, x26, x2
    40106768:	8b020320 	add	x0, x25, x2
    4010676c:	91008339 	add	x25, x25, #0x20
    40106770:	97ffed78 	bl	40101d50 <memcpy>
    40106774:	9100835a 	add	x26, x26, #0x20
    40106778:	eb19037f 	cmp	x27, x25
    4010677c:	54fffea8 	b.hi	40106750 <LZ4_decompress_safe_forceExtDict+0x4a0>
    40106780:	17ffff8c 	b	401065b0 <LZ4_decompress_safe_forceExtDict+0x300>
    40106784:	8b130340 	add	x0, x26, x19
    40106788:	eb00027f 	cmp	x19, x0
    4010678c:	54001bc8 	b.hi	40106b04 <LZ4_decompress_safe_forceExtDict+0x854>
    40106790:	8b1a0379 	add	x25, x27, x26
    40106794:	d10032e0 	sub	x0, x23, #0xc
    40106798:	8b130355 	add	x21, x26, x19
    4010679c:	eb00033f 	cmp	x25, x0
    401067a0:	54000088 	b.hi	401067b0 <LZ4_decompress_safe_forceExtDict+0x500>
    401067a4:	d1002300 	sub	x0, x24, #0x8
    401067a8:	eb0002bf 	cmp	x21, x0
    401067ac:	54000189 	b.ls	401067dc <LZ4_decompress_safe_forceExtDict+0x52c>
    401067b0:	eb15031f 	cmp	x24, x21
    401067b4:	54001a81 	b.ne	40106b04 <LZ4_decompress_safe_forceExtDict+0x854>
    401067b8:	eb1902ff 	cmp	x23, x25
    401067bc:	54001a43 	b.cc	40106b04 <LZ4_decompress_safe_forceExtDict+0x854>
    401067c0:	aa1a03e2 	mov	x2, x26
    401067c4:	aa1303e1 	mov	x1, x19
    401067c8:	aa1b03e0 	mov	x0, x27
    401067cc:	97ffed86 	bl	40101de4 <memmove>
    401067d0:	8b1a0366 	add	x6, x27, x26
    401067d4:	4b1400c0 	sub	w0, w6, w20
    401067d8:	17fffecc 	b	40106308 <LZ4_decompress_safe_forceExtDict+0x58>
    401067dc:	aa1303e1 	mov	x1, x19
    401067e0:	aa1b03e0 	mov	x0, x27
    401067e4:	d2800102 	mov	x2, #0x8                   	// #8
    401067e8:	9100237b 	add	x27, x27, #0x8
    401067ec:	97ffed59 	bl	40101d50 <memcpy>
    401067f0:	91002273 	add	x19, x19, #0x8
    401067f4:	eb1b033f 	cmp	x25, x27
    401067f8:	54ffff28 	b.hi	401067dc <LZ4_decompress_safe_forceExtDict+0x52c>
    401067fc:	394002a0 	ldrb	w0, [x21]
    40106800:	91000ab3 	add	x19, x21, #0x2
    40106804:	394006a6 	ldrb	w6, [x21,#1]
    40106808:	92400f9c 	and	x28, x28, #0xf
    4010680c:	aa062006 	orr	x6, x0, x6, lsl #8
    40106810:	cb06033a 	sub	x26, x25, x6
    40106814:	f1003f9f 	cmp	x28, #0xf
    40106818:	540001a1 	b.ne	4010684c <LZ4_decompress_safe_forceExtDict+0x59c>
    4010681c:	d1001301 	sub	x1, x24, #0x4
    40106820:	5280001c 	mov	w28, #0x0                   	// #0
    40106824:	38401660 	ldrb	w0, [x19],#1
    40106828:	0b00039c 	add	w28, w28, w0
    4010682c:	eb13003f 	cmp	x1, x19
    40106830:	540016a9 	b.ls	40106b04 <LZ4_decompress_safe_forceExtDict+0x854>
    40106834:	7103fc1f 	cmp	w0, #0xff
    40106838:	54ffff60 	b.eq	40106824 <LZ4_decompress_safe_forceExtDict+0x574>
    4010683c:	91003f9c 	add	x28, x28, #0xf
    40106840:	8b190380 	add	x0, x28, x25
    40106844:	eb00033f 	cmp	x25, x0
    40106848:	540015e8 	b.hi	40106b04 <LZ4_decompress_safe_forceExtDict+0x854>
    4010684c:	91001385 	add	x5, x28, #0x4
    40106850:	17ffff18 	b	401064b0 <LZ4_decompress_safe_forceExtDict+0x200>
    40106854:	f94057b3 	ldr	x19, [x29,#168]
    40106858:	aa0103fb 	mov	x27, x1
    4010685c:	aa1303e0 	mov	x0, x19
    40106860:	d1004315 	sub	x21, x24, #0x10
    40106864:	3940001c 	ldrb	w28, [x0]
    40106868:	91000673 	add	x19, x19, #0x1
    4010686c:	53047f9a 	lsr	w26, w28, #4
    40106870:	71003f5f 	cmp	w26, #0xf
    40106874:	540012c0 	b.eq	40106acc <LZ4_decompress_safe_forceExtDict+0x81c>
    40106878:	f94053a0 	ldr	x0, [x29,#160]
    4010687c:	eb1302bf 	cmp	x21, x19
    40106880:	fa5b8000 	ccmp	x0, x27, #0x0, hi
    40106884:	54fff863 	b.cc	40106790 <LZ4_decompress_safe_forceExtDict+0x4e0>
    40106888:	aa1303e1 	mov	x1, x19
    4010688c:	d2800202 	mov	x2, #0x10                  	// #16
    40106890:	aa1b03e0 	mov	x0, x27
    40106894:	97ffed2f 	bl	40101d50 <memcpy>
    40106898:	8b1a0260 	add	x0, x19, x26
    4010689c:	387a6a61 	ldrb	w1, [x19,x26]
    401068a0:	92400f9c 	and	x28, x28, #0xf
    401068a4:	8b1a0379 	add	x25, x27, x26
    401068a8:	f1003f9f 	cmp	x28, #0xf
    401068ac:	91000813 	add	x19, x0, #0x2
    401068b0:	39400406 	ldrb	w6, [x0,#1]
    401068b4:	aa062026 	orr	x6, x1, x6, lsl #8
    401068b8:	cb06033a 	sub	x26, x25, x6
    401068bc:	fa4718c0 	ccmp	x6, #0x7, #0x0, ne
    401068c0:	54fffaa9 	b.ls	40106814 <LZ4_decompress_safe_forceExtDict+0x564>
    401068c4:	eb1a029f 	cmp	x20, x26
    401068c8:	54fffc28 	b.hi	4010684c <LZ4_decompress_safe_forceExtDict+0x59c>
    401068cc:	d2800102 	mov	x2, #0x8                   	// #8
    401068d0:	aa1a03e1 	mov	x1, x26
    401068d4:	aa1903e0 	mov	x0, x25
    401068d8:	97ffed1e 	bl	40101d50 <memcpy>
    401068dc:	d2800102 	mov	x2, #0x8                   	// #8
    401068e0:	8b020341 	add	x1, x26, x2
    401068e4:	8b020320 	add	x0, x25, x2
    401068e8:	97ffed1a 	bl	40101d50 <memcpy>
    401068ec:	39404340 	ldrb	w0, [x26,#16]
    401068f0:	91001385 	add	x5, x28, #0x4
    401068f4:	39004320 	strb	w0, [x25,#16]
    401068f8:	8b05033b 	add	x27, x25, x5
    401068fc:	39404740 	ldrb	w0, [x26,#17]
    40106900:	39004720 	strb	w0, [x25,#17]
    40106904:	aa1303e0 	mov	x0, x19
    40106908:	17ffffd7 	b	40106864 <LZ4_decompress_safe_forceExtDict+0x5b4>
    4010690c:	cb1b00ba 	sub	x26, x5, x27
    40106910:	aa1b03e2 	mov	x2, x27
    40106914:	aa1903e0 	mov	x0, x25
    40106918:	8b1b033b 	add	x27, x25, x27
    4010691c:	97ffed0d 	bl	40101d50 <memcpy>
    40106920:	cb140360 	sub	x0, x27, x20
    40106924:	eb00035f 	cmp	x26, x0
    40106928:	540000e9 	b.ls	40106944 <LZ4_decompress_safe_forceExtDict+0x694>
    4010692c:	aa1403e0 	mov	x0, x20
    40106930:	eb1b02bf 	cmp	x21, x27
    40106934:	54fff949 	b.ls	4010685c <LZ4_decompress_safe_forceExtDict+0x5ac>
    40106938:	38401401 	ldrb	w1, [x0],#1
    4010693c:	38001761 	strb	w1, [x27],#1
    40106940:	17fffffc 	b	40106930 <LZ4_decompress_safe_forceExtDict+0x680>
    40106944:	aa1a03e2 	mov	x2, x26
    40106948:	aa1403e1 	mov	x1, x20
    4010694c:	aa1b03e0 	mov	x0, x27
    40106950:	97ffed00 	bl	40101d50 <memcpy>
    40106954:	17fffeeb 	b	40106500 <LZ4_decompress_safe_forceExtDict+0x250>
    40106958:	aa1503fb 	mov	x27, x21
    4010695c:	f1001cdf 	cmp	x6, #0x7
    40106960:	54000788 	b.hi	40106a50 <LZ4_decompress_safe_forceExtDict+0x7a0>
    40106964:	3900033f 	strb	wzr, [x25]
    40106968:	d2800082 	mov	x2, #0x4                   	// #4
    4010696c:	3900073f 	strb	wzr, [x25,#1]
    40106970:	39000b3f 	strb	wzr, [x25,#2]
    40106974:	39000f3f 	strb	wzr, [x25,#3]
    40106978:	a9089ba5 	stp	x5, x6, [x29,#136]
    4010697c:	39400340 	ldrb	w0, [x26]
    40106980:	39000320 	strb	w0, [x25]
    40106984:	39400740 	ldrb	w0, [x26,#1]
    40106988:	39000720 	strb	w0, [x25,#1]
    4010698c:	39400b40 	ldrb	w0, [x26,#2]
    40106990:	39000b20 	strb	w0, [x25,#2]
    40106994:	39400f40 	ldrb	w0, [x26,#3]
    40106998:	39000f20 	strb	w0, [x25,#3]
    4010699c:	b0000020 	adrp	x0, 4010b000 <__func__.4011+0x10>
    401069a0:	911a2000 	add	x0, x0, #0x688
    401069a4:	b866781c 	ldr	w28, [x0,x6,lsl #2]
    401069a8:	8b020320 	add	x0, x25, x2
    401069ac:	8b1c035c 	add	x28, x26, x28
    401069b0:	aa1c03e1 	mov	x1, x28
    401069b4:	97ffece7 	bl	40101d50 <memcpy>
    401069b8:	a9489ba5 	ldp	x5, x6, [x29,#136]
    401069bc:	b0000020 	adrp	x0, 4010b000 <__func__.4011+0x10>
    401069c0:	9119a000 	add	x0, x0, #0x668
    401069c4:	b8a67804 	ldrsw	x4, [x0,x6,lsl #2]
    401069c8:	cb04039c 	sub	x28, x28, x4
    401069cc:	d10032e0 	sub	x0, x23, #0xc
    401069d0:	9100233a 	add	x26, x25, #0x8
    401069d4:	eb0002bf 	cmp	x21, x0
    401069d8:	540004c9 	b.ls	40106a70 <LZ4_decompress_safe_forceExtDict+0x7c0>
    401069dc:	d10016e0 	sub	x0, x23, #0x5
    401069e0:	eb0002bf 	cmp	x21, x0
    401069e4:	54000908 	b.hi	40106b04 <LZ4_decompress_safe_forceExtDict+0x854>
    401069e8:	d1001ef9 	sub	x25, x23, #0x7
    401069ec:	eb19035f 	cmp	x26, x25
    401069f0:	54000202 	b.cs	40106a30 <LZ4_decompress_safe_forceExtDict+0x780>
    401069f4:	aa1c03e6 	mov	x6, x28
    401069f8:	aa1a03e5 	mov	x5, x26
    401069fc:	aa0603e1 	mov	x1, x6
    40106a00:	aa0503e0 	mov	x0, x5
    40106a04:	f9004ba6 	str	x6, [x29,#144]
    40106a08:	d2800102 	mov	x2, #0x8                   	// #8
    40106a0c:	97ffecd1 	bl	40101d50 <memcpy>
    40106a10:	91002005 	add	x5, x0, #0x8
    40106a14:	f9404ba6 	ldr	x6, [x29,#144]
    40106a18:	eb05033f 	cmp	x25, x5
    40106a1c:	910020c6 	add	x6, x6, #0x8
    40106a20:	54fffee8 	b.hi	401069fc <LZ4_decompress_safe_forceExtDict+0x74c>
    40106a24:	cb1a0324 	sub	x4, x25, x26
    40106a28:	aa1903fa 	mov	x26, x25
    40106a2c:	8b04039c 	add	x28, x28, x4
    40106a30:	d2800000 	mov	x0, #0x0                   	// #0
    40106a34:	8b000341 	add	x1, x26, x0
    40106a38:	eb0102bf 	cmp	x21, x1
    40106a3c:	54fff109 	b.ls	4010685c <LZ4_decompress_safe_forceExtDict+0x5ac>
    40106a40:	38606b81 	ldrb	w1, [x28,x0]
    40106a44:	38206b41 	strb	w1, [x26,x0]
    40106a48:	91000400 	add	x0, x0, #0x1
    40106a4c:	17fffffa 	b	40106a34 <LZ4_decompress_safe_forceExtDict+0x784>
    40106a50:	f9004ba5 	str	x5, [x29,#144]
    40106a54:	d2800102 	mov	x2, #0x8                   	// #8
    40106a58:	aa1a03e1 	mov	x1, x26
    40106a5c:	aa1903e0 	mov	x0, x25
    40106a60:	97ffecbc 	bl	40101d50 <memcpy>
    40106a64:	9100235c 	add	x28, x26, #0x8
    40106a68:	f9404ba5 	ldr	x5, [x29,#144]
    40106a6c:	17ffffd8 	b	401069cc <LZ4_decompress_safe_forceExtDict+0x71c>
    40106a70:	f9004ba5 	str	x5, [x29,#144]
    40106a74:	d2800102 	mov	x2, #0x8                   	// #8
    40106a78:	aa1c03e1 	mov	x1, x28
    40106a7c:	aa1a03e0 	mov	x0, x26
    40106a80:	97ffecb4 	bl	40101d50 <memcpy>
    40106a84:	f9404ba5 	ldr	x5, [x29,#144]
    40106a88:	f10040bf 	cmp	x5, #0x10
    40106a8c:	54ffee89 	b.ls	4010685c <LZ4_decompress_safe_forceExtDict+0x5ac>
    40106a90:	91004339 	add	x25, x25, #0x10
    40106a94:	9100239c 	add	x28, x28, #0x8
    40106a98:	aa1c03e1 	mov	x1, x28
    40106a9c:	aa1903e0 	mov	x0, x25
    40106aa0:	d2800102 	mov	x2, #0x8                   	// #8
    40106aa4:	91002339 	add	x25, x25, #0x8
    40106aa8:	97ffecaa 	bl	40101d50 <memcpy>
    40106aac:	9100239c 	add	x28, x28, #0x8
    40106ab0:	eb1902bf 	cmp	x21, x25
    40106ab4:	54ffff28 	b.hi	40106a98 <LZ4_decompress_safe_forceExtDict+0x7e8>
    40106ab8:	17ffff69 	b	4010685c <LZ4_decompress_safe_forceExtDict+0x5ac>
    40106abc:	12800000 	mov	w0, #0xffffffff            	// #-1
    40106ac0:	d65f03c0 	ret
    40106ac4:	12800000 	mov	w0, #0xffffffff            	// #-1
    40106ac8:	17fffe10 	b	40106308 <LZ4_decompress_safe_forceExtDict+0x58>
    40106acc:	d1003f00 	sub	x0, x24, #0xf
    40106ad0:	eb00027f 	cmp	x19, x0
    40106ad4:	54000182 	b.cs	40106b04 <LZ4_decompress_safe_forceExtDict+0x854>
    40106ad8:	52800006 	mov	w6, #0x0                   	// #0
    40106adc:	38401661 	ldrb	w1, [x19],#1
    40106ae0:	0b0100c6 	add	w6, w6, w1
    40106ae4:	eb13001f 	cmp	x0, x19
    40106ae8:	54000069 	b.ls	40106af4 <LZ4_decompress_safe_forceExtDict+0x844>
    40106aec:	7103fc3f 	cmp	w1, #0xff
    40106af0:	54ffff60 	b.eq	40106adc <LZ4_decompress_safe_forceExtDict+0x82c>
    40106af4:	91003cda 	add	x26, x6, #0xf
    40106af8:	8b1b0340 	add	x0, x26, x27
    40106afc:	eb00037f 	cmp	x27, x0
    40106b00:	54ffe429 	b.ls	40106784 <LZ4_decompress_safe_forceExtDict+0x4d4>
    40106b04:	f94057a0 	ldr	x0, [x29,#168]
    40106b08:	cb000260 	sub	x0, x19, x0
    40106b0c:	2a2003e0 	mvn	w0, w0
    40106b10:	17fffdfe 	b	40106308 <LZ4_decompress_safe_forceExtDict+0x58>
    40106b14:	d29fffe1 	mov	x1, #0xffff                	// #65535
    40106b18:	eb0102df 	cmp	x22, x1
    40106b1c:	54ffd549 	b.ls	401065c4 <LZ4_decompress_safe_forceExtDict+0x314>
    40106b20:	17fffeae 	b	401065d8 <LZ4_decompress_safe_forceExtDict+0x328>
    40106b24:	d29fffe1 	mov	x1, #0xffff                	// #65535
    40106b28:	eb0102df 	cmp	x22, x1
    40106b2c:	54ffd4c9 	b.ls	401065c4 <LZ4_decompress_safe_forceExtDict+0x314>
    40106b30:	8b05033b 	add	x27, x25, x5
    40106b34:	f1003cdf 	cmp	x6, #0xf
    40106b38:	54ffe0c8 	b.hi	40106750 <LZ4_decompress_safe_forceExtDict+0x4a0>
    40106b3c:	7100081f 	cmp	w0, #0x2
    40106b40:	91002335 	add	x21, x25, #0x8
    40106b44:	54ffd8c0 	b.eq	4010665c <LZ4_decompress_safe_forceExtDict+0x3ac>
    40106b48:	7100101f 	cmp	w0, #0x4
    40106b4c:	54ffd9a0 	b.eq	40106680 <LZ4_decompress_safe_forceExtDict+0x3d0>
    40106b50:	7100041f 	cmp	w0, #0x1
    40106b54:	54ffda81 	b.ne	401066a4 <LZ4_decompress_safe_forceExtDict+0x3f4>
    40106b58:	39400341 	ldrb	w1, [x26]
    40106b5c:	d2800102 	mov	x2, #0x8                   	// #8
    40106b60:	9102e3a0 	add	x0, x29, #0xb8
    40106b64:	97ffec5c 	bl	40101cd4 <memset>
    40106b68:	d2800102 	mov	x2, #0x8                   	// #8
    40106b6c:	9102e3a1 	add	x1, x29, #0xb8
    40106b70:	aa1903e0 	mov	x0, x25
    40106b74:	97ffec77 	bl	40101d50 <memcpy>
    40106b78:	eb15037f 	cmp	x27, x21
    40106b7c:	54ffd1a9 	b.ls	401065b0 <LZ4_decompress_safe_forceExtDict+0x300>
    40106b80:	aa1503e0 	mov	x0, x21
    40106b84:	d2800102 	mov	x2, #0x8                   	// #8
    40106b88:	9102e3a1 	add	x1, x29, #0xb8
    40106b8c:	910022b5 	add	x21, x21, #0x8
    40106b90:	97ffec70 	bl	40101d50 <memcpy>
    40106b94:	17fffff9 	b	40106b78 <LZ4_decompress_safe_forceExtDict+0x8c8>

0000000040106b98 <LZ4_decompress_safe_usingDict>:
    40106b98:	2a0503e6 	mov	w6, w5
    40106b9c:	35000045 	cbnz	w5, 40106ba4 <LZ4_decompress_safe_usingDict+0xc>
    40106ba0:	17fffa1b 	b	4010540c <LZ4_decompress_safe>
    40106ba4:	93407ca5 	sxtw	x5, w5
    40106ba8:	8b050087 	add	x7, x4, x5
    40106bac:	eb07003f 	cmp	x1, x7
    40106bb0:	540000e1 	b.ne	40106bcc <LZ4_decompress_safe_usingDict+0x34>
    40106bb4:	529fffc4 	mov	w4, #0xfffe                	// #65534
    40106bb8:	6b0400df 	cmp	w6, w4
    40106bbc:	5400004d 	b.le	40106bc4 <LZ4_decompress_safe_usingDict+0x2c>
    40106bc0:	17fffbe2 	b	40105b48 <LZ4_decompress_safe_withPrefix64k>
    40106bc4:	aa0503e4 	mov	x4, x5
    40106bc8:	17fff7e5 	b	40104b5c <LZ4_decompress_safe_withSmallPrefix>
    40106bcc:	17fffdb9 	b	401062b0 <LZ4_decompress_safe_forceExtDict>

0000000040106bd0 <LZ4F_isError>:
    40106bd0:	b100501f 	cmn	x0, #0x14
    40106bd4:	1a9f97e0 	cset	w0, hi
    40106bd8:	d65f03c0 	ret

0000000040106bdc <LZ4F_getBlockSize>:
    40106bdc:	7100001f 	cmp	w0, #0x0
    40106be0:	52800081 	mov	w1, #0x4                   	// #4
    40106be4:	1a811000 	csel	w0, w0, w1, ne
    40106be8:	51001000 	sub	w0, w0, #0x4
    40106bec:	71000c1f 	cmp	w0, #0x3
    40106bf0:	540000a8 	b.hi	40106c04 <LZ4F_getBlockSize+0x28>
    40106bf4:	b0000021 	adrp	x1, 4010b000 <__func__.4011+0x10>
    40106bf8:	91192021 	add	x1, x1, #0x648
    40106bfc:	f8605820 	ldr	x0, [x1,w0,uxtw #3]
    40106c00:	d65f03c0 	ret
    40106c04:	92800020 	mov	x0, #0xfffffffffffffffe    	// #-2
    40106c08:	d65f03c0 	ret

0000000040106c0c <LZ4F_decodeHeader>:
    40106c0c:	a9bb7bfd 	stp	x29, x30, [sp,#-80]!
    40106c10:	f100185f 	cmp	x2, #0x6
    40106c14:	910003fd 	mov	x29, sp
    40106c18:	a90153f3 	stp	x19, x20, [sp,#16]
    40106c1c:	a9025bf5 	stp	x21, x22, [sp,#32]
    40106c20:	a90363f7 	stp	x23, x24, [sp,#48]
    40106c24:	a9046bf9 	stp	x25, x26, [sp,#64]
    40106c28:	54000ee9 	b.ls	40106e04 <LZ4F_decodeHeader+0x1f8>
    40106c2c:	aa0103f4 	mov	x20, x1
    40106c30:	aa0203f5 	mov	x21, x2
    40106c34:	52800001 	mov	w1, #0x0                   	// #0
    40106c38:	d2800402 	mov	x2, #0x20                  	// #32
    40106c3c:	aa0003f3 	mov	x19, x0
    40106c40:	97ffec25 	bl	40101cd4 <memset>
    40106c44:	aa1403e0 	mov	x0, x20
    40106c48:	97fff7bc 	bl	40104b38 <LZ4F_readLE32>
    40106c4c:	52854a01 	mov	w1, #0x2a50                	// #10832
    40106c50:	121c6c02 	and	w2, w0, #0xfffffff0
    40106c54:	72a309a1 	movk	w1, #0x184d, lsl #16
    40106c58:	6b01005f 	cmp	w2, w1
    40106c5c:	540002a1 	b.ne	40106cb0 <LZ4F_decodeHeader+0xa4>
    40106c60:	52800020 	mov	w0, #0x1                   	// #1
    40106c64:	b9000e60 	str	w0, [x19,#12]
    40106c68:	9103a260 	add	x0, x19, #0xe8
    40106c6c:	eb00029f 	cmp	x20, x0
    40106c70:	540000c1 	b.ne	40106c88 <LZ4F_decodeHeader+0x7c>
    40106c74:	d2800100 	mov	x0, #0x8                   	// #8
    40106c78:	a9048275 	stp	x21, x0, [x19,#72]
    40106c7c:	528001a0 	mov	w0, #0xd                   	// #13
    40106c80:	b9002660 	str	w0, [x19,#36]
    40106c84:	14000004 	b	40106c94 <LZ4F_decodeHeader+0x88>
    40106c88:	52800180 	mov	w0, #0xc                   	// #12
    40106c8c:	d2800095 	mov	x21, #0x4                   	// #4
    40106c90:	b9002660 	str	w0, [x19,#36]
    40106c94:	aa1503e0 	mov	x0, x21
    40106c98:	a94153f3 	ldp	x19, x20, [sp,#16]
    40106c9c:	a9425bf5 	ldp	x21, x22, [sp,#32]
    40106ca0:	a94363f7 	ldp	x23, x24, [sp,#48]
    40106ca4:	a9446bf9 	ldp	x25, x26, [sp,#64]
    40106ca8:	a8c57bfd 	ldp	x29, x30, [sp],#80
    40106cac:	d65f03c0 	ret
    40106cb0:	52844081 	mov	w1, #0x2204                	// #8708
    40106cb4:	72a309a1 	movk	w1, #0x184d, lsl #16
    40106cb8:	6b01001f 	cmp	w0, w1
    40106cbc:	54000a81 	b.ne	40106e0c <LZ4F_decodeHeader+0x200>
    40106cc0:	b9000e7f 	str	wzr, [x19,#12]
    40106cc4:	39401298 	ldrb	w24, [x20,#4]
    40106cc8:	37080af8 	tbnz	w24, #1, 40106e24 <LZ4F_decodeHeader+0x218>
    40106ccc:	53067f00 	lsr	w0, w24, #6
    40106cd0:	7100041f 	cmp	w0, #0x1
    40106cd4:	54000a01 	b.ne	40106e14 <LZ4F_decodeHeader+0x208>
    40106cd8:	d3430f1a 	ubfx	x26, x24, #3, #1
    40106cdc:	d28000e0 	mov	x0, #0x7                   	// #7
    40106ce0:	7100035f 	cmp	w26, #0x0
    40106ce4:	d28001f6 	mov	x22, #0xf                   	// #15
    40106ce8:	9a8012d6 	csel	x22, x22, x0, ne
    40106cec:	d37e0300 	ubfiz	x0, x24, #2, #1
    40106cf0:	8b0002d6 	add	x22, x22, x0
    40106cf4:	12000317 	and	w23, w24, #0x1
    40106cf8:	eb1602bf 	cmp	x21, x22
    40106cfc:	54000142 	b.cs	40106d24 <LZ4F_decodeHeader+0x118>
    40106d00:	9103a260 	add	x0, x19, #0xe8
    40106d04:	eb00029f 	cmp	x20, x0
    40106d08:	54000080 	b.eq	40106d18 <LZ4F_decodeHeader+0x10c>
    40106d0c:	aa1503e2 	mov	x2, x21
    40106d10:	aa1403e1 	mov	x1, x20
    40106d14:	97ffec0f 	bl	40101d50 <memcpy>
    40106d18:	52800020 	mov	w0, #0x1                   	// #1
    40106d1c:	a904da75 	stp	x21, x22, [x19,#72]
    40106d20:	17ffffd8 	b	40106c80 <LZ4F_decodeHeader+0x74>
    40106d24:	39401680 	ldrb	w0, [x20,#5]
    40106d28:	53077c01 	lsr	w1, w0, #7
    40106d2c:	350007c1 	cbnz	w1, 40106e24 <LZ4F_decodeHeader+0x218>
    40106d30:	53047c19 	lsr	w25, w0, #4
    40106d34:	71000f3f 	cmp	w25, #0x3
    40106d38:	54000729 	b.ls	40106e1c <LZ4F_decodeHeader+0x210>
    40106d3c:	f2400c1f 	tst	x0, #0xf
    40106d40:	54000721 	b.ne	40106e24 <LZ4F_decodeHeader+0x218>
    40106d44:	d10016d5 	sub	x21, x22, #0x5
    40106d48:	52800002 	mov	w2, #0x0                   	// #0
    40106d4c:	aa1503e1 	mov	x1, x21
    40106d50:	91001280 	add	x0, x20, #0x4
    40106d54:	940003c4 	bl	40107c64 <XXH32>
    40106d58:	d3483c00 	ubfx	x0, x0, #8, #8
    40106d5c:	8b160281 	add	x1, x20, x22
    40106d60:	385ff021 	ldurb	w1, [x1,#-1]
    40106d64:	6b00003f 	cmp	w1, w0
    40106d68:	54000621 	b.ne	40106e2c <LZ4F_decodeHeader+0x220>
    40106d6c:	d3451700 	ubfx	x0, x24, #5, #1
    40106d70:	29000279 	stp	w25, w0, [x19]
    40106d74:	d3441300 	ubfx	x0, x24, #4, #1
    40106d78:	d3420b18 	ubfx	x24, x24, #2, #1
    40106d7c:	b9001e60 	str	w0, [x19,#28]
    40106d80:	2a1903e0 	mov	w0, w25
    40106d84:	b9000a78 	str	w24, [x19,#8]
    40106d88:	97ffff95 	bl	40106bdc <LZ4F_getBlockSize>
    40106d8c:	f9001a60 	str	x0, [x19,#48]
    40106d90:	340002ba 	cbz	w26, 40106de4 <LZ4F_decodeHeader+0x1d8>
    40106d94:	39403680 	ldrb	w0, [x20,#13]
    40106d98:	39401a81 	ldrb	w1, [x20,#6]
    40106d9c:	39402282 	ldrb	w2, [x20,#8]
    40106da0:	39402a83 	ldrb	w3, [x20,#10]
    40106da4:	8b00e021 	add	x1, x1, x0, lsl #56
    40106da8:	39401e80 	ldrb	w0, [x20,#7]
    40106dac:	d370bc42 	lsl	x2, x2, #16
    40106db0:	d3607c63 	lsl	x3, x3, #32
    40106db4:	8b002040 	add	x0, x2, x0, lsl #8
    40106db8:	39402682 	ldrb	w2, [x20,#9]
    40106dbc:	8b026062 	add	x2, x3, x2, lsl #24
    40106dc0:	39403283 	ldrb	w3, [x20,#12]
    40106dc4:	8b020000 	add	x0, x0, x2
    40106dc8:	39402e82 	ldrb	w2, [x20,#11]
    40106dcc:	d3503c63 	lsl	x3, x3, #48
    40106dd0:	8b02a062 	add	x2, x3, x2, lsl #40
    40106dd4:	8b020000 	add	x0, x0, x2
    40106dd8:	8b010000 	add	x0, x0, x1
    40106ddc:	f9000a60 	str	x0, [x19,#16]
    40106de0:	f9001660 	str	x0, [x19,#40]
    40106de4:	34000097 	cbz	w23, 40106df4 <LZ4F_decodeHeader+0x1e8>
    40106de8:	8b150280 	add	x0, x20, x21
    40106dec:	97fff753 	bl	40104b38 <LZ4F_readLE32>
    40106df0:	b9001a60 	str	w0, [x19,#24]
    40106df4:	52800040 	mov	w0, #0x2                   	// #2
    40106df8:	aa1603f5 	mov	x21, x22
    40106dfc:	b9002660 	str	w0, [x19,#36]
    40106e00:	17ffffa5 	b	40106c94 <LZ4F_decodeHeader+0x88>
    40106e04:	92800175 	mov	x21, #0xfffffffffffffff4    	// #-12
    40106e08:	17ffffa3 	b	40106c94 <LZ4F_decodeHeader+0x88>
    40106e0c:	92800195 	mov	x21, #0xfffffffffffffff3    	// #-13
    40106e10:	17ffffa1 	b	40106c94 <LZ4F_decodeHeader+0x88>
    40106e14:	928000b5 	mov	x21, #0xfffffffffffffffa    	// #-6
    40106e18:	17ffff9f 	b	40106c94 <LZ4F_decodeHeader+0x88>
    40106e1c:	92800035 	mov	x21, #0xfffffffffffffffe    	// #-2
    40106e20:	17ffff9d 	b	40106c94 <LZ4F_decodeHeader+0x88>
    40106e24:	928000f5 	mov	x21, #0xfffffffffffffff8    	// #-8
    40106e28:	17ffff9b 	b	40106c94 <LZ4F_decodeHeader+0x88>
    40106e2c:	92800215 	mov	x21, #0xffffffffffffffef    	// #-17
    40106e30:	17ffff99 	b	40106c94 <LZ4F_decodeHeader+0x88>

0000000040106e34 <LZ4F_createDecompressionContext>:
    40106e34:	a9be7bfd 	stp	x29, x30, [sp,#-32]!
    40106e38:	910003fd 	mov	x29, sp
    40106e3c:	a90153f3 	stp	x19, x20, [sp,#16]
    40106e40:	aa0003f3 	mov	x19, x0
    40106e44:	2a0103f4 	mov	w20, w1
    40106e48:	d2800020 	mov	x0, #0x1                   	// #1
    40106e4c:	d2802001 	mov	x1, #0x100                 	// #256
    40106e50:	97ffeee0 	bl	401029d0 <LZ4_calloc>
    40106e54:	b50000c0 	cbnz	x0, 40106e6c <LZ4F_createDecompressionContext+0x38>
    40106e58:	92800100 	mov	x0, #0xfffffffffffffff7    	// #-9
    40106e5c:	f900027f 	str	xzr, [x19]
    40106e60:	a94153f3 	ldp	x19, x20, [sp,#16]
    40106e64:	a8c27bfd 	ldp	x29, x30, [sp],#32
    40106e68:	d65f03c0 	ret
    40106e6c:	b9002014 	str	w20, [x0,#32]
    40106e70:	f9000260 	str	x0, [x19]
    40106e74:	d2800000 	mov	x0, #0x0                   	// #0
    40106e78:	17fffffa 	b	40106e60 <LZ4F_createDecompressionContext+0x2c>

0000000040106e7c <LZ4F_decompress>:
    40106e7c:	a9b67bfd 	stp	x29, x30, [sp,#-160]!
    40106e80:	910003fd 	mov	x29, sp
    40106e84:	a9025bf5 	stp	x21, x22, [sp,#32]
    40106e88:	a90363f7 	stp	x23, x24, [sp,#48]
    40106e8c:	aa0103f8 	mov	x24, x1
    40106e90:	a90573fb 	stp	x27, x28, [sp,#80]
    40106e94:	aa0003fb 	mov	x27, x0
    40106e98:	f9400095 	ldr	x21, [x4]
    40106e9c:	a90153f3 	stp	x19, x20, [sp,#16]
    40106ea0:	a9046bf9 	stp	x25, x26, [sp,#64]
    40106ea4:	8b150075 	add	x21, x3, x21
    40106ea8:	a9070fa4 	stp	x4, x3, [x29,#112]
    40106eac:	a90817a2 	stp	x2, x5, [x29,#128]
    40106eb0:	b4000441 	cbz	x1, 40106f38 <LZ4F_decompress+0xbc>
    40106eb4:	f9400059 	ldr	x25, [x2]
    40106eb8:	8b190039 	add	x25, x1, x25
    40106ebc:	910243b3 	add	x19, x29, #0x90
    40106ec0:	d2800202 	mov	x2, #0x10                  	// #16
    40106ec4:	aa1303e0 	mov	x0, x19
    40106ec8:	52800001 	mov	w1, #0x0                   	// #0
    40106ecc:	97ffeb82 	bl	40101cd4 <memset>
    40106ed0:	aa1803f6 	mov	x22, x24
    40106ed4:	f94047a0 	ldr	x0, [x29,#136]
    40106ed8:	9103a37a 	add	x26, x27, #0xe8
    40106edc:	d2800034 	mov	x20, #0x1                   	// #1
    40106ee0:	d2800017 	mov	x23, #0x0                   	// #0
    40106ee4:	f100001f 	cmp	x0, #0x0
    40106ee8:	9a931000 	csel	x0, x0, x19, ne
    40106eec:	f90047a0 	str	x0, [x29,#136]
    40106ef0:	f9403ba0 	ldr	x0, [x29,#112]
    40106ef4:	f9403fb3 	ldr	x19, [x29,#120]
    40106ef8:	f900001f 	str	xzr, [x0]
    40106efc:	f94043a0 	ldr	x0, [x29,#128]
    40106f00:	f900001f 	str	xzr, [x0]
    40106f04:	b0000020 	adrp	x0, 4010b000 <__func__.4011+0x10>
    40106f08:	91189000 	add	x0, x0, #0x624
    40106f0c:	f90037a0 	str	x0, [x29,#104]
    40106f10:	52800020 	mov	w0, #0x1                   	// #1
    40106f14:	340005a0 	cbz	w0, 40106fc8 <LZ4F_decompress+0x14c>
    40106f18:	b9402760 	ldr	w0, [x27,#36]
    40106f1c:	7100381f 	cmp	w0, #0xe
    40106f20:	54ffff88 	b.hi	40106f10 <LZ4F_decompress+0x94>
    40106f24:	f94037a1 	ldr	x1, [x29,#104]
    40106f28:	78605820 	ldrh	w0, [x1,w0,uxtw #1]
    40106f2c:	10000061 	adr	x1, 40106f38 <LZ4F_decompress+0xbc>
    40106f30:	8b20a820 	add	x0, x1, w0, sxth #2
    40106f34:	d61f0000 	br	x0
    40106f38:	d2800019 	mov	x25, #0x0                   	// #0
    40106f3c:	17ffffe0 	b	40106ebc <LZ4F_decompress+0x40>
    40106f40:	cb1302a2 	sub	x2, x21, x19
    40106f44:	f100485f 	cmp	x2, #0x12
    40106f48:	54000109 	b.ls	40106f68 <LZ4F_decompress+0xec>
    40106f4c:	aa1303e1 	mov	x1, x19
    40106f50:	aa1b03e0 	mov	x0, x27
    40106f54:	97ffff2e 	bl	40106c0c <LZ4F_decodeHeader>
    40106f58:	b100501f 	cmn	x0, #0x14
    40106f5c:	54000988 	b.hi	4010708c <LZ4F_decompress+0x210>
    40106f60:	8b000273 	add	x19, x19, x0
    40106f64:	17ffffeb 	b	40106f10 <LZ4F_decompress+0x94>
    40106f68:	f900277f 	str	xzr, [x27,#72]
    40106f6c:	eb1302bf 	cmp	x21, x19
    40106f70:	d28000e0 	mov	x0, #0x7                   	// #7
    40106f74:	540008c0 	b.eq	4010708c <LZ4F_decompress+0x210>
    40106f78:	f9002b60 	str	x0, [x27,#80]
    40106f7c:	52800020 	mov	w0, #0x1                   	// #1
    40106f80:	b9002760 	str	w0, [x27,#36]
    40106f84:	a9448f60 	ldp	x0, x3, [x27,#72]
    40106f88:	cb1302a1 	sub	x1, x21, x19
    40106f8c:	cb000063 	sub	x3, x3, x0
    40106f90:	8b000340 	add	x0, x26, x0
    40106f94:	eb01007f 	cmp	x3, x1
    40106f98:	9a81907c 	csel	x28, x3, x1, ls
    40106f9c:	aa1303e1 	mov	x1, x19
    40106fa0:	aa1c03e2 	mov	x2, x28
    40106fa4:	8b1c0273 	add	x19, x19, x28
    40106fa8:	97ffeb6a 	bl	40101d50 <memcpy>
    40106fac:	a9448b60 	ldp	x0, x2, [x27,#72]
    40106fb0:	8b000380 	add	x0, x28, x0
    40106fb4:	f9002760 	str	x0, [x27,#72]
    40106fb8:	eb02001f 	cmp	x0, x2
    40106fbc:	540005e2 	b.cs	40107078 <LZ4F_decompress+0x1fc>
    40106fc0:	91001042 	add	x2, x2, #0x4
    40106fc4:	cb000054 	sub	x20, x2, x0
    40106fc8:	b9400760 	ldr	w0, [x27,#4]
    40106fcc:	35000460 	cbnz	w0, 40107058 <LZ4F_decompress+0x1dc>
    40106fd0:	a9458760 	ldp	x0, x1, [x27,#88]
    40106fd4:	eb00003f 	cmp	x1, x0
    40106fd8:	54000400 	b.eq	40107058 <LZ4F_decompress+0x1dc>
    40106fdc:	b40003e1 	cbz	x1, 40107058 <LZ4F_decompress+0x1dc>
    40106fe0:	f94047a2 	ldr	x2, [x29,#136]
    40106fe4:	b9400042 	ldr	w2, [x2]
    40106fe8:	35000382 	cbnz	w2, 40107058 <LZ4F_decompress+0x1dc>
    40106fec:	b9402762 	ldr	w2, [x27,#36]
    40106ff0:	51000843 	sub	w3, w2, #0x2
    40106ff4:	71001c7f 	cmp	w3, #0x7
    40106ff8:	54000308 	b.hi	40107058 <LZ4F_decompress+0x1dc>
    40106ffc:	7100245f 	cmp	w2, #0x9
    40107000:	f9403763 	ldr	x3, [x27,#104]
    40107004:	54004041 	b.ne	4010780c <LZ4F_decompress+0x990>
    40107008:	a9471375 	ldp	x21, x4, [x27,#112]
    4010700c:	f9404362 	ldr	x2, [x27,#128]
    40107010:	cb0002b5 	sub	x21, x21, x0
    40107014:	f140409f 	cmp	x4, #0x10, lsl #12
    40107018:	cb020063 	sub	x3, x3, x2
    4010701c:	54003f48 	b.hi	40107804 <LZ4F_decompress+0x988>
    40107020:	d2a00022 	mov	x2, #0x10000               	// #65536
    40107024:	cb040042 	sub	x2, x2, x4
    40107028:	eb15005f 	cmp	x2, x21
    4010702c:	9a959042 	csel	x2, x2, x21, ls
    40107030:	cb0202a4 	sub	x4, x21, x2
    40107034:	cb020063 	sub	x3, x3, x2
    40107038:	8b030021 	add	x1, x1, x3
    4010703c:	8b040000 	add	x0, x0, x4
    40107040:	97ffeb44 	bl	40101d50 <memcpy>
    40107044:	f9402f60 	ldr	x0, [x27,#88]
    40107048:	f9003360 	str	x0, [x27,#96]
    4010704c:	f9404360 	ldr	x0, [x27,#128]
    40107050:	8b150015 	add	x21, x0, x21
    40107054:	f9003775 	str	x21, [x27,#104]
    40107058:	f9403fa0 	ldr	x0, [x29,#120]
    4010705c:	cb1802d6 	sub	x22, x22, x24
    40107060:	cb000273 	sub	x19, x19, x0
    40107064:	f9403ba0 	ldr	x0, [x29,#112]
    40107068:	f9000013 	str	x19, [x0]
    4010706c:	f94043a0 	ldr	x0, [x29,#128]
    40107070:	f9000016 	str	x22, [x0]
    40107074:	1400001e 	b	401070ec <LZ4F_decompress+0x270>
    40107078:	aa1a03e1 	mov	x1, x26
    4010707c:	aa1b03e0 	mov	x0, x27
    40107080:	97fffee3 	bl	40106c0c <LZ4F_decodeHeader>
    40107084:	b100501f 	cmn	x0, #0x14
    40107088:	54fff449 	b.ls	40106f10 <LZ4F_decompress+0x94>
    4010708c:	aa0003f4 	mov	x20, x0
    40107090:	14000017 	b	401070ec <LZ4F_decompress+0x270>
    40107094:	b9400b60 	ldr	w0, [x27,#8]
    40107098:	34000080 	cbz	w0, 401070a8 <LZ4F_decompress+0x22c>
    4010709c:	52800001 	mov	w1, #0x0                   	// #0
    401070a0:	91022360 	add	x0, x27, #0x88
    401070a4:	9400036b 	bl	40107e50 <XXH32_reset>
    401070a8:	b9400761 	ldr	w1, [x27,#4]
    401070ac:	f9401b60 	ldr	x0, [x27,#48]
    401070b0:	7100003f 	cmp	w1, #0x0
    401070b4:	9a9f17e1 	cset	x1, eq
    401070b8:	8b01441c 	add	x28, x0, x1, lsl #17
    401070bc:	f9401f60 	ldr	x0, [x27,#56]
    401070c0:	eb00039f 	cmp	x28, x0
    401070c4:	54000329 	b.ls	40107128 <LZ4F_decompress+0x2ac>
    401070c8:	f9402360 	ldr	x0, [x27,#64]
    401070cc:	f9001f7f 	str	xzr, [x27,#56]
    401070d0:	97ffee4f 	bl	40102a0c <LZ4_free>
    401070d4:	f9401b60 	ldr	x0, [x27,#48]
    401070d8:	91001000 	add	x0, x0, #0x4
    401070dc:	97ffee3a 	bl	401029c4 <LZ4_malloc>
    401070e0:	f9002360 	str	x0, [x27,#64]
    401070e4:	b5000140 	cbnz	x0, 4010710c <LZ4F_decompress+0x290>
    401070e8:	92800114 	mov	x20, #0xfffffffffffffff7    	// #-9
    401070ec:	aa1403e0 	mov	x0, x20
    401070f0:	a94153f3 	ldp	x19, x20, [sp,#16]
    401070f4:	a9425bf5 	ldp	x21, x22, [sp,#32]
    401070f8:	a94363f7 	ldp	x23, x24, [sp,#48]
    401070fc:	a9446bf9 	ldp	x25, x26, [sp,#64]
    40107100:	a94573fb 	ldp	x27, x28, [sp,#80]
    40107104:	a8ca7bfd 	ldp	x29, x30, [sp],#160
    40107108:	d65f03c0 	ret
    4010710c:	f9402f60 	ldr	x0, [x27,#88]
    40107110:	97ffee3f 	bl	40102a0c <LZ4_free>
    40107114:	aa1c03e0 	mov	x0, x28
    40107118:	97ffee2b 	bl	401029c4 <LZ4_malloc>
    4010711c:	f9002f60 	str	x0, [x27,#88]
    40107120:	b4fffe40 	cbz	x0, 401070e8 <LZ4F_decompress+0x26c>
    40107124:	f9001f7c 	str	x28, [x27,#56]
    40107128:	f9402f60 	ldr	x0, [x27,#88]
    4010712c:	a9077f60 	stp	x0, xzr, [x27,#112]
    40107130:	a904ff7f 	stp	xzr, xzr, [x27,#72]
    40107134:	52800060 	mov	w0, #0x3                   	// #3
    40107138:	f900437f 	str	xzr, [x27,#128]
    4010713c:	b9002760 	str	w0, [x27,#36]
    40107140:	cb1302a0 	sub	x0, x21, x19
    40107144:	f1000c1f 	cmp	x0, #0x3
    40107148:	54000309 	b.ls	401071a8 <LZ4F_decompress+0x32c>
    4010714c:	aa1303f7 	mov	x23, x19
    40107150:	91001273 	add	x19, x19, #0x4
    40107154:	b9402760 	ldr	w0, [x27,#36]
    40107158:	7100101f 	cmp	w0, #0x4
    4010715c:	54000301 	b.ne	401071bc <LZ4F_decompress+0x340>
    40107160:	a9440364 	ldp	x4, x0, [x27,#64]
    40107164:	cb1302b7 	sub	x23, x21, x19
    40107168:	d280009c 	mov	x28, #0x4                   	// #4
    4010716c:	cb000381 	sub	x1, x28, x0
    40107170:	8b000080 	add	x0, x4, x0
    40107174:	eb0102ff 	cmp	x23, x1
    40107178:	9a8192f7 	csel	x23, x23, x1, ls
    4010717c:	aa1303e1 	mov	x1, x19
    40107180:	aa1703e2 	mov	x2, x23
    40107184:	8b170273 	add	x19, x19, x23
    40107188:	97ffeaf2 	bl	40101d50 <memcpy>
    4010718c:	f9402760 	ldr	x0, [x27,#72]
    40107190:	8b0002f7 	add	x23, x23, x0
    40107194:	f9002777 	str	x23, [x27,#72]
    40107198:	f1000eff 	cmp	x23, #0x3
    4010719c:	540000e8 	b.hi	401071b8 <LZ4F_decompress+0x33c>
    401071a0:	cb170394 	sub	x20, x28, x23
    401071a4:	17ffff89 	b	40106fc8 <LZ4F_decompress+0x14c>
    401071a8:	52800080 	mov	w0, #0x4                   	// #4
    401071ac:	f900277f 	str	xzr, [x27,#72]
    401071b0:	b9002760 	str	w0, [x27,#36]
    401071b4:	17ffffe8 	b	40107154 <LZ4F_decompress+0x2d8>
    401071b8:	f9402377 	ldr	x23, [x27,#64]
    401071bc:	aa1703e0 	mov	x0, x23
    401071c0:	97fff65e 	bl	40104b38 <LZ4F_readLE32>
    401071c4:	35000080 	cbnz	w0, 401071d4 <LZ4F_decompress+0x358>
    401071c8:	52800140 	mov	w0, #0xa                   	// #10
    401071cc:	b9002760 	str	w0, [x27,#36]
    401071d0:	17ffff50 	b	40106f10 <LZ4F_decompress+0x94>
    401071d4:	f9401b61 	ldr	x1, [x27,#48]
    401071d8:	92407802 	and	x2, x0, #0x7fffffff
    401071dc:	eb01005f 	cmp	x2, x1
    401071e0:	540032e8 	b.hi	4010783c <LZ4F_decompress+0x9c0>
    401071e4:	b9401f61 	ldr	w1, [x27,#28]
    401071e8:	36f80100 	tbz	w0, #31, 40107208 <LZ4F_decompress+0x38c>
    401071ec:	f9002b62 	str	x2, [x27,#80]
    401071f0:	34000081 	cbz	w1, 40107200 <LZ4F_decompress+0x384>
    401071f4:	52800001 	mov	w1, #0x0                   	// #0
    401071f8:	9102e360 	add	x0, x27, #0xb8
    401071fc:	94000315 	bl	40107e50 <XXH32_reset>
    40107200:	528000a0 	mov	w0, #0x5                   	// #5
    40107204:	17fffff2 	b	401071cc <LZ4F_decompress+0x350>
    40107208:	8b214840 	add	x0, x2, w1, uxtw #2
    4010720c:	528000e1 	mov	w1, #0x7                   	// #7
    40107210:	f9002b60 	str	x0, [x27,#80]
    40107214:	eb16033f 	cmp	x25, x22
    40107218:	b9002761 	str	w1, [x27,#36]
    4010721c:	fa551264 	ccmp	x19, x21, #0x4, ne
    40107220:	54ffe781 	b.ne	40106f10 <LZ4F_decompress+0x94>
    40107224:	91001014 	add	x20, x0, #0x4
    40107228:	17ffff68 	b	40106fc8 <LZ4F_decompress+0x14c>
    4010722c:	b40005f6 	cbz	x22, 401072e8 <LZ4F_decompress+0x46c>
    40107230:	cb1302a0 	sub	x0, x21, x19
    40107234:	cb160325 	sub	x5, x25, x22
    40107238:	eb0000bf 	cmp	x5, x0
    4010723c:	aa1303e1 	mov	x1, x19
    40107240:	9a8090a5 	csel	x5, x5, x0, ls
    40107244:	f9402b60 	ldr	x0, [x27,#80]
    40107248:	eb0000bf 	cmp	x5, x0
    4010724c:	9a8090bc 	csel	x28, x5, x0, ls
    40107250:	aa1603e0 	mov	x0, x22
    40107254:	aa1c03e2 	mov	x2, x28
    40107258:	97ffeabe 	bl	40101d50 <memcpy>
    4010725c:	b9401f60 	ldr	w0, [x27,#28]
    40107260:	340000a0 	cbz	w0, 40107274 <LZ4F_decompress+0x3f8>
    40107264:	aa1c03e2 	mov	x2, x28
    40107268:	aa1303e1 	mov	x1, x19
    4010726c:	9102e360 	add	x0, x27, #0xb8
    40107270:	94000316 	bl	40107ec8 <XXH32_update>
    40107274:	b9400b60 	ldr	w0, [x27,#8]
    40107278:	340000a0 	cbz	w0, 4010728c <LZ4F_decompress+0x410>
    4010727c:	aa1c03e2 	mov	x2, x28
    40107280:	aa1303e1 	mov	x1, x19
    40107284:	91022360 	add	x0, x27, #0x88
    40107288:	94000310 	bl	40107ec8 <XXH32_update>
    4010728c:	f9400b60 	ldr	x0, [x27,#16]
    40107290:	b4000080 	cbz	x0, 401072a0 <LZ4F_decompress+0x424>
    40107294:	f9401760 	ldr	x0, [x27,#40]
    40107298:	cb1c0000 	sub	x0, x0, x28
    4010729c:	f9001760 	str	x0, [x27,#40]
    401072a0:	b9400760 	ldr	w0, [x27,#4]
    401072a4:	350000e0 	cbnz	w0, 401072c0 <LZ4F_decompress+0x444>
    401072a8:	52800004 	mov	w4, #0x0                   	// #0
    401072ac:	aa1803e3 	mov	x3, x24
    401072b0:	aa1c03e2 	mov	x2, x28
    401072b4:	aa1603e1 	mov	x1, x22
    401072b8:	aa1b03e0 	mov	x0, x27
    401072bc:	97fff7f5 	bl	40105290 <LZ4F_updateDict>
    401072c0:	f9402b60 	ldr	x0, [x27,#80]
    401072c4:	8b1c0273 	add	x19, x19, x28
    401072c8:	8b1c02d6 	add	x22, x22, x28
    401072cc:	b9401f61 	ldr	w1, [x27,#28]
    401072d0:	eb00039f 	cmp	x28, x0
    401072d4:	540000e1 	b.ne	401072f0 <LZ4F_decompress+0x474>
    401072d8:	34001be1 	cbz	w1, 40107654 <LZ4F_decompress+0x7d8>
    401072dc:	528000c0 	mov	w0, #0x6                   	// #6
    401072e0:	f900277f 	str	xzr, [x27,#72]
    401072e4:	17ffffba 	b	401071cc <LZ4F_decompress+0x350>
    401072e8:	d280001c 	mov	x28, #0x0                   	// #0
    401072ec:	17fffff5 	b	401072c0 <LZ4F_decompress+0x444>
    401072f0:	cb1c0005 	sub	x5, x0, x28
    401072f4:	7100003f 	cmp	w1, #0x0
    401072f8:	9a9f07f4 	cset	x20, ne
    401072fc:	f9002b65 	str	x5, [x27,#80]
    40107300:	910010a5 	add	x5, x5, #0x4
    40107304:	8b1408b4 	add	x20, x5, x20, lsl #2
    40107308:	17ffff30 	b	40106fc8 <LZ4F_decompress+0x14c>
    4010730c:	cb1302a1 	sub	x1, x21, x19
    40107310:	f9402760 	ldr	x0, [x27,#72]
    40107314:	f1000c3f 	cmp	x1, #0x3
    40107318:	540001cd 	b.le	40107350 <LZ4F_decompress+0x4d4>
    4010731c:	b50001a0 	cbnz	x0, 40107350 <LZ4F_decompress+0x4d4>
    40107320:	aa1303e0 	mov	x0, x19
    40107324:	91001273 	add	x19, x19, #0x4
    40107328:	97fff604 	bl	40104b38 <LZ4F_readLE32>
    4010732c:	2a0003e1 	mov	w1, w0
    40107330:	9102e360 	add	x0, x27, #0xb8
    40107334:	b90063a1 	str	w1, [x29,#96]
    40107338:	9400036b 	bl	401080e4 <XXH32_digest>
    4010733c:	b94063a1 	ldr	w1, [x29,#96]
    40107340:	6b00003f 	cmp	w1, w0
    40107344:	54001880 	b.eq	40107654 <LZ4F_decompress+0x7d8>
    40107348:	928000d4 	mov	x20, #0xfffffffffffffff9    	// #-7
    4010734c:	17ffff68 	b	401070ec <LZ4F_decompress+0x270>
    40107350:	d2800083 	mov	x3, #0x4                   	// #4
    40107354:	cb000063 	sub	x3, x3, x0
    40107358:	eb01007f 	cmp	x3, x1
    4010735c:	8b000340 	add	x0, x26, x0
    40107360:	9a819063 	csel	x3, x3, x1, ls
    40107364:	aa1303e1 	mov	x1, x19
    40107368:	aa0303e2 	mov	x2, x3
    4010736c:	f90033a3 	str	x3, [x29,#96]
    40107370:	97ffea78 	bl	40101d50 <memcpy>
    40107374:	f9402760 	ldr	x0, [x27,#72]
    40107378:	f94033a3 	ldr	x3, [x29,#96]
    4010737c:	8b000060 	add	x0, x3, x0
    40107380:	f9002760 	str	x0, [x27,#72]
    40107384:	8b030273 	add	x19, x19, x3
    40107388:	f1000c1f 	cmp	x0, #0x3
    4010738c:	54ffe1e9 	b.ls	40106fc8 <LZ4F_decompress+0x14c>
    40107390:	aa1a03e0 	mov	x0, x26
    40107394:	17ffffe5 	b	40107328 <LZ4F_decompress+0x4ac>
    40107398:	f9402b60 	ldr	x0, [x27,#80]
    4010739c:	cb1302a1 	sub	x1, x21, x19
    401073a0:	eb00003f 	cmp	x1, x0
    401073a4:	54000082 	b.cs	401073b4 <LZ4F_decompress+0x538>
    401073a8:	52800100 	mov	w0, #0x8                   	// #8
    401073ac:	f900277f 	str	xzr, [x27,#72]
    401073b0:	17ffff87 	b	401071cc <LZ4F_decompress+0x350>
    401073b4:	aa1303f7 	mov	x23, x19
    401073b8:	8b000273 	add	x19, x19, x0
    401073bc:	b9401f60 	ldr	w0, [x27,#28]
    401073c0:	35000e00 	cbnz	w0, 40107580 <LZ4F_decompress+0x704>
    401073c4:	f9401b63 	ldr	x3, [x27,#48]
    401073c8:	cb160320 	sub	x0, x25, x22
    401073cc:	f9403765 	ldr	x5, [x27,#104]
    401073d0:	eb03001f 	cmp	x0, x3
    401073d4:	f9403360 	ldr	x0, [x27,#96]
    401073d8:	54000f22 	b.cs	401075bc <LZ4F_decompress+0x740>
    401073dc:	b9400761 	ldr	w1, [x27,#4]
    401073e0:	35000201 	cbnz	w1, 40107420 <LZ4F_decompress+0x5a4>
    401073e4:	f9402f62 	ldr	x2, [x27,#88]
    401073e8:	eb02001f 	cmp	x0, x2
    401073ec:	54001381 	b.ne	4010765c <LZ4F_decompress+0x7e0>
    401073f0:	f14080bf 	cmp	x5, #0x20, lsl #12
    401073f4:	540000e9 	b.ls	40107410 <LZ4F_decompress+0x594>
    401073f8:	d14040a5 	sub	x5, x5, #0x10, lsl #12
    401073fc:	d2a00022 	mov	x2, #0x10000               	// #65536
    40107400:	8b050001 	add	x1, x0, x5
    40107404:	97ffea53 	bl	40101d50 <memcpy>
    40107408:	d2a00020 	mov	x0, #0x10000               	// #65536
    4010740c:	f9003760 	str	x0, [x27,#104]
    40107410:	f9402f60 	ldr	x0, [x27,#88]
    40107414:	f9403761 	ldr	x1, [x27,#104]
    40107418:	8b010000 	add	x0, x0, x1
    4010741c:	f9003b60 	str	x0, [x27,#112]
    40107420:	a9461764 	ldp	x4, x5, [x27,#96]
    40107424:	d2a80000 	mov	x0, #0x40000000            	// #1073741824
    40107428:	f100009f 	cmp	x4, #0x0
    4010742c:	fa4010a0 	ccmp	x5, x0, #0x0, ne
    40107430:	54000089 	b.ls	40107440 <LZ4F_decompress+0x5c4>
    40107434:	d14040a5 	sub	x5, x5, #0x10, lsl #12
    40107438:	8b050084 	add	x4, x4, x5
    4010743c:	d2a00025 	mov	x5, #0x10000               	// #65536
    40107440:	b9403363 	ldr	w3, [x27,#48]
    40107444:	aa1703e0 	mov	x0, x23
    40107448:	b9405362 	ldr	w2, [x27,#80]
    4010744c:	f9403b61 	ldr	x1, [x27,#112]
    40107450:	97fffdd2 	bl	40106b98 <LZ4_decompress_safe_usingDict>
    40107454:	37f81fc0 	tbnz	w0, #31, 4010784c <LZ4F_decompress+0x9d0>
    40107458:	b9400b61 	ldr	w1, [x27,#8]
    4010745c:	93407c03 	sxtw	x3, w0
    40107460:	340000e1 	cbz	w1, 4010747c <LZ4F_decompress+0x600>
    40107464:	f9403b61 	ldr	x1, [x27,#112]
    40107468:	aa0303e2 	mov	x2, x3
    4010746c:	f90033a3 	str	x3, [x29,#96]
    40107470:	91022360 	add	x0, x27, #0x88
    40107474:	94000295 	bl	40107ec8 <XXH32_update>
    40107478:	f94033a3 	ldr	x3, [x29,#96]
    4010747c:	f9400b60 	ldr	x0, [x27,#16]
    40107480:	b4000080 	cbz	x0, 40107490 <LZ4F_decompress+0x614>
    40107484:	f9401760 	ldr	x0, [x27,#40]
    40107488:	cb030000 	sub	x0, x0, x3
    4010748c:	f9001760 	str	x0, [x27,#40]
    40107490:	52800120 	mov	w0, #0x9                   	// #9
    40107494:	a907ff63 	stp	x3, xzr, [x27,#120]
    40107498:	b9002760 	str	w0, [x27,#36]
    4010749c:	b4000356 	cbz	x22, 40107504 <LZ4F_decompress+0x688>
    401074a0:	a9478365 	ldp	x5, x0, [x27,#120]
    401074a4:	cb160321 	sub	x1, x25, x22
    401074a8:	cb0000a5 	sub	x5, x5, x0
    401074ac:	eb0100bf 	cmp	x5, x1
    401074b0:	9a8190a5 	csel	x5, x5, x1, ls
    401074b4:	f9403b61 	ldr	x1, [x27,#112]
    401074b8:	aa0503e2 	mov	x2, x5
    401074bc:	f90033a5 	str	x5, [x29,#96]
    401074c0:	8b000021 	add	x1, x1, x0
    401074c4:	aa1603e0 	mov	x0, x22
    401074c8:	97ffea22 	bl	40101d50 <memcpy>
    401074cc:	b9400760 	ldr	w0, [x27,#4]
    401074d0:	f94033a5 	ldr	x5, [x29,#96]
    401074d4:	35000100 	cbnz	w0, 401074f4 <LZ4F_decompress+0x678>
    401074d8:	aa0503e2 	mov	x2, x5
    401074dc:	52800024 	mov	w4, #0x1                   	// #1
    401074e0:	aa1803e3 	mov	x3, x24
    401074e4:	aa1603e1 	mov	x1, x22
    401074e8:	aa1b03e0 	mov	x0, x27
    401074ec:	97fff769 	bl	40105290 <LZ4F_updateDict>
    401074f0:	f94033a5 	ldr	x5, [x29,#96]
    401074f4:	f9404360 	ldr	x0, [x27,#128]
    401074f8:	8b0502d6 	add	x22, x22, x5
    401074fc:	8b050000 	add	x0, x0, x5
    40107500:	f9004360 	str	x0, [x27,#128]
    40107504:	a9478760 	ldp	x0, x1, [x27,#120]
    40107508:	eb00003f 	cmp	x1, x0
    4010750c:	54000a40 	b.eq	40107654 <LZ4F_decompress+0x7d8>
    40107510:	d2800094 	mov	x20, #0x4                   	// #4
    40107514:	17fffead 	b	40106fc8 <LZ4F_decompress+0x14c>
    40107518:	a9440363 	ldp	x3, x0, [x27,#64]
    4010751c:	cb1302a1 	sub	x1, x21, x19
    40107520:	f9402b77 	ldr	x23, [x27,#80]
    40107524:	cb0002f7 	sub	x23, x23, x0
    40107528:	8b000060 	add	x0, x3, x0
    4010752c:	eb0102ff 	cmp	x23, x1
    40107530:	9a8192f7 	csel	x23, x23, x1, ls
    40107534:	aa1303e1 	mov	x1, x19
    40107538:	aa1703e2 	mov	x2, x23
    4010753c:	8b170273 	add	x19, x19, x23
    40107540:	97ffea04 	bl	40101d50 <memcpy>
    40107544:	a9448362 	ldp	x2, x0, [x27,#72]
    40107548:	8b0202e2 	add	x2, x23, x2
    4010754c:	f9002762 	str	x2, [x27,#72]
    40107550:	91001001 	add	x1, x0, #0x4
    40107554:	eb00005f 	cmp	x2, x0
    40107558:	54000102 	b.cs	40107578 <LZ4F_decompress+0x6fc>
    4010755c:	b9401f60 	ldr	w0, [x27,#28]
    40107560:	7100001f 	cmp	w0, #0x0
    40107564:	9a9f07f4 	cset	x20, ne
    40107568:	d37ef694 	lsl	x20, x20, #2
    4010756c:	cb020294 	sub	x20, x20, x2
    40107570:	8b010294 	add	x20, x20, x1
    40107574:	17fffe95 	b	40106fc8 <LZ4F_decompress+0x14c>
    40107578:	f9402377 	ldr	x23, [x27,#64]
    4010757c:	17ffff90 	b	401073bc <LZ4F_decompress+0x540>
    40107580:	f9402b63 	ldr	x3, [x27,#80]
    40107584:	d1001063 	sub	x3, x3, #0x4
    40107588:	f9002b63 	str	x3, [x27,#80]
    4010758c:	8b0302e0 	add	x0, x23, x3
    40107590:	97fff56a 	bl	40104b38 <LZ4F_readLE32>
    40107594:	2a0003e4 	mov	w4, w0
    40107598:	52800002 	mov	w2, #0x0                   	// #0
    4010759c:	b90063a4 	str	w4, [x29,#96]
    401075a0:	aa0303e1 	mov	x1, x3
    401075a4:	aa1703e0 	mov	x0, x23
    401075a8:	940001af 	bl	40107c64 <XXH32>
    401075ac:	b94063a4 	ldr	w4, [x29,#96]
    401075b0:	6b00009f 	cmp	w4, w0
    401075b4:	54fff080 	b.eq	401073c4 <LZ4F_decompress+0x548>
    401075b8:	17ffff64 	b	40107348 <LZ4F_decompress+0x4cc>
    401075bc:	f100001f 	cmp	x0, #0x0
    401075c0:	aa0003e4 	mov	x4, x0
    401075c4:	d2a80000 	mov	x0, #0x40000000            	// #1073741824
    401075c8:	fa4010a0 	ccmp	x5, x0, #0x0, ne
    401075cc:	54000089 	b.ls	401075dc <LZ4F_decompress+0x760>
    401075d0:	d14040a5 	sub	x5, x5, #0x10, lsl #12
    401075d4:	8b050084 	add	x4, x4, x5
    401075d8:	d2a00025 	mov	x5, #0x10000               	// #65536
    401075dc:	b9405362 	ldr	w2, [x27,#80]
    401075e0:	aa1603e1 	mov	x1, x22
    401075e4:	aa1703e0 	mov	x0, x23
    401075e8:	97fffd6c 	bl	40106b98 <LZ4_decompress_safe_usingDict>
    401075ec:	37f812c0 	tbnz	w0, #31, 40107844 <LZ4F_decompress+0x9c8>
    401075f0:	b9400b61 	ldr	w1, [x27,#8]
    401075f4:	93407c05 	sxtw	x5, w0
    401075f8:	340000e1 	cbz	w1, 40107614 <LZ4F_decompress+0x798>
    401075fc:	aa0503e2 	mov	x2, x5
    40107600:	f90033a5 	str	x5, [x29,#96]
    40107604:	aa1603e1 	mov	x1, x22
    40107608:	91022360 	add	x0, x27, #0x88
    4010760c:	9400022f 	bl	40107ec8 <XXH32_update>
    40107610:	f94033a5 	ldr	x5, [x29,#96]
    40107614:	f9400b60 	ldr	x0, [x27,#16]
    40107618:	b4000080 	cbz	x0, 40107628 <LZ4F_decompress+0x7ac>
    4010761c:	f9401760 	ldr	x0, [x27,#40]
    40107620:	cb050000 	sub	x0, x0, x5
    40107624:	f9001760 	str	x0, [x27,#40]
    40107628:	b9400760 	ldr	w0, [x27,#4]
    4010762c:	35000120 	cbnz	w0, 40107650 <LZ4F_decompress+0x7d4>
    40107630:	aa0503e2 	mov	x2, x5
    40107634:	f90033a5 	str	x5, [x29,#96]
    40107638:	52800004 	mov	w4, #0x0                   	// #0
    4010763c:	aa1803e3 	mov	x3, x24
    40107640:	aa1603e1 	mov	x1, x22
    40107644:	aa1b03e0 	mov	x0, x27
    40107648:	97fff712 	bl	40105290 <LZ4F_updateDict>
    4010764c:	f94033a5 	ldr	x5, [x29,#96]
    40107650:	8b0502d6 	add	x22, x22, x5
    40107654:	52800060 	mov	w0, #0x3                   	// #3
    40107658:	17fffedd 	b	401071cc <LZ4F_decompress+0x350>
    4010765c:	f14040bf 	cmp	x5, #0x10, lsl #12
    40107660:	d2a00021 	mov	x1, #0x10000               	// #65536
    40107664:	9a8190a5 	csel	x5, x5, x1, ls
    40107668:	8b050045 	add	x5, x2, x5
    4010766c:	f9003b65 	str	x5, [x27,#112]
    40107670:	17ffff6c 	b	40107420 <LZ4F_decompress+0x5a4>
    40107674:	f9401760 	ldr	x0, [x27,#40]
    40107678:	b5000ee0 	cbnz	x0, 40107854 <LZ4F_decompress+0x9d8>
    4010767c:	b9400b60 	ldr	w0, [x27,#8]
    40107680:	350000a0 	cbnz	w0, 40107694 <LZ4F_decompress+0x818>
    40107684:	d2800014 	mov	x20, #0x0                   	// #0
    40107688:	b900277f 	str	wzr, [x27,#36]
    4010768c:	a9067f7f 	stp	xzr, xzr, [x27,#96]
    40107690:	17fffe4e 	b	40106fc8 <LZ4F_decompress+0x14c>
    40107694:	cb1302a0 	sub	x0, x21, x19
    40107698:	f1000c1f 	cmp	x0, #0x3
    4010769c:	5400032c 	b.gt	40107700 <LZ4F_decompress+0x884>
    401076a0:	52800160 	mov	w0, #0xb                   	// #11
    401076a4:	f900277f 	str	xzr, [x27,#72]
    401076a8:	b9002760 	str	w0, [x27,#36]
    401076ac:	b9402760 	ldr	w0, [x27,#36]
    401076b0:	71002c1f 	cmp	w0, #0xb
    401076b4:	540002e1 	b.ne	40107710 <LZ4F_decompress+0x894>
    401076b8:	a9440363 	ldp	x3, x0, [x27,#64]
    401076bc:	cb1302b5 	sub	x21, x21, x19
    401076c0:	d2800094 	mov	x20, #0x4                   	// #4
    401076c4:	cb000281 	sub	x1, x20, x0
    401076c8:	8b000060 	add	x0, x3, x0
    401076cc:	eb0102bf 	cmp	x21, x1
    401076d0:	9a8192b5 	csel	x21, x21, x1, ls
    401076d4:	aa1303e1 	mov	x1, x19
    401076d8:	aa1503e2 	mov	x2, x21
    401076dc:	8b150273 	add	x19, x19, x21
    401076e0:	97ffe99c 	bl	40101d50 <memcpy>
    401076e4:	f9402762 	ldr	x2, [x27,#72]
    401076e8:	8b0202b5 	add	x21, x21, x2
    401076ec:	f9002775 	str	x21, [x27,#72]
    401076f0:	f1000ebf 	cmp	x21, #0x3
    401076f4:	540000c8 	b.hi	4010770c <LZ4F_decompress+0x890>
    401076f8:	cb150294 	sub	x20, x20, x21
    401076fc:	17fffe33 	b	40106fc8 <LZ4F_decompress+0x14c>
    40107700:	aa1303f7 	mov	x23, x19
    40107704:	91001273 	add	x19, x19, #0x4
    40107708:	17ffffe9 	b	401076ac <LZ4F_decompress+0x830>
    4010770c:	f9402377 	ldr	x23, [x27,#64]
    40107710:	aa1703e0 	mov	x0, x23
    40107714:	97fff509 	bl	40104b38 <LZ4F_readLE32>
    40107718:	2a0003f4 	mov	w20, w0
    4010771c:	91022360 	add	x0, x27, #0x88
    40107720:	94000271 	bl	401080e4 <XXH32_digest>
    40107724:	6b00029f 	cmp	w20, w0
    40107728:	54fffae0 	b.eq	40107684 <LZ4F_decompress+0x808>
    4010772c:	92800234 	mov	x20, #0xffffffffffffffee    	// #-18
    40107730:	17fffe6f 	b	401070ec <LZ4F_decompress+0x270>
    40107734:	cb1302a0 	sub	x0, x21, x19
    40107738:	f1000c1f 	cmp	x0, #0x3
    4010773c:	5400030d 	b.le	4010779c <LZ4F_decompress+0x920>
    40107740:	aa1303f7 	mov	x23, x19
    40107744:	91001273 	add	x19, x19, #0x4
    40107748:	b9402760 	ldr	w0, [x27,#36]
    4010774c:	7100341f 	cmp	w0, #0xd
    40107750:	54000361 	b.ne	401077bc <LZ4F_decompress+0x940>
    40107754:	a944df60 	ldp	x0, x23, [x27,#72]
    40107758:	cb1302a1 	sub	x1, x21, x19
    4010775c:	cb0002f7 	sub	x23, x23, x0
    40107760:	8b000340 	add	x0, x26, x0
    40107764:	eb0102ff 	cmp	x23, x1
    40107768:	9a8192f7 	csel	x23, x23, x1, ls
    4010776c:	aa1303e1 	mov	x1, x19
    40107770:	aa1703e2 	mov	x2, x23
    40107774:	8b170273 	add	x19, x19, x23
    40107778:	97ffe976 	bl	40101d50 <memcpy>
    4010777c:	f9402760 	ldr	x0, [x27,#72]
    40107780:	8b0002f7 	add	x23, x23, x0
    40107784:	f9402b60 	ldr	x0, [x27,#80]
    40107788:	f9002777 	str	x23, [x27,#72]
    4010778c:	eb0002ff 	cmp	x23, x0
    40107790:	54000142 	b.cs	401077b8 <LZ4F_decompress+0x93c>
    40107794:	cb170014 	sub	x20, x0, x23
    40107798:	17fffe0c 	b	40106fc8 <LZ4F_decompress+0x14c>
    4010779c:	d2800080 	mov	x0, #0x4                   	// #4
    401077a0:	f9002760 	str	x0, [x27,#72]
    401077a4:	d2800100 	mov	x0, #0x8                   	// #8
    401077a8:	f9002b60 	str	x0, [x27,#80]
    401077ac:	528001a0 	mov	w0, #0xd                   	// #13
    401077b0:	b9002760 	str	w0, [x27,#36]
    401077b4:	17ffffe5 	b	40107748 <LZ4F_decompress+0x8cc>
    401077b8:	9103b377 	add	x23, x27, #0xec
    401077bc:	aa1703e0 	mov	x0, x23
    401077c0:	97fff4de 	bl	40104b38 <LZ4F_readLE32>
    401077c4:	2a0003e0 	mov	w0, w0
    401077c8:	f9000b60 	str	x0, [x27,#16]
    401077cc:	f9002b60 	str	x0, [x27,#80]
    401077d0:	528001c0 	mov	w0, #0xe                   	// #14
    401077d4:	17fffe7e 	b	401071cc <LZ4F_decompress+0x350>
    401077d8:	f9402b74 	ldr	x20, [x27,#80]
    401077dc:	cb1302b5 	sub	x21, x21, x19
    401077e0:	eb1402bf 	cmp	x21, x20
    401077e4:	9a9492b5 	csel	x21, x21, x20, ls
    401077e8:	cb150294 	sub	x20, x20, x21
    401077ec:	f9002b74 	str	x20, [x27,#80]
    401077f0:	8b150273 	add	x19, x19, x21
    401077f4:	b5ffbeb4 	cbnz	x20, 40106fc8 <LZ4F_decompress+0x14c>
    401077f8:	b900277f 	str	wzr, [x27,#36]
    401077fc:	a9067f7f 	stp	xzr, xzr, [x27,#96]
    40107800:	17fffdf2 	b	40106fc8 <LZ4F_decompress+0x14c>
    40107804:	d2800002 	mov	x2, #0x0                   	// #0
    40107808:	17fffe0a 	b	40107030 <LZ4F_decompress+0x1b4>
    4010780c:	f140407f 	cmp	x3, #0x10, lsl #12
    40107810:	d2a00035 	mov	x21, #0x10000               	// #65536
    40107814:	9a959075 	csel	x21, x3, x21, ls
    40107818:	cb150063 	sub	x3, x3, x21
    4010781c:	aa1503e2 	mov	x2, x21
    40107820:	8b030021 	add	x1, x1, x3
    40107824:	97ffe94b 	bl	40101d50 <memcpy>
    40107828:	f9402f60 	ldr	x0, [x27,#88]
    4010782c:	a9065760 	stp	x0, x21, [x27,#96]
    40107830:	8b150015 	add	x21, x0, x21
    40107834:	f9003b75 	str	x21, [x27,#112]
    40107838:	17fffe08 	b	40107058 <LZ4F_decompress+0x1dc>
    4010783c:	92800034 	mov	x20, #0xfffffffffffffffe    	// #-2
    40107840:	17fffe2b 	b	401070ec <LZ4F_decompress+0x270>
    40107844:	92800014 	mov	x20, #0xffffffffffffffff    	// #-1
    40107848:	17fffe29 	b	401070ec <LZ4F_decompress+0x270>
    4010784c:	928001f4 	mov	x20, #0xfffffffffffffff0    	// #-16
    40107850:	17fffe27 	b	401070ec <LZ4F_decompress+0x270>
    40107854:	928001b4 	mov	x20, #0xfffffffffffffff2    	// #-14
    40107858:	17fffe25 	b	401070ec <LZ4F_decompress+0x270>

000000004010785c <XXH32_avalanche>:
    4010785c:	4a403c00 	eor	w0, w0, w0, lsr #15
    40107860:	52994ee1 	mov	w1, #0xca77                	// #51831
    40107864:	72b0bd61 	movk	w1, #0x85eb, lsl #16
    40107868:	1b017c00 	mul	w0, w0, w1
    4010786c:	5295c7a1 	mov	w1, #0xae3d                	// #44605
    40107870:	72b85641 	movk	w1, #0xc2b2, lsl #16
    40107874:	4a403400 	eor	w0, w0, w0, lsr #13
    40107878:	1b017c00 	mul	w0, w0, w1
    4010787c:	4a404000 	eor	w0, w0, w0, lsr #16
    40107880:	d65f03c0 	ret

0000000040107884 <XXH_read32>:
    40107884:	a9be7bfd 	stp	x29, x30, [sp,#-32]!
    40107888:	aa0003e1 	mov	x1, x0
    4010788c:	d2800082 	mov	x2, #0x4                   	// #4
    40107890:	910003fd 	mov	x29, sp
    40107894:	910073a0 	add	x0, x29, #0x1c
    40107898:	97ffe92e 	bl	40101d50 <memcpy>
    4010789c:	b9401fa0 	ldr	w0, [x29,#28]
    401078a0:	a8c27bfd 	ldp	x29, x30, [sp],#32
    401078a4:	d65f03c0 	ret

00000000401078a8 <XXH32_finalize.constprop.1>:
    401078a8:	a9bd7bfd 	stp	x29, x30, [sp,#-48]!
    401078ac:	92400c42 	and	x2, x2, #0xf
    401078b0:	d1000442 	sub	x2, x2, #0x1
    401078b4:	910003fd 	mov	x29, sp
    401078b8:	f90013f5 	str	x21, [sp,#32]
    401078bc:	f100385f 	cmp	x2, #0xe
    401078c0:	a90153f3 	stp	x19, x20, [sp,#16]
    401078c4:	2a0003f5 	mov	w21, w0
    401078c8:	54001ba8 	b.hi	40107c3c <XXH32_finalize.constprop.1+0x394>
    401078cc:	7100385f 	cmp	w2, #0xe
    401078d0:	54001b68 	b.hi	40107c3c <XXH32_finalize.constprop.1+0x394>
    401078d4:	90000020 	adrp	x0, 4010b000 <__func__.4011+0x10>
    401078d8:	aa0103f3 	mov	x19, x1
    401078dc:	2a0303f4 	mov	w20, w3
    401078e0:	911aa000 	add	x0, x0, #0x6a8
    401078e4:	78625800 	ldrh	w0, [x0,w2,uxtw #1]
    401078e8:	10000061 	adr	x1, 401078f4 <XXH32_finalize.constprop.1+0x4c>
    401078ec:	8b20a820 	add	x0, x1, w0, sxth #2
    401078f0:	d61f0000 	br	x0
    401078f4:	7100047f 	cmp	w3, #0x1
    401078f8:	540004c1 	b.ne	40107990 <XXH32_finalize.constprop.1+0xe8>
    401078fc:	aa1303e0 	mov	x0, x19
    40107900:	97ffffe1 	bl	40107884 <XXH_read32>
    40107904:	5295c7a1 	mov	w1, #0xae3d                	// #44605
    40107908:	91001273 	add	x19, x19, #0x4
    4010790c:	72b85641 	movk	w1, #0xc2b2, lsl #16
    40107910:	1b015400 	madd	w0, w0, w1, w21
    40107914:	529d65f5 	mov	w21, #0xeb2f                	// #60207
    40107918:	72a4fa95 	movk	w21, #0x27d4, lsl #16
    4010791c:	13803c00 	ror	w0, w0, #15
    40107920:	1b157c15 	mul	w21, w0, w21
    40107924:	7100069f 	cmp	w20, #0x1
    40107928:	54000381 	b.ne	40107998 <XXH32_finalize.constprop.1+0xf0>
    4010792c:	aa1303e0 	mov	x0, x19
    40107930:	97ffffd5 	bl	40107884 <XXH_read32>
    40107934:	5295c7a1 	mov	w1, #0xae3d                	// #44605
    40107938:	91001273 	add	x19, x19, #0x4
    4010793c:	72b85641 	movk	w1, #0xc2b2, lsl #16
    40107940:	1b015400 	madd	w0, w0, w1, w21
    40107944:	529d65f5 	mov	w21, #0xeb2f                	// #60207
    40107948:	72a4fa95 	movk	w21, #0x27d4, lsl #16
    4010794c:	13803c00 	ror	w0, w0, #15
    40107950:	1b157c15 	mul	w21, w0, w21
    40107954:	7100069f 	cmp	w20, #0x1
    40107958:	54000241 	b.ne	401079a0 <XXH32_finalize.constprop.1+0xf8>
    4010795c:	aa1303e0 	mov	x0, x19
    40107960:	97ffffc9 	bl	40107884 <XXH_read32>
    40107964:	5295c7a1 	mov	w1, #0xae3d                	// #44605
    40107968:	72b85641 	movk	w1, #0xc2b2, lsl #16
    4010796c:	1b015400 	madd	w0, w0, w1, w21
    40107970:	529d65e1 	mov	w1, #0xeb2f                	// #60207
    40107974:	72a4fa81 	movk	w1, #0x27d4, lsl #16
    40107978:	13803c00 	ror	w0, w0, #15
    4010797c:	1b017c00 	mul	w0, w0, w1
    40107980:	a94153f3 	ldp	x19, x20, [sp,#16]
    40107984:	f94013f5 	ldr	x21, [sp,#32]
    40107988:	a8c37bfd 	ldp	x29, x30, [sp],#48
    4010798c:	17ffffb4 	b	4010785c <XXH32_avalanche>
    40107990:	b9400260 	ldr	w0, [x19]
    40107994:	17ffffdc 	b	40107904 <XXH32_finalize.constprop.1+0x5c>
    40107998:	b9400260 	ldr	w0, [x19]
    4010799c:	17ffffe6 	b	40107934 <XXH32_finalize.constprop.1+0x8c>
    401079a0:	b9400260 	ldr	w0, [x19]
    401079a4:	17fffff0 	b	40107964 <XXH32_finalize.constprop.1+0xbc>
    401079a8:	7100047f 	cmp	w3, #0x1
    401079ac:	54000541 	b.ne	40107a54 <XXH32_finalize.constprop.1+0x1ac>
    401079b0:	aa1303e0 	mov	x0, x19
    401079b4:	97ffffb4 	bl	40107884 <XXH_read32>
    401079b8:	5295c7a1 	mov	w1, #0xae3d                	// #44605
    401079bc:	91001273 	add	x19, x19, #0x4
    401079c0:	72b85641 	movk	w1, #0xc2b2, lsl #16
    401079c4:	1b015400 	madd	w0, w0, w1, w21
    401079c8:	529d65f5 	mov	w21, #0xeb2f                	// #60207
    401079cc:	72a4fa95 	movk	w21, #0x27d4, lsl #16
    401079d0:	13803c00 	ror	w0, w0, #15
    401079d4:	1b157c15 	mul	w21, w0, w21
    401079d8:	7100069f 	cmp	w20, #0x1
    401079dc:	54000401 	b.ne	40107a5c <XXH32_finalize.constprop.1+0x1b4>
    401079e0:	aa1303e0 	mov	x0, x19
    401079e4:	97ffffa8 	bl	40107884 <XXH_read32>
    401079e8:	5295c7a1 	mov	w1, #0xae3d                	// #44605
    401079ec:	91001273 	add	x19, x19, #0x4
    401079f0:	72b85641 	movk	w1, #0xc2b2, lsl #16
    401079f4:	1b015400 	madd	w0, w0, w1, w21
    401079f8:	529d65f5 	mov	w21, #0xeb2f                	// #60207
    401079fc:	72a4fa95 	movk	w21, #0x27d4, lsl #16
    40107a00:	13803c00 	ror	w0, w0, #15
    40107a04:	1b157c15 	mul	w21, w0, w21
    40107a08:	7100069f 	cmp	w20, #0x1
    40107a0c:	540002c1 	b.ne	40107a64 <XXH32_finalize.constprop.1+0x1bc>
    40107a10:	aa1303e0 	mov	x0, x19
    40107a14:	97ffff9c 	bl	40107884 <XXH_read32>
    40107a18:	5295c7a1 	mov	w1, #0xae3d                	// #44605
    40107a1c:	72b85641 	movk	w1, #0xc2b2, lsl #16
    40107a20:	1b015400 	madd	w0, w0, w1, w21
    40107a24:	39401275 	ldrb	w21, [x19,#4]
    40107a28:	528cf621 	mov	w1, #0x67b1                	// #26545
    40107a2c:	72a2cac1 	movk	w1, #0x1656, lsl #16
    40107a30:	13803c00 	ror	w0, w0, #15
    40107a34:	1b017eb5 	mul	w21, w21, w1
    40107a38:	529d65e1 	mov	w1, #0xeb2f                	// #60207
    40107a3c:	72a4fa81 	movk	w1, #0x27d4, lsl #16
    40107a40:	1b015400 	madd	w0, w0, w1, w21
    40107a44:	528f3621 	mov	w1, #0x79b1                	// #31153
    40107a48:	72b3c6e1 	movk	w1, #0x9e37, lsl #16
    40107a4c:	13805400 	ror	w0, w0, #21
    40107a50:	17ffffcb 	b	4010797c <XXH32_finalize.constprop.1+0xd4>
    40107a54:	b9400260 	ldr	w0, [x19]
    40107a58:	17ffffd8 	b	401079b8 <XXH32_finalize.constprop.1+0x110>
    40107a5c:	b9400260 	ldr	w0, [x19]
    40107a60:	17ffffe2 	b	401079e8 <XXH32_finalize.constprop.1+0x140>
    40107a64:	b9400260 	ldr	w0, [x19]
    40107a68:	17ffffec 	b	40107a18 <XXH32_finalize.constprop.1+0x170>
    40107a6c:	7100047f 	cmp	w3, #0x1
    40107a70:	540005e1 	b.ne	40107b2c <XXH32_finalize.constprop.1+0x284>
    40107a74:	aa1303e0 	mov	x0, x19
    40107a78:	97ffff83 	bl	40107884 <XXH_read32>
    40107a7c:	5295c7a1 	mov	w1, #0xae3d                	// #44605
    40107a80:	91001273 	add	x19, x19, #0x4
    40107a84:	72b85641 	movk	w1, #0xc2b2, lsl #16
    40107a88:	1b015400 	madd	w0, w0, w1, w21
    40107a8c:	529d65f5 	mov	w21, #0xeb2f                	// #60207
    40107a90:	72a4fa95 	movk	w21, #0x27d4, lsl #16
    40107a94:	13803c00 	ror	w0, w0, #15
    40107a98:	1b157c15 	mul	w21, w0, w21
    40107a9c:	7100069f 	cmp	w20, #0x1
    40107aa0:	540004a1 	b.ne	40107b34 <XXH32_finalize.constprop.1+0x28c>
    40107aa4:	aa1303e0 	mov	x0, x19
    40107aa8:	97ffff77 	bl	40107884 <XXH_read32>
    40107aac:	5295c7a1 	mov	w1, #0xae3d                	// #44605
    40107ab0:	91001273 	add	x19, x19, #0x4
    40107ab4:	72b85641 	movk	w1, #0xc2b2, lsl #16
    40107ab8:	1b015400 	madd	w0, w0, w1, w21
    40107abc:	529d65f5 	mov	w21, #0xeb2f                	// #60207
    40107ac0:	72a4fa95 	movk	w21, #0x27d4, lsl #16
    40107ac4:	13803c00 	ror	w0, w0, #15
    40107ac8:	1b157c15 	mul	w21, w0, w21
    40107acc:	7100069f 	cmp	w20, #0x1
    40107ad0:	54000361 	b.ne	40107b3c <XXH32_finalize.constprop.1+0x294>
    40107ad4:	aa1303e0 	mov	x0, x19
    40107ad8:	97ffff6b 	bl	40107884 <XXH_read32>
    40107adc:	5295c7a1 	mov	w1, #0xae3d                	// #44605
    40107ae0:	528cf623 	mov	w3, #0x67b1                	// #26545
    40107ae4:	72b85641 	movk	w1, #0xc2b2, lsl #16
    40107ae8:	72a2cac3 	movk	w3, #0x1656, lsl #16
    40107aec:	528f3622 	mov	w2, #0x79b1                	// #31153
    40107af0:	1b015400 	madd	w0, w0, w1, w21
    40107af4:	39401275 	ldrb	w21, [x19,#4]
    40107af8:	529d65e1 	mov	w1, #0xeb2f                	// #60207
    40107afc:	72b3c6e2 	movk	w2, #0x9e37, lsl #16
    40107b00:	72a4fa81 	movk	w1, #0x27d4, lsl #16
    40107b04:	13803c00 	ror	w0, w0, #15
    40107b08:	1b037eb5 	mul	w21, w21, w3
    40107b0c:	1b015400 	madd	w0, w0, w1, w21
    40107b10:	39401661 	ldrb	w1, [x19,#5]
    40107b14:	13805400 	ror	w0, w0, #21
    40107b18:	1b037c21 	mul	w1, w1, w3
    40107b1c:	1b020400 	madd	w0, w0, w2, w1
    40107b20:	13805400 	ror	w0, w0, #21
    40107b24:	1b027c00 	mul	w0, w0, w2
    40107b28:	17ffff96 	b	40107980 <XXH32_finalize.constprop.1+0xd8>
    40107b2c:	b9400260 	ldr	w0, [x19]
    40107b30:	17ffffd3 	b	40107a7c <XXH32_finalize.constprop.1+0x1d4>
    40107b34:	b9400260 	ldr	w0, [x19]
    40107b38:	17ffffdd 	b	40107aac <XXH32_finalize.constprop.1+0x204>
    40107b3c:	b9400260 	ldr	w0, [x19]
    40107b40:	17ffffe7 	b	40107adc <XXH32_finalize.constprop.1+0x234>
    40107b44:	7100047f 	cmp	w3, #0x1
    40107b48:	540007e1 	b.ne	40107c44 <XXH32_finalize.constprop.1+0x39c>
    40107b4c:	aa1303e0 	mov	x0, x19
    40107b50:	97ffff4d 	bl	40107884 <XXH_read32>
    40107b54:	5295c7a1 	mov	w1, #0xae3d                	// #44605
    40107b58:	91001273 	add	x19, x19, #0x4
    40107b5c:	72b85641 	movk	w1, #0xc2b2, lsl #16
    40107b60:	1b015400 	madd	w0, w0, w1, w21
    40107b64:	529d65f5 	mov	w21, #0xeb2f                	// #60207
    40107b68:	72a4fa95 	movk	w21, #0x27d4, lsl #16
    40107b6c:	13803c00 	ror	w0, w0, #15
    40107b70:	1b157c15 	mul	w21, w0, w21
    40107b74:	7100069f 	cmp	w20, #0x1
    40107b78:	540006a1 	b.ne	40107c4c <XXH32_finalize.constprop.1+0x3a4>
    40107b7c:	aa1303e0 	mov	x0, x19
    40107b80:	97ffff41 	bl	40107884 <XXH_read32>
    40107b84:	5295c7a1 	mov	w1, #0xae3d                	// #44605
    40107b88:	91001273 	add	x19, x19, #0x4
    40107b8c:	72b85641 	movk	w1, #0xc2b2, lsl #16
    40107b90:	1b015400 	madd	w0, w0, w1, w21
    40107b94:	529d65f5 	mov	w21, #0xeb2f                	// #60207
    40107b98:	72a4fa95 	movk	w21, #0x27d4, lsl #16
    40107b9c:	13803c00 	ror	w0, w0, #15
    40107ba0:	1b157c15 	mul	w21, w0, w21
    40107ba4:	7100069f 	cmp	w20, #0x1
    40107ba8:	54000561 	b.ne	40107c54 <XXH32_finalize.constprop.1+0x3ac>
    40107bac:	aa1303e0 	mov	x0, x19
    40107bb0:	97ffff35 	bl	40107884 <XXH_read32>
    40107bb4:	5295c7a1 	mov	w1, #0xae3d                	// #44605
    40107bb8:	91001273 	add	x19, x19, #0x4
    40107bbc:	72b85641 	movk	w1, #0xc2b2, lsl #16
    40107bc0:	1b015400 	madd	w0, w0, w1, w21
    40107bc4:	529d65f5 	mov	w21, #0xeb2f                	// #60207
    40107bc8:	72a4fa95 	movk	w21, #0x27d4, lsl #16
    40107bcc:	13803c00 	ror	w0, w0, #15
    40107bd0:	1b157c15 	mul	w21, w0, w21
    40107bd4:	39400262 	ldrb	w2, [x19]
    40107bd8:	528cf621 	mov	w1, #0x67b1                	// #26545
    40107bdc:	72a2cac1 	movk	w1, #0x1656, lsl #16
    40107be0:	91000660 	add	x0, x19, #0x1
    40107be4:	1b015455 	madd	w21, w2, w1, w21
    40107be8:	528f3621 	mov	w1, #0x79b1                	// #31153
    40107bec:	72b3c6e1 	movk	w1, #0x9e37, lsl #16
    40107bf0:	139556b5 	ror	w21, w21, #21
    40107bf4:	1b017eb5 	mul	w21, w21, w1
    40107bf8:	91000413 	add	x19, x0, #0x1
    40107bfc:	39400000 	ldrb	w0, [x0]
    40107c00:	528cf621 	mov	w1, #0x67b1                	// #26545
    40107c04:	72a2cac1 	movk	w1, #0x1656, lsl #16
    40107c08:	1b015415 	madd	w21, w0, w1, w21
    40107c0c:	528f3620 	mov	w0, #0x79b1                	// #31153
    40107c10:	72b3c6e0 	movk	w0, #0x9e37, lsl #16
    40107c14:	139556b5 	ror	w21, w21, #21
    40107c18:	1b007eb5 	mul	w21, w21, w0
    40107c1c:	39400260 	ldrb	w0, [x19]
    40107c20:	528cf621 	mov	w1, #0x67b1                	// #26545
    40107c24:	72a2cac1 	movk	w1, #0x1656, lsl #16
    40107c28:	1b015415 	madd	w21, w0, w1, w21
    40107c2c:	528f3620 	mov	w0, #0x79b1                	// #31153
    40107c30:	72b3c6e0 	movk	w0, #0x9e37, lsl #16
    40107c34:	139556b5 	ror	w21, w21, #21
    40107c38:	1b007eb5 	mul	w21, w21, w0
    40107c3c:	2a1503e0 	mov	w0, w21
    40107c40:	17ffff50 	b	40107980 <XXH32_finalize.constprop.1+0xd8>
    40107c44:	b9400260 	ldr	w0, [x19]
    40107c48:	17ffffc3 	b	40107b54 <XXH32_finalize.constprop.1+0x2ac>
    40107c4c:	b9400260 	ldr	w0, [x19]
    40107c50:	17ffffcd 	b	40107b84 <XXH32_finalize.constprop.1+0x2dc>
    40107c54:	b9400260 	ldr	w0, [x19]
    40107c58:	17ffffd7 	b	40107bb4 <XXH32_finalize.constprop.1+0x30c>
    40107c5c:	aa1303e0 	mov	x0, x19
    40107c60:	17ffffe6 	b	40107bf8 <XXH32_finalize.constprop.1+0x350>

0000000040107c64 <XXH32>:
    40107c64:	a9ba7bfd 	stp	x29, x30, [sp,#-96]!
    40107c68:	f240041f 	tst	x0, #0x3
    40107c6c:	910003fd 	mov	x29, sp
    40107c70:	a90153f3 	stp	x19, x20, [sp,#16]
    40107c74:	2a0203f4 	mov	w20, w2
    40107c78:	a9046bf9 	stp	x25, x26, [sp,#64]
    40107c7c:	aa0103fa 	mov	x26, x1
    40107c80:	a9025bf5 	stp	x21, x22, [sp,#32]
    40107c84:	a90363f7 	stp	x23, x24, [sp,#48]
    40107c88:	f9002bfb 	str	x27, [sp,#80]
    40107c8c:	54000741 	b.ne	40107d74 <XXH32+0x110>
    40107c90:	f1003c3f 	cmp	x1, #0xf
    40107c94:	54000669 	b.ls	40107d60 <XXH32+0xfc>
    40107c98:	d1003c28 	sub	x8, x1, #0xf
    40107c9c:	52888503 	mov	w3, #0x4428                	// #17448
    40107ca0:	52994ee6 	mov	w6, #0xca77                	// #51831
    40107ca4:	5290c9e5 	mov	w5, #0x864f                	// #34383
    40107ca8:	72a48463 	movk	w3, #0x2423, lsl #16
    40107cac:	72b0bd66 	movk	w6, #0x85eb, lsl #16
    40107cb0:	0b030043 	add	w3, w2, w3
    40107cb4:	0b060047 	add	w7, w2, w6
    40107cb8:	72ac3905 	movk	w5, #0x61c8, lsl #16
    40107cbc:	8b080008 	add	x8, x0, x8
    40107cc0:	0b050045 	add	w5, w2, w5
    40107cc4:	aa0003e1 	mov	x1, x0
    40107cc8:	528f3622 	mov	w2, #0x79b1                	// #31153
    40107ccc:	72b3c6e2 	movk	w2, #0x9e37, lsl #16
    40107cd0:	b9400824 	ldr	w4, [x1,#8]
    40107cd4:	91004021 	add	x1, x1, #0x10
    40107cd8:	b85f0020 	ldur	w0, [x1,#-16]
    40107cdc:	1b065084 	madd	w4, w4, w6, w20
    40107ce0:	1b060c03 	madd	w3, w0, w6, w3
    40107ce4:	b85f4020 	ldur	w0, [x1,#-12]
    40107ce8:	13844c84 	ror	w4, w4, #19
    40107cec:	13834c63 	ror	w3, w3, #19
    40107cf0:	1b061c07 	madd	w7, w0, w6, w7
    40107cf4:	1b027c94 	mul	w20, w4, w2
    40107cf8:	b85fc024 	ldur	w4, [x1,#-4]
    40107cfc:	1b027c63 	mul	w3, w3, w2
    40107d00:	eb01011f 	cmp	x8, x1
    40107d04:	13874ce7 	ror	w7, w7, #19
    40107d08:	1b061485 	madd	w5, w4, w6, w5
    40107d0c:	1b027ce7 	mul	w7, w7, w2
    40107d10:	13854ca5 	ror	w5, w5, #19
    40107d14:	1b027ca5 	mul	w5, w5, w2
    40107d18:	54fffdc8 	b.hi	40107cd0 <XXH32+0x6c>
    40107d1c:	13945284 	ror	w4, w20, #20
    40107d20:	138538a5 	ror	w5, w5, #14
    40107d24:	13837c63 	ror	w3, w3, #31
    40107d28:	0b050084 	add	w4, w4, w5
    40107d2c:	138764e7 	ror	w7, w7, #25
    40107d30:	0b070063 	add	w3, w3, w7
    40107d34:	0b030084 	add	w4, w4, w3
    40107d38:	92400f42 	and	x2, x26, #0xf
    40107d3c:	52800003 	mov	w3, #0x0                   	// #0
    40107d40:	0b1a0080 	add	w0, w4, w26
    40107d44:	f9402bfb 	ldr	x27, [sp,#80]
    40107d48:	a94153f3 	ldp	x19, x20, [sp,#16]
    40107d4c:	a9425bf5 	ldp	x21, x22, [sp,#32]
    40107d50:	a94363f7 	ldp	x23, x24, [sp,#48]
    40107d54:	a9446bf9 	ldp	x25, x26, [sp,#64]
    40107d58:	a8c67bfd 	ldp	x29, x30, [sp],#96
    40107d5c:	17fffed3 	b	401078a8 <XXH32_finalize.constprop.1>
    40107d60:	528cf624 	mov	w4, #0x67b1                	// #26545
    40107d64:	aa0003e1 	mov	x1, x0
    40107d68:	72a2cac4 	movk	w4, #0x1656, lsl #16
    40107d6c:	0b040044 	add	w4, w2, w4
    40107d70:	17fffff2 	b	40107d38 <XXH32+0xd4>
    40107d74:	f1003c3f 	cmp	x1, #0xf
    40107d78:	54000629 	b.ls	40107e3c <XXH32+0x1d8>
    40107d7c:	d1003c3b 	sub	x27, x1, #0xf
    40107d80:	52888515 	mov	w21, #0x4428                	// #17448
    40107d84:	52994ef7 	mov	w23, #0xca77                	// #51831
    40107d88:	5290c9f6 	mov	w22, #0x864f                	// #34383
    40107d8c:	72a48475 	movk	w21, #0x2423, lsl #16
    40107d90:	72b0bd77 	movk	w23, #0x85eb, lsl #16
    40107d94:	72ac3916 	movk	w22, #0x61c8, lsl #16
    40107d98:	528f3638 	mov	w24, #0x79b1                	// #31153
    40107d9c:	8b1b001b 	add	x27, x0, x27
    40107da0:	0b150055 	add	w21, w2, w21
    40107da4:	0b170059 	add	w25, w2, w23
    40107da8:	0b160056 	add	w22, w2, w22
    40107dac:	aa0003f3 	mov	x19, x0
    40107db0:	72b3c6f8 	movk	w24, #0x9e37, lsl #16
    40107db4:	aa1303e0 	mov	x0, x19
    40107db8:	97fffeb3 	bl	40107884 <XXH_read32>
    40107dbc:	1b175415 	madd	w21, w0, w23, w21
    40107dc0:	91001260 	add	x0, x19, #0x4
    40107dc4:	97fffeb0 	bl	40107884 <XXH_read32>
    40107dc8:	1b176419 	madd	w25, w0, w23, w25
    40107dcc:	91002260 	add	x0, x19, #0x8
    40107dd0:	97fffead 	bl	40107884 <XXH_read32>
    40107dd4:	1b175004 	madd	w4, w0, w23, w20
    40107dd8:	91003260 	add	x0, x19, #0xc
    40107ddc:	13954eb5 	ror	w21, w21, #19
    40107de0:	91004273 	add	x19, x19, #0x10
    40107de4:	13994f39 	ror	w25, w25, #19
    40107de8:	13844c84 	ror	w4, w4, #19
    40107dec:	1b187eb5 	mul	w21, w21, w24
    40107df0:	1b187f39 	mul	w25, w25, w24
    40107df4:	1b187c94 	mul	w20, w4, w24
    40107df8:	97fffea3 	bl	40107884 <XXH_read32>
    40107dfc:	1b175816 	madd	w22, w0, w23, w22
    40107e00:	eb13037f 	cmp	x27, x19
    40107e04:	13964ed6 	ror	w22, w22, #19
    40107e08:	1b187ed6 	mul	w22, w22, w24
    40107e0c:	54fffd48 	b.hi	40107db4 <XXH32+0x150>
    40107e10:	13945284 	ror	w4, w20, #20
    40107e14:	13963ad6 	ror	w22, w22, #14
    40107e18:	13957ea0 	ror	w0, w21, #31
    40107e1c:	0b160084 	add	w4, w4, w22
    40107e20:	13996739 	ror	w25, w25, #25
    40107e24:	0b190000 	add	w0, w0, w25
    40107e28:	0b000084 	add	w4, w4, w0
    40107e2c:	52800023 	mov	w3, #0x1                   	// #1
    40107e30:	92400f42 	and	x2, x26, #0xf
    40107e34:	aa1303e1 	mov	x1, x19
    40107e38:	17ffffc2 	b	40107d40 <XXH32+0xdc>
    40107e3c:	528cf624 	mov	w4, #0x67b1                	// #26545
    40107e40:	aa0003f3 	mov	x19, x0
    40107e44:	72a2cac4 	movk	w4, #0x1656, lsl #16
    40107e48:	0b040044 	add	w4, w2, w4
    40107e4c:	17fffff8 	b	40107e2c <XXH32+0x1c8>

0000000040107e50 <XXH32_reset>:
    40107e50:	a9bb7bfd 	stp	x29, x30, [sp,#-80]!
    40107e54:	d2800602 	mov	x2, #0x30                  	// #48
    40107e58:	910003fd 	mov	x29, sp
    40107e5c:	a90153f3 	stp	x19, x20, [sp,#16]
    40107e60:	2a0103f3 	mov	w19, w1
    40107e64:	aa0003f4 	mov	x20, x0
    40107e68:	52800001 	mov	w1, #0x0                   	// #0
    40107e6c:	910083a0 	add	x0, x29, #0x20
    40107e70:	97ffe799 	bl	40101cd4 <memset>
    40107e74:	52888500 	mov	w0, #0x4428                	// #17448
    40107e78:	910083a1 	add	x1, x29, #0x20
    40107e7c:	72a48460 	movk	w0, #0x2423, lsl #16
    40107e80:	0b000260 	add	w0, w19, w0
    40107e84:	b9002ba0 	str	w0, [x29,#40]
    40107e88:	52994ee0 	mov	w0, #0xca77                	// #51831
    40107e8c:	72b0bd60 	movk	w0, #0x85eb, lsl #16
    40107e90:	0b000260 	add	w0, w19, w0
    40107e94:	b9002fa0 	str	w0, [x29,#44]
    40107e98:	5290c9e0 	mov	w0, #0x864f                	// #34383
    40107e9c:	72ac3900 	movk	w0, #0x61c8, lsl #16
    40107ea0:	b90033b3 	str	w19, [x29,#48]
    40107ea4:	d2800582 	mov	x2, #0x2c                  	// #44
    40107ea8:	0b000273 	add	w19, w19, w0
    40107eac:	aa1403e0 	mov	x0, x20
    40107eb0:	b90037b3 	str	w19, [x29,#52]
    40107eb4:	97ffe7a7 	bl	40101d50 <memcpy>
    40107eb8:	52800000 	mov	w0, #0x0                   	// #0
    40107ebc:	a94153f3 	ldp	x19, x20, [sp,#16]
    40107ec0:	a8c57bfd 	ldp	x29, x30, [sp],#80
    40107ec4:	d65f03c0 	ret

0000000040107ec8 <XXH32_update>:
    40107ec8:	b40010a1 	cbz	x1, 401080dc <XXH32_update+0x214>
    40107ecc:	a9b97bfd 	stp	x29, x30, [sp,#-112]!
    40107ed0:	f1003c5f 	cmp	x2, #0xf
    40107ed4:	910003fd 	mov	x29, sp
    40107ed8:	a90153f3 	stp	x19, x20, [sp,#16]
    40107edc:	aa0003f3 	mov	x19, x0
    40107ee0:	b9400000 	ldr	w0, [x0]
    40107ee4:	aa0103f4 	mov	x20, x1
    40107ee8:	a9025bf5 	stp	x21, x22, [sp,#32]
    40107eec:	aa0203f5 	mov	x21, x2
    40107ef0:	0b020000 	add	w0, w0, w2
    40107ef4:	a90363f7 	stp	x23, x24, [sp,#48]
    40107ef8:	a9046bf9 	stp	x25, x26, [sp,#64]
    40107efc:	7a4f9802 	ccmp	w0, #0xf, #0x2, ls
    40107f00:	a90573fb 	stp	x27, x28, [sp,#80]
    40107f04:	1a9f97e3 	cset	w3, hi
    40107f08:	b9000260 	str	w0, [x19]
    40107f0c:	8b020036 	add	x22, x1, x2
    40107f10:	b9400660 	ldr	w0, [x19,#4]
    40107f14:	2a030000 	orr	w0, w0, w3
    40107f18:	b9402a63 	ldr	w3, [x19,#40]
    40107f1c:	b9000660 	str	w0, [x19,#4]
    40107f20:	2a0303e0 	mov	w0, w3
    40107f24:	8b000044 	add	x4, x2, x0
    40107f28:	f1003c9f 	cmp	x4, #0xf
    40107f2c:	540001e8 	b.hi	40107f68 <XXH32_update+0xa0>
    40107f30:	91006263 	add	x3, x19, #0x18
    40107f34:	8b000060 	add	x0, x3, x0
    40107f38:	97ffe786 	bl	40101d50 <memcpy>
    40107f3c:	b9402a60 	ldr	w0, [x19,#40]
    40107f40:	0b150015 	add	w21, w0, w21
    40107f44:	b9002a75 	str	w21, [x19,#40]
    40107f48:	a94153f3 	ldp	x19, x20, [sp,#16]
    40107f4c:	52800000 	mov	w0, #0x0                   	// #0
    40107f50:	a9425bf5 	ldp	x21, x22, [sp,#32]
    40107f54:	a94363f7 	ldp	x23, x24, [sp,#48]
    40107f58:	a9446bf9 	ldp	x25, x26, [sp,#64]
    40107f5c:	a94573fb 	ldp	x27, x28, [sp,#80]
    40107f60:	a8c77bfd 	ldp	x29, x30, [sp],#112
    40107f64:	d65f03c0 	ret
    40107f68:	34000543 	cbz	w3, 40108010 <XXH32_update+0x148>
    40107f6c:	91006275 	add	x21, x19, #0x18
    40107f70:	52800219 	mov	w25, #0x10                  	// #16
    40107f74:	8b0002a0 	add	x0, x21, x0
    40107f78:	4b030322 	sub	w2, w25, w3
    40107f7c:	97ffe775 	bl	40101d50 <memcpy>
    40107f80:	b9400a77 	ldr	w23, [x19,#8]
    40107f84:	aa1503e0 	mov	x0, x21
    40107f88:	52994ef5 	mov	w21, #0xca77                	// #51831
    40107f8c:	72b0bd75 	movk	w21, #0x85eb, lsl #16
    40107f90:	97fffe3d 	bl	40107884 <XXH_read32>
    40107f94:	528f3638 	mov	w24, #0x79b1                	// #31153
    40107f98:	1b155c00 	madd	w0, w0, w21, w23
    40107f9c:	72b3c6f8 	movk	w24, #0x9e37, lsl #16
    40107fa0:	b9400e77 	ldr	w23, [x19,#12]
    40107fa4:	13804c00 	ror	w0, w0, #19
    40107fa8:	1b187c00 	mul	w0, w0, w24
    40107fac:	b9000a60 	str	w0, [x19,#8]
    40107fb0:	91007260 	add	x0, x19, #0x1c
    40107fb4:	97fffe34 	bl	40107884 <XXH_read32>
    40107fb8:	1b155c00 	madd	w0, w0, w21, w23
    40107fbc:	b9401277 	ldr	w23, [x19,#16]
    40107fc0:	13804c00 	ror	w0, w0, #19
    40107fc4:	1b187c00 	mul	w0, w0, w24
    40107fc8:	b9000e60 	str	w0, [x19,#12]
    40107fcc:	91008260 	add	x0, x19, #0x20
    40107fd0:	97fffe2d 	bl	40107884 <XXH_read32>
    40107fd4:	1b155c00 	madd	w0, w0, w21, w23
    40107fd8:	b9401677 	ldr	w23, [x19,#20]
    40107fdc:	13804c00 	ror	w0, w0, #19
    40107fe0:	1b187c00 	mul	w0, w0, w24
    40107fe4:	b9001260 	str	w0, [x19,#16]
    40107fe8:	91009260 	add	x0, x19, #0x24
    40107fec:	97fffe26 	bl	40107884 <XXH_read32>
    40107ff0:	1b155c00 	madd	w0, w0, w21, w23
    40107ff4:	b9402a61 	ldr	w1, [x19,#40]
    40107ff8:	b9002a7f 	str	wzr, [x19,#40]
    40107ffc:	4b010339 	sub	w25, w25, w1
    40108000:	13804c00 	ror	w0, w0, #19
    40108004:	8b190294 	add	x20, x20, x25
    40108008:	1b187c00 	mul	w0, w0, w24
    4010800c:	b9001660 	str	w0, [x19,#20]
    40108010:	d10042c1 	sub	x1, x22, #0x10
    40108014:	eb14003f 	cmp	x1, x20
    40108018:	54000503 	b.cc	401080b8 <XXH32_update+0x1f0>
    4010801c:	29416e7c 	ldp	w28, w27, [x19,#8]
    40108020:	52994efa 	mov	w26, #0xca77                	// #51831
    40108024:	29425e78 	ldp	w24, w23, [x19,#16]
    40108028:	528f3639 	mov	w25, #0x79b1                	// #31153
    4010802c:	aa1403f5 	mov	x21, x20
    40108030:	72b0bd7a 	movk	w26, #0x85eb, lsl #16
    40108034:	72b3c6f9 	movk	w25, #0x9e37, lsl #16
    40108038:	f90037a1 	str	x1, [x29,#104]
    4010803c:	aa1503e0 	mov	x0, x21
    40108040:	97fffe11 	bl	40107884 <XXH_read32>
    40108044:	1b1a701c 	madd	w28, w0, w26, w28
    40108048:	910012a0 	add	x0, x21, #0x4
    4010804c:	97fffe0e 	bl	40107884 <XXH_read32>
    40108050:	1b1a6c1b 	madd	w27, w0, w26, w27
    40108054:	910022a0 	add	x0, x21, #0x8
    40108058:	97fffe0b 	bl	40107884 <XXH_read32>
    4010805c:	1b1a6018 	madd	w24, w0, w26, w24
    40108060:	910032a0 	add	x0, x21, #0xc
    40108064:	97fffe08 	bl	40107884 <XXH_read32>
    40108068:	1b1a5c17 	madd	w23, w0, w26, w23
    4010806c:	139c4f9c 	ror	w28, w28, #19
    40108070:	139b4f7b 	ror	w27, w27, #19
    40108074:	f94037a1 	ldr	x1, [x29,#104]
    40108078:	13984f18 	ror	w24, w24, #19
    4010807c:	910042b5 	add	x21, x21, #0x10
    40108080:	13974ef7 	ror	w23, w23, #19
    40108084:	1b197f9c 	mul	w28, w28, w25
    40108088:	eb15003f 	cmp	x1, x21
    4010808c:	1b197f7b 	mul	w27, w27, w25
    40108090:	1b197f18 	mul	w24, w24, w25
    40108094:	1b197ef7 	mul	w23, w23, w25
    40108098:	54fffd02 	b.cs	40108038 <XXH32_update+0x170>
    4010809c:	91004281 	add	x1, x20, #0x10
    401080a0:	29016e7c 	stp	w28, w27, [x19,#8]
    401080a4:	cb0102c1 	sub	x1, x22, x1
    401080a8:	29025e78 	stp	w24, w23, [x19,#16]
    401080ac:	927cec21 	and	x1, x1, #0xfffffffffffffff0
    401080b0:	91004021 	add	x1, x1, #0x10
    401080b4:	8b010294 	add	x20, x20, x1
    401080b8:	eb1402df 	cmp	x22, x20
    401080bc:	54fff469 	b.ls	40107f48 <XXH32_update+0x80>
    401080c0:	cb1402d6 	sub	x22, x22, x20
    401080c4:	aa1403e1 	mov	x1, x20
    401080c8:	aa1603e2 	mov	x2, x22
    401080cc:	91006260 	add	x0, x19, #0x18
    401080d0:	97ffe720 	bl	40101d50 <memcpy>
    401080d4:	b9002a76 	str	w22, [x19,#40]
    401080d8:	17ffff9c 	b	40107f48 <XXH32_update+0x80>
    401080dc:	52800020 	mov	w0, #0x1                   	// #1
    401080e0:	d65f03c0 	ret

00000000401080e4 <XXH32_digest>:
    401080e4:	b9400401 	ldr	w1, [x0,#4]
    401080e8:	b9401004 	ldr	w4, [x0,#16]
    401080ec:	34000201 	cbz	w1, 4010812c <XXH32_digest+0x48>
    401080f0:	29410801 	ldp	w1, w2, [x0,#8]
    401080f4:	13845084 	ror	w4, w4, #20
    401080f8:	13826442 	ror	w2, w2, #25
    401080fc:	13817c21 	ror	w1, w1, #31
    40108100:	0b020021 	add	w1, w1, w2
    40108104:	b9401402 	ldr	w2, [x0,#20]
    40108108:	13823842 	ror	w2, w2, #14
    4010810c:	0b020084 	add	w4, w4, w2
    40108110:	b9400005 	ldr	w5, [x0]
    40108114:	0b010084 	add	w4, w4, w1
    40108118:	b9402802 	ldr	w2, [x0,#40]
    4010811c:	91006001 	add	x1, x0, #0x18
    40108120:	52800003 	mov	w3, #0x0                   	// #0
    40108124:	0b050080 	add	w0, w4, w5
    40108128:	17fffde0 	b	401078a8 <XXH32_finalize.constprop.1>
    4010812c:	528cf621 	mov	w1, #0x67b1                	// #26545
    40108130:	72a2cac1 	movk	w1, #0x1656, lsl #16
    40108134:	17fffff7 	b	40108110 <XXH32_digest+0x2c>

0000000040108138 <ddr_init>:
    40108138:	a9be7bfd 	stp	x29, x30, [sp,#-32]!
    4010813c:	910003fd 	mov	x29, sp
    40108140:	f9000bf3 	str	x19, [sp,#16]
    40108144:	aa0003f3 	mov	x19, x0
    40108148:	f0000000 	adrp	x0, 4010b000 <__func__.4011+0x10>
    4010814c:	911b1800 	add	x0, x0, #0x6c6
    40108150:	97ffe44d 	bl	40101284 <tf_printf>
    40108154:	b9400261 	ldr	w1, [x19]
    40108158:	f0000000 	adrp	x0, 4010b000 <__func__.4011+0x10>
    4010815c:	911b6000 	add	x0, x0, #0x6d8
    40108160:	97ffe449 	bl	40101284 <tf_printf>
    40108164:	94000006 	bl	4010817c <read_ddr_pkg_info>
    40108168:	940000bc 	bl	40108458 <ddr_sys_bring_up>
    4010816c:	f9400bf3 	ldr	x19, [sp,#16]
    40108170:	52800000 	mov	w0, #0x0                   	// #0
    40108174:	a8c27bfd 	ldp	x29, x30, [sp],#32
    40108178:	d65f03c0 	ret

000000004010817c <read_ddr_pkg_info>:
    4010817c:	a9bc7bfd 	stp	x29, x30, [sp,#-64]!
    40108180:	d2800080 	mov	x0, #0x4                   	// #4
    40108184:	f2a06000 	movk	x0, #0x300, lsl #16
    40108188:	910003fd 	mov	x29, sp
    4010818c:	a9025bf5 	stp	x21, x22, [sp,#32]
    40108190:	d0000055 	adrp	x21, 40112000 <sram_union_buf+0x3400>
    40108194:	b9400016 	ldr	w22, [x0]
    40108198:	d2802100 	mov	x0, #0x108                 	// #264
    4010819c:	f2a060a0 	movk	x0, #0x305, lsl #16
    401081a0:	a90153f3 	stp	x19, x20, [sp,#16]
    401081a4:	f9001bf7 	str	x23, [sp,#48]
    401081a8:	d0000054 	adrp	x20, 40112000 <sram_union_buf+0x3400>
    401081ac:	d35c7ad6 	ubfx	x22, x22, #28, #3
    401081b0:	b9400017 	ldr	w23, [x0]
    401081b4:	2a1603e1 	mov	w1, w22
    401081b8:	f0000000 	adrp	x0, 4010b000 <__func__.4011+0x10>
    401081bc:	911bf000 	add	x0, x0, #0x6fc
    401081c0:	97ffe431 	bl	40101284 <tf_printf>
    401081c4:	f0000000 	adrp	x0, 4010b000 <__func__.4011+0x10>
    401081c8:	d0000053 	adrp	x19, 40112000 <sram_union_buf+0x3400>
    401081cc:	911bc000 	add	x0, x0, #0x6f0
    401081d0:	38764800 	ldrb	w0, [x0,w22,uxtw]
    401081d4:	10000061 	adr	x1, 401081e0 <read_ddr_pkg_info+0x64>
    401081d8:	8b208820 	add	x0, x1, w0, sxtb #2
    401081dc:	d61f0000 	br	x0
    401081e0:	52800040 	mov	w0, #0x2                   	// #2
    401081e4:	52800061 	mov	w1, #0x3                   	// #3
    401081e8:	393266a0 	strb	w0, [x21,#3225]
    401081ec:	39326e81 	strb	w1, [x20,#3227]
    401081f0:	39326260 	strb	w0, [x19,#3224]
    401081f4:	397266a3 	ldrb	w3, [x21,#3225]
    401081f8:	f0000000 	adrp	x0, 4010b000 <__func__.4011+0x10>
    401081fc:	39726261 	ldrb	w1, [x19,#3224]
    40108200:	911cac00 	add	x0, x0, #0x72b
    40108204:	39726e82 	ldrb	w2, [x20,#3227]
    40108208:	97ffe41f 	bl	40101284 <tf_printf>
    4010820c:	397266a1 	ldrb	w1, [x21,#3225]
    40108210:	d0000055 	adrp	x21, 40112000 <sram_union_buf+0x3400>
    40108214:	7100283f 	cmp	w1, #0xa
    40108218:	54000928 	b.hi	4010833c <read_ddr_pkg_info+0x1c0>
    4010821c:	d2800036 	mov	x22, #0x1                   	// #1
    40108220:	d280bdc2 	mov	x2, #0x5ee                 	// #1518
    40108224:	9ac122c0 	lsl	x0, x22, x1
    40108228:	ea02001f 	tst	x0, x2
    4010822c:	540007a1 	b.ne	40108320 <read_ddr_pkg_info+0x1a4>
    40108230:	d2804202 	mov	x2, #0x210                 	// #528
    40108234:	ea02001f 	tst	x0, x2
    40108238:	54000820 	b.eq	4010833c <read_ddr_pkg_info+0x1c0>
    4010823c:	f0000000 	adrp	x0, 4010b000 <__func__.4011+0x10>
    40108240:	911ce000 	add	x0, x0, #0x738
    40108244:	97ffe410 	bl	40101284 <tf_printf>
    40108248:	39326ab6 	strb	w22, [x21,#3226]
    4010824c:	5280a6a1 	mov	w1, #0x535                 	// #1333
    40108250:	f0000000 	adrp	x0, 4010b000 <__func__.4011+0x10>
    40108254:	b9086801 	str	w1, [x0,#2152]
    40108258:	39726e81 	ldrb	w1, [x20,#3227]
    4010825c:	51000422 	sub	w2, w1, #0x1
    40108260:	71000c5f 	cmp	w2, #0x3
    40108264:	54000d08 	b.hi	40108404 <read_ddr_pkg_info+0x288>
    40108268:	f0000000 	adrp	x0, 4010b000 <__func__.4011+0x10>
    4010826c:	911be000 	add	x0, x0, #0x6f8
    40108270:	38624800 	ldrb	w0, [x0,w2,uxtw]
    40108274:	10000061 	adr	x1, 40108280 <read_ddr_pkg_info+0x104>
    40108278:	8b208820 	add	x0, x1, w0, sxtb #2
    4010827c:	d61f0000 	br	x0
    40108280:	52800020 	mov	w0, #0x1                   	// #1
    40108284:	393266a0 	strb	w0, [x21,#3225]
    40108288:	52800080 	mov	w0, #0x4                   	// #4
    4010828c:	39326e80 	strb	w0, [x20,#3227]
    40108290:	52800040 	mov	w0, #0x2                   	// #2
    40108294:	17ffffd7 	b	401081f0 <read_ddr_pkg_info+0x74>
    40108298:	52800060 	mov	w0, #0x3                   	// #3
    4010829c:	393266a0 	strb	w0, [x21,#3225]
    401082a0:	52800040 	mov	w0, #0x2                   	// #2
    401082a4:	39326e80 	strb	w0, [x20,#3227]
    401082a8:	17ffffd2 	b	401081f0 <read_ddr_pkg_info+0x74>
    401082ac:	f0000000 	adrp	x0, 4010b000 <__func__.4011+0x10>
    401082b0:	911c2c00 	add	x0, x0, #0x70b
    401082b4:	97ffe3f4 	bl	40101284 <tf_printf>
    401082b8:	d35566e0 	ubfx	x0, x23, #21, #5
    401082bc:	393266a0 	strb	w0, [x21,#3225]
    401082c0:	d35a72e0 	ubfx	x0, x23, #26, #3
    401082c4:	531d7ef7 	lsr	w23, w23, #29
    401082c8:	39326e80 	strb	w0, [x20,#3227]
    401082cc:	39326277 	strb	w23, [x19,#3224]
    401082d0:	17ffffc9 	b	401081f4 <read_ddr_pkg_info+0x78>
    401082d4:	52800040 	mov	w0, #0x2                   	// #2
    401082d8:	393266a0 	strb	w0, [x21,#3225]
    401082dc:	52800060 	mov	w0, #0x3                   	// #3
    401082e0:	39326e80 	strb	w0, [x20,#3227]
    401082e4:	52800020 	mov	w0, #0x1                   	// #1
    401082e8:	17ffffc2 	b	401081f0 <read_ddr_pkg_info+0x74>
    401082ec:	52800060 	mov	w0, #0x3                   	// #3
    401082f0:	393266a0 	strb	w0, [x21,#3225]
    401082f4:	52800040 	mov	w0, #0x2                   	// #2
    401082f8:	17fffffa 	b	401082e0 <read_ddr_pkg_info+0x164>
    401082fc:	52800080 	mov	w0, #0x4                   	// #4
    40108300:	393266a0 	strb	w0, [x21,#3225]
    40108304:	52800020 	mov	w0, #0x1                   	// #1
    40108308:	17ffffe7 	b	401082a4 <read_ddr_pkg_info+0x128>
    4010830c:	2a1603e1 	mov	w1, w22
    40108310:	f0000000 	adrp	x0, 4010b000 <__func__.4011+0x10>
    40108314:	911c4800 	add	x0, x0, #0x712
    40108318:	97ffe3db 	bl	40101284 <tf_printf>
    4010831c:	17ffffb6 	b	401081f4 <read_ddr_pkg_info+0x78>
    40108320:	f0000000 	adrp	x0, 4010b000 <__func__.4011+0x10>
    40108324:	911cfc00 	add	x0, x0, #0x73f
    40108328:	97ffe3d7 	bl	40101284 <tf_printf>
    4010832c:	52800040 	mov	w0, #0x2                   	// #2
    40108330:	5280e941 	mov	w1, #0x74a                 	// #1866
    40108334:	39326aa0 	strb	w0, [x21,#3226]
    40108338:	17ffffc6 	b	40108250 <read_ddr_pkg_info+0xd4>
    4010833c:	f0000000 	adrp	x0, 4010b000 <__func__.4011+0x10>
    40108340:	911d1800 	add	x0, x0, #0x746
    40108344:	97ffe3d0 	bl	40101284 <tf_printf>
    40108348:	39326abf 	strb	wzr, [x21,#3226]
    4010834c:	17ffffc3 	b	40108258 <read_ddr_pkg_info+0xdc>
    40108350:	f0000000 	adrp	x0, 4010b000 <__func__.4011+0x10>
    40108354:	911d6800 	add	x0, x0, #0x75a
    40108358:	97ffe3cb 	bl	40101284 <tf_printf>
    4010835c:	52904140 	mov	w0, #0x820a                	// #33290
    40108360:	72a00020 	movk	w0, #0x1, lsl #16
    40108364:	1400000b 	b	40108390 <read_ddr_pkg_info+0x214>
    40108368:	f0000000 	adrp	x0, 4010b000 <__func__.4011+0x10>
    4010836c:	911d8800 	add	x0, x0, #0x762
    40108370:	97ffe3c5 	bl	40101284 <tf_printf>
    40108374:	39726260 	ldrb	w0, [x19,#3224]
    40108378:	52904741 	mov	w1, #0x823a                	// #33338
    4010837c:	72a00021 	movk	w1, #0x1, lsl #16
    40108380:	7100041f 	cmp	w0, #0x1
    40108384:	52904340 	mov	w0, #0x821a                	// #33306
    40108388:	72a00020 	movk	w0, #0x1, lsl #16
    4010838c:	1a810000 	csel	w0, w0, w1, eq
    40108390:	d2801181 	mov	x1, #0x8c                  	// #140
    40108394:	f2a06001 	movk	x1, #0x300, lsl #16
    40108398:	b9000020 	str	w0, [x1]
    4010839c:	39726261 	ldrb	w1, [x19,#3224]
    401083a0:	7100043f 	cmp	w1, #0x1
    401083a4:	540003a0 	b.eq	40108418 <read_ddr_pkg_info+0x29c>
    401083a8:	7100083f 	cmp	w1, #0x2
    401083ac:	54000440 	b.eq	40108434 <read_ddr_pkg_info+0x2b8>
    401083b0:	a94153f3 	ldp	x19, x20, [sp,#16]
    401083b4:	f0000000 	adrp	x0, 4010b000 <__func__.4011+0x10>
    401083b8:	a9425bf5 	ldp	x21, x22, [sp,#32]
    401083bc:	911e6c00 	add	x0, x0, #0x79b
    401083c0:	f9401bf7 	ldr	x23, [sp,#48]
    401083c4:	a8c47bfd 	ldp	x29, x30, [sp],#64
    401083c8:	17ffe3af 	b	40101284 <tf_printf>
    401083cc:	f0000000 	adrp	x0, 4010b000 <__func__.4011+0x10>
    401083d0:	911da000 	add	x0, x0, #0x768
    401083d4:	97ffe3ac 	bl	40101284 <tf_printf>
    401083d8:	39726260 	ldrb	w0, [x19,#3224]
    401083dc:	52904b41 	mov	w1, #0x825a                	// #33370
    401083e0:	72a00021 	movk	w1, #0x1, lsl #16
    401083e4:	7100041f 	cmp	w0, #0x1
    401083e8:	52904540 	mov	w0, #0x822a                	// #33322
    401083ec:	17ffffe7 	b	40108388 <read_ddr_pkg_info+0x20c>
    401083f0:	f0000000 	adrp	x0, 4010b000 <__func__.4011+0x10>
    401083f4:	911db800 	add	x0, x0, #0x76e
    401083f8:	97ffe3a3 	bl	40101284 <tf_printf>
    401083fc:	52904d40 	mov	w0, #0x826a                	// #33386
    40108400:	17ffffd8 	b	40108360 <read_ddr_pkg_info+0x1e4>
    40108404:	f0000000 	adrp	x0, 4010b000 <__func__.4011+0x10>
    40108408:	911dd000 	add	x0, x0, #0x774
    4010840c:	97ffe39e 	bl	40101284 <tf_printf>
    40108410:	52800000 	mov	w0, #0x0                   	// #0
    40108414:	17ffffdf 	b	40108390 <read_ddr_pkg_info+0x214>
    40108418:	f0000000 	adrp	x0, 4010b000 <__func__.4011+0x10>
    4010841c:	911e2c00 	add	x0, x0, #0x78b
    40108420:	a94153f3 	ldp	x19, x20, [sp,#16]
    40108424:	a9425bf5 	ldp	x21, x22, [sp,#32]
    40108428:	f9401bf7 	ldr	x23, [sp,#48]
    4010842c:	a8c47bfd 	ldp	x29, x30, [sp],#64
    40108430:	17ffe395 	b	40101284 <tf_printf>
    40108434:	f0000000 	adrp	x0, 4010b000 <__func__.4011+0x10>
    40108438:	911e4c00 	add	x0, x0, #0x793
    4010843c:	17fffff9 	b	40108420 <read_ddr_pkg_info+0x2a4>

0000000040108440 <get_ddr_vendor>:
    40108440:	d0000040 	adrp	x0, 40112000 <sram_union_buf+0x3400>
    40108444:	39726400 	ldrb	w0, [x0,#3225]
    40108448:	d65f03c0 	ret

000000004010844c <get_pkg>:
    4010844c:	d0000040 	adrp	x0, 40112000 <sram_union_buf+0x3400>
    40108450:	39726000 	ldrb	w0, [x0,#3224]
    40108454:	d65f03c0 	ret

0000000040108458 <ddr_sys_bring_up>:
    40108458:	a9bd7bfd 	stp	x29, x30, [sp,#-48]!
    4010845c:	910003fd 	mov	x29, sp
    40108460:	940006e6 	bl	40109ff8 <pll_init>
    40108464:	94000812 	bl	4010a4ac <ddrc_init>
    40108468:	d2940400 	mov	x0, #0xa020                	// #40992
    4010846c:	52911541 	mov	w1, #0x88aa                	// #34986
    40108470:	f2a10000 	movk	x0, #0x800, lsl #16
    40108474:	72a00ee1 	movk	w1, #0x77, lsl #16
    40108478:	b900001f 	str	wzr, [x0]
    4010847c:	d2803b00 	mov	x0, #0x1d8                 	// #472
    40108480:	f2a06000 	movk	x0, #0x300, lsl #16
    40108484:	b9000001 	str	w1, [x0]
    40108488:	52845321 	mov	w1, #0x2299                	// #8857
    4010848c:	b9000401 	str	w1, [x0,#4]
    40108490:	9400090b 	bl	4010a8bc <phy_init>
    40108494:	940003b2 	bl	4010935c <cvx16_setting_check>
    40108498:	94000705 	bl	4010a0ac <cvx16_pinmux>
    4010849c:	f0000000 	adrp	x0, 4010b000 <__func__.4011+0x10>
    401084a0:	f0000003 	adrp	x3, 4010b000 <__func__.4011+0x10>
    401084a4:	9121c000 	add	x0, x0, #0x870
    401084a8:	9128e063 	add	x3, x3, #0xa38
    401084ac:	52800002 	mov	w2, #0x0                   	// #0
    401084b0:	b9400061 	ldr	w1, [x3]
    401084b4:	6b01005f 	cmp	w2, w1
    401084b8:	54000d23 	b.cc	4010865c <ddr_sys_bring_up+0x204>
    401084bc:	94000665 	bl	40109e50 <cvx16_en_rec_vol_mode>
    401084c0:	940003b4 	bl	40109390 <cvx16_set_dfi_init_start>
    401084c4:	940002f0 	bl	40109084 <cvx16_ddr_phy_power_on_seq1>
    401084c8:	94000350 	bl	40109208 <cvx16_polling_dfi_init_start>
    401084cc:	94000367 	bl	40109268 <cvx16_INT_ISR_08>
    401084d0:	94000320 	bl	40109150 <cvx16_ddr_phy_power_on_seq3>
    401084d4:	94000338 	bl	401091b4 <cvx16_wait_for_dfi_init_complete>
    401084d8:	94000372 	bl	401092a0 <cvx16_polling_synp_normal_mode>
    401084dc:	9400007a 	bl	401086c4 <cvx16_bist_wr_prbs_init>
    401084e0:	910073a0 	add	x0, x29, #0x1c
    401084e4:	910083a2 	add	x2, x29, #0x20
    401084e8:	9100a3a1 	add	x1, x29, #0x28
    401084ec:	940001c0 	bl	40108bec <cvx16_bist_start_check>
    401084f0:	b9401fa0 	ldr	w0, [x29,#28]
    401084f4:	35000120 	cbnz	w0, 40108518 <ddr_sys_bring_up+0xc0>
    401084f8:	f0000000 	adrp	x0, 4010b000 <__func__.4011+0x10>
    401084fc:	911eb400 	add	x0, x0, #0x7ad
    40108500:	97ffe361 	bl	40101284 <tf_printf>
    40108504:	b9401fa1 	ldr	w1, [x29,#28]
    40108508:	f0000000 	adrp	x0, 4010b000 <__func__.4011+0x10>
    4010850c:	a9420ba3 	ldp	x3, x2, [x29,#32]
    40108510:	911f0c00 	add	x0, x0, #0x7c3
    40108514:	97ffe35c 	bl	40101284 <tf_printf>
    40108518:	940008a6 	bl	4010a7b0 <ctrl_init_low_patch>
    4010851c:	9400042a 	bl	401095c4 <cvx16_wrlvl_req>
    40108520:	94000069 	bl	401086c4 <cvx16_bist_wr_prbs_init>
    40108524:	910073a0 	add	x0, x29, #0x1c
    40108528:	910083a2 	add	x2, x29, #0x20
    4010852c:	9100a3a1 	add	x1, x29, #0x28
    40108530:	940001af 	bl	40108bec <cvx16_bist_start_check>
    40108534:	b9401fa0 	ldr	w0, [x29,#28]
    40108538:	35000120 	cbnz	w0, 4010855c <ddr_sys_bring_up+0x104>
    4010853c:	f0000000 	adrp	x0, 4010b000 <__func__.4011+0x10>
    40108540:	911eb400 	add	x0, x0, #0x7ad
    40108544:	97ffe350 	bl	40101284 <tf_printf>
    40108548:	b9401fa1 	ldr	w1, [x29,#28]
    4010854c:	f0000000 	adrp	x0, 4010b000 <__func__.4011+0x10>
    40108550:	a9420ba3 	ldp	x3, x2, [x29,#32]
    40108554:	911f0c00 	add	x0, x0, #0x7c3
    40108558:	97ffe34b 	bl	40101284 <tf_printf>
    4010855c:	940004ac 	bl	4010980c <cvx16_rdglvl_req>
    40108560:	94000059 	bl	401086c4 <cvx16_bist_wr_prbs_init>
    40108564:	910073a0 	add	x0, x29, #0x1c
    40108568:	910083a2 	add	x2, x29, #0x20
    4010856c:	9100a3a1 	add	x1, x29, #0x28
    40108570:	9400019f 	bl	40108bec <cvx16_bist_start_check>
    40108574:	b9401fa0 	ldr	w0, [x29,#28]
    40108578:	35000120 	cbnz	w0, 4010859c <ddr_sys_bring_up+0x144>
    4010857c:	f0000000 	adrp	x0, 4010b000 <__func__.4011+0x10>
    40108580:	911eb400 	add	x0, x0, #0x7ad
    40108584:	97ffe340 	bl	40101284 <tf_printf>
    40108588:	b9401fa1 	ldr	w1, [x29,#28]
    4010858c:	f0000000 	adrp	x0, 4010b000 <__func__.4011+0x10>
    40108590:	a9420ba3 	ldp	x3, x2, [x29,#32]
    40108594:	911f0c00 	add	x0, x0, #0x7c3
    40108598:	97ffe33b 	bl	40101284 <tf_printf>
    4010859c:	52800041 	mov	w1, #0x2                   	// #2
    401085a0:	52800020 	mov	w0, #0x1                   	// #1
    401085a4:	940005a1 	bl	40109c28 <cvx16_wdqlvl_req>
    401085a8:	52800021 	mov	w1, #0x1                   	// #1
    401085ac:	2a0103e0 	mov	w0, w1
    401085b0:	9400059e 	bl	40109c28 <cvx16_wdqlvl_req>
    401085b4:	52800001 	mov	w1, #0x0                   	// #0
    401085b8:	52800020 	mov	w0, #0x1                   	// #1
    401085bc:	9400059b 	bl	40109c28 <cvx16_wdqlvl_req>
    401085c0:	94000041 	bl	401086c4 <cvx16_bist_wr_prbs_init>
    401085c4:	910083a2 	add	x2, x29, #0x20
    401085c8:	9100a3a1 	add	x1, x29, #0x28
    401085cc:	910073a0 	add	x0, x29, #0x1c
    401085d0:	94000187 	bl	40108bec <cvx16_bist_start_check>
    401085d4:	d2801181 	mov	x1, #0x8c                  	// #140
    401085d8:	d0000042 	adrp	x2, 40112000 <sram_union_buf+0x3400>
    401085dc:	f2a10001 	movk	x1, #0x800, lsl #16
    401085e0:	b9400020 	ldr	w0, [x1]
    401085e4:	12186c00 	and	w0, w0, #0xffffff0f
    401085e8:	321c0000 	orr	w0, w0, #0x10
    401085ec:	b90c9c40 	str	w0, [x2,#3228]
    401085f0:	b9000020 	str	w0, [x1]
    401085f4:	52800020 	mov	w0, #0x1                   	// #1
    401085f8:	940004ef 	bl	401099b4 <cvx16_rdlvl_req>
    401085fc:	94000032 	bl	401086c4 <cvx16_bist_wr_prbs_init>
    40108600:	910083a2 	add	x2, x29, #0x20
    40108604:	9100a3a1 	add	x1, x29, #0x28
    40108608:	910073a0 	add	x0, x29, #0x1c
    4010860c:	94000178 	bl	40108bec <cvx16_bist_start_check>
    40108610:	9400085d 	bl	4010a784 <ctrl_init_high_patch>
    40108614:	91006fa0 	add	x0, x29, #0x1b
    40108618:	9400060f 	bl	40109e54 <ctrl_init_detect_dram_size>
    4010861c:	39406fa0 	ldrb	w0, [x29,#27]
    40108620:	9400086f 	bl	4010a7dc <ctrl_init_update_by_dram_size>
    40108624:	39406fa0 	ldrb	w0, [x29,#27]
    40108628:	940007a0 	bl	4010a4a8 <cvx16_dram_cap_check>
    4010862c:	940003c0 	bl	4010952c <cvx16_clk_gating_enable>
    40108630:	94000025 	bl	401086c4 <cvx16_bist_wr_prbs_init>
    40108634:	910073a0 	add	x0, x29, #0x1c
    40108638:	910083a2 	add	x2, x29, #0x20
    4010863c:	9100a3a1 	add	x1, x29, #0x28
    40108640:	9400016b 	bl	40108bec <cvx16_bist_start_check>
    40108644:	b9401fa0 	ldr	w0, [x29,#28]
    40108648:	350001e0 	cbnz	w0, 40108684 <ddr_sys_bring_up+0x22c>
    4010864c:	f0000000 	adrp	x0, 4010b000 <__func__.4011+0x10>
    40108650:	91200c00 	add	x0, x0, #0x803
    40108654:	97ffe30c 	bl	40101284 <tf_printf>
    40108658:	14000000 	b	40108658 <ddr_sys_bring_up+0x200>
    4010865c:	29401804 	ldp	w4, w6, [x0]
    40108660:	11000442 	add	w2, w2, #0x1
    40108664:	b9400801 	ldr	w1, [x0,#8]
    40108668:	91003000 	add	x0, x0, #0xc
    4010866c:	b9400085 	ldr	w5, [x4]
    40108670:	4a0100a1 	eor	w1, w5, w1
    40108674:	0a060021 	and	w1, w1, w6
    40108678:	4a050021 	eor	w1, w1, w5
    4010867c:	b9000081 	str	w1, [x4]
    40108680:	17ffff8c 	b	401084b0 <ddr_sys_bring_up+0x58>
    40108684:	94000031 	bl	40108748 <cvx16_bist_wr_sram_init>
    40108688:	910073a0 	add	x0, x29, #0x1c
    4010868c:	910083a2 	add	x2, x29, #0x20
    40108690:	9100a3a1 	add	x1, x29, #0x28
    40108694:	94000156 	bl	40108bec <cvx16_bist_start_check>
    40108698:	b9401fa0 	ldr	w0, [x29,#28]
    4010869c:	350000a0 	cbnz	w0, 401086b0 <ddr_sys_bring_up+0x258>
    401086a0:	f0000000 	adrp	x0, 4010b000 <__func__.4011+0x10>
    401086a4:	91200c00 	add	x0, x0, #0x803
    401086a8:	97ffe2f7 	bl	40101284 <tf_printf>
    401086ac:	14000000 	b	401086ac <ddr_sys_bring_up+0x254>
    401086b0:	f0000000 	adrp	x0, 4010b000 <__func__.4011+0x10>
    401086b4:	91205000 	add	x0, x0, #0x814
    401086b8:	97ffe2f3 	bl	40101284 <tf_printf>
    401086bc:	a8c37bfd 	ldp	x29, x30, [sp],#48
    401086c0:	d65f03c0 	ret

00000000401086c4 <cvx16_bist_wr_prbs_init>:
    401086c4:	d2a10020 	mov	x0, #0x8010000             	// #134283264
    401086c8:	d10083ff 	sub	sp, sp, #0x20
    401086cc:	320f87e1 	mov	w1, #0x60006               	// #393222
    401086d0:	928007e4 	mov	x4, #0xffffffffffffffc0    	// #-64
    401086d4:	b9000001 	str	w1, [x0]
    401086d8:	529f4000 	mov	w0, #0xfa00                	// #64000
    401086dc:	72a803e0 	movk	w0, #0x401f, lsl #16
    401086e0:	b9000be0 	str	w0, [sp,#8]
    401086e4:	529f4000 	mov	w0, #0xfa00                	// #64000
    401086e8:	d2800b01 	mov	x1, #0x58                  	// #88
    401086ec:	72b003e0 	movk	w0, #0x801f, lsl #16
    401086f0:	910023e3 	add	x3, sp, #0x8
    401086f4:	b9000fe0 	str	w0, [sp,#12]
    401086f8:	d2800800 	mov	x0, #0x40                  	// #64
    401086fc:	f2beffc4 	movk	x4, #0xf7fe, lsl #16
    40108700:	f2a10021 	movk	x1, #0x801, lsl #16
    40108704:	29027fff 	stp	wzr, wzr, [sp,#16]
    40108708:	f2a10020 	movk	x0, #0x801, lsl #16
    4010870c:	29037fff 	stp	wzr, wzr, [sp,#24]
    40108710:	8b040002 	add	x2, x0, x4
    40108714:	b8626862 	ldr	w2, [x3,x2]
    40108718:	b8004402 	str	w2, [x0],#4
    4010871c:	eb01001f 	cmp	x0, x1
    40108720:	54ffff81 	b.ne	40108710 <cvx16_bist_wr_prbs_init+0x4c>
    40108724:	d2800200 	mov	x0, #0x10                  	// #16
    40108728:	12bffe01 	mov	w1, #0xfffff               	// #1048575
    4010872c:	f2a10020 	movk	x0, #0x801, lsl #16
    40108730:	b900001f 	str	wzr, [x0]
    40108734:	b9000401 	str	w1, [x0,#4]
    40108738:	52800081 	mov	w1, #0x4                   	// #4
    4010873c:	b9000801 	str	w1, [x0,#8]
    40108740:	910083ff 	add	sp, sp, #0x20
    40108744:	d65f03c0 	ret

0000000040108748 <cvx16_bist_wr_sram_init>:
    40108748:	d2a10020 	mov	x0, #0x8010000             	// #134283264
    4010874c:	d10083ff 	sub	sp, sp, #0x20
    40108750:	320e87e1 	mov	w1, #0xc000c               	// #786444
    40108754:	928007e4 	mov	x4, #0xffffffffffffffc0    	// #-64
    40108758:	b9000001 	str	w1, [x0]
    4010875c:	5281e0a1 	mov	w1, #0xf05                 	// #3845
    40108760:	b9002401 	str	w1, [x0,#36]
    40108764:	528581e0 	mov	w0, #0x2c0f                	// #11279
    40108768:	72a80200 	movk	w0, #0x4010, lsl #16
    4010876c:	b9000be0 	str	w0, [sp,#8]
    40108770:	528581e0 	mov	w0, #0x2c0f                	// #11279
    40108774:	d2800b01 	mov	x1, #0x58                  	// #88
    40108778:	72b00200 	movk	w0, #0x8010, lsl #16
    4010877c:	b9000fe0 	str	w0, [sp,#12]
    40108780:	32020be0 	mov	w0, #0xc0000001            	// #-1073741823
    40108784:	910023e3 	add	x3, sp, #0x8
    40108788:	b90017e0 	str	w0, [sp,#20]
    4010878c:	d2800800 	mov	x0, #0x40                  	// #64
    40108790:	f2beffc4 	movk	x4, #0xf7fe, lsl #16
    40108794:	f2a10021 	movk	x1, #0x801, lsl #16
    40108798:	b90013ff 	str	wzr, [sp,#16]
    4010879c:	f2a10020 	movk	x0, #0x801, lsl #16
    401087a0:	29037fff 	stp	wzr, wzr, [sp,#24]
    401087a4:	8b040002 	add	x2, x0, x4
    401087a8:	b8626862 	ldr	w2, [x3,x2]
    401087ac:	b8004402 	str	w2, [x0],#4
    401087b0:	eb01001f 	cmp	x0, x1
    401087b4:	54ffff81 	b.ne	401087a4 <cvx16_bist_wr_sram_init+0x5c>
    401087b8:	d2800200 	mov	x0, #0x10                  	// #16
    401087bc:	12bffe01 	mov	w1, #0xfffff               	// #1048575
    401087c0:	f2a10020 	movk	x0, #0x801, lsl #16
    401087c4:	b900001f 	str	wzr, [x0]
    401087c8:	b9000401 	str	w1, [x0,#4]
    401087cc:	52800401 	mov	w1, #0x20                  	// #32
    401087d0:	b9000801 	str	w1, [x0,#8]
    401087d4:	910083ff 	add	sp, sp, #0x20
    401087d8:	d65f03c0 	ret

00000000401087dc <cvx16_bist_wrlvl_init>:
    401087dc:	d2a10020 	mov	x0, #0x8010000             	// #134283264
    401087e0:	d10083ff 	sub	sp, sp, #0x20
    401087e4:	320f87e1 	mov	w1, #0x60006               	// #393222
    401087e8:	928007e4 	mov	x4, #0xffffffffffffffc0    	// #-64
    401087ec:	b9000001 	str	w1, [x0]
    401087f0:	52814000 	mov	w0, #0xa00                 	// #2560
    401087f4:	72a80000 	movk	w0, #0x4000, lsl #16
    401087f8:	d2800b01 	mov	x1, #0x58                  	// #88
    401087fc:	29017fe0 	stp	w0, wzr, [sp,#8]
    40108800:	910023e3 	add	x3, sp, #0x8
    40108804:	d2800800 	mov	x0, #0x40                  	// #64
    40108808:	f2beffc4 	movk	x4, #0xf7fe, lsl #16
    4010880c:	f2a10021 	movk	x1, #0x801, lsl #16
    40108810:	29027fff 	stp	wzr, wzr, [sp,#16]
    40108814:	29037fff 	stp	wzr, wzr, [sp,#24]
    40108818:	f2a10020 	movk	x0, #0x801, lsl #16
    4010881c:	8b040002 	add	x2, x0, x4
    40108820:	b8626862 	ldr	w2, [x3,x2]
    40108824:	b8004402 	str	w2, [x0],#4
    40108828:	eb01001f 	cmp	x0, x1
    4010882c:	54ffff81 	b.ne	4010881c <cvx16_bist_wrlvl_init+0x40>
    40108830:	d2800200 	mov	x0, #0x10                  	// #16
    40108834:	12bffe01 	mov	w1, #0xfffff               	// #1048575
    40108838:	f2a10020 	movk	x0, #0x801, lsl #16
    4010883c:	b900001f 	str	wzr, [x0]
    40108840:	b9000401 	str	w1, [x0,#4]
    40108844:	52800081 	mov	w1, #0x4                   	// #4
    40108848:	b9000801 	str	w1, [x0,#8]
    4010884c:	910083ff 	add	sp, sp, #0x20
    40108850:	d65f03c0 	ret

0000000040108854 <cvx16_bist_rdglvl_init>:
    40108854:	d2a10020 	mov	x0, #0x8010000             	// #134283264
    40108858:	d10083ff 	sub	sp, sp, #0x20
    4010885c:	320f87e1 	mov	w1, #0x60006               	// #393222
    40108860:	928007e4 	mov	x4, #0xffffffffffffffc0    	// #-64
    40108864:	b9000001 	str	w1, [x0]
    40108868:	52874000 	mov	w0, #0x3a00                	// #14848
    4010886c:	72b00000 	movk	w0, #0x8000, lsl #16
    40108870:	d2800b01 	mov	x1, #0x58                  	// #88
    40108874:	29017fe0 	stp	w0, wzr, [sp,#8]
    40108878:	910023e3 	add	x3, sp, #0x8
    4010887c:	d2800800 	mov	x0, #0x40                  	// #64
    40108880:	f2beffc4 	movk	x4, #0xf7fe, lsl #16
    40108884:	f2a10021 	movk	x1, #0x801, lsl #16
    40108888:	29027fff 	stp	wzr, wzr, [sp,#16]
    4010888c:	29037fff 	stp	wzr, wzr, [sp,#24]
    40108890:	f2a10020 	movk	x0, #0x801, lsl #16
    40108894:	8b040002 	add	x2, x0, x4
    40108898:	b8626862 	ldr	w2, [x3,x2]
    4010889c:	b8004402 	str	w2, [x0],#4
    401088a0:	eb01001f 	cmp	x0, x1
    401088a4:	54ffff81 	b.ne	40108894 <cvx16_bist_rdglvl_init+0x40>
    401088a8:	d2800200 	mov	x0, #0x10                  	// #16
    401088ac:	12bffe01 	mov	w1, #0xfffff               	// #1048575
    401088b0:	f2a10020 	movk	x0, #0x801, lsl #16
    401088b4:	b900001f 	str	wzr, [x0]
    401088b8:	b9000401 	str	w1, [x0,#4]
    401088bc:	52800081 	mov	w1, #0x4                   	// #4
    401088c0:	b9000801 	str	w1, [x0,#8]
    401088c4:	910083ff 	add	sp, sp, #0x20
    401088c8:	d65f03c0 	ret

00000000401088cc <cvx16_bist_rdlvl_init>:
    401088cc:	d2a10021 	mov	x1, #0x8010000             	// #134283264
    401088d0:	320f87e2 	mov	w2, #0x60006               	// #393222
    401088d4:	d10083ff 	sub	sp, sp, #0x20
    401088d8:	b9000022 	str	w2, [x1]
    401088dc:	350000a0 	cbnz	w0, 401088f0 <cvx16_bist_rdlvl_init+0x24>
    401088e0:	52874000 	mov	w0, #0x3a00                	// #14848
    401088e4:	72b00000 	movk	w0, #0x8000, lsl #16
    401088e8:	29017fe0 	stp	w0, wzr, [sp,#8]
    401088ec:	14000033 	b	401089b8 <cvx16_bist_rdlvl_init+0xec>
    401088f0:	7100041f 	cmp	w0, #0x1
    401088f4:	54000521 	b.ne	40108998 <cvx16_bist_rdlvl_init+0xcc>
    401088f8:	d2800480 	mov	x0, #0x24                  	// #36
    401088fc:	5281e0a1 	mov	w1, #0xf05                 	// #3845
    40108900:	f2a10020 	movk	x0, #0x801, lsl #16
    40108904:	b9000001 	str	w1, [x0]
    40108908:	529f4040 	mov	w0, #0xfa02                	// #64002
    4010890c:	72a803e0 	movk	w0, #0x401f, lsl #16
    40108910:	b9000be0 	str	w0, [sp,#8]
    40108914:	529f4040 	mov	w0, #0xfa02                	// #64002
    40108918:	72b003e0 	movk	w0, #0x801f, lsl #16
    4010891c:	b9000fe0 	str	w0, [sp,#12]
    40108920:	52858040 	mov	w0, #0x2c02                	// #11266
    40108924:	72a80200 	movk	w0, #0x4010, lsl #16
    40108928:	b90013e0 	str	w0, [sp,#16]
    4010892c:	52858040 	mov	w0, #0x2c02                	// #11266
    40108930:	72b00200 	movk	w0, #0x8010, lsl #16
    40108934:	b90017e0 	str	w0, [sp,#20]
    40108938:	32020be0 	mov	w0, #0xc0000001            	// #-1073741823
    4010893c:	b9001be0 	str	w0, [sp,#24]
    40108940:	b9001fff 	str	wzr, [sp,#28]
    40108944:	d2800800 	mov	x0, #0x40                  	// #64
    40108948:	928007e4 	mov	x4, #0xffffffffffffffc0    	// #-64
    4010894c:	d2800b01 	mov	x1, #0x58                  	// #88
    40108950:	910023e3 	add	x3, sp, #0x8
    40108954:	f2a10020 	movk	x0, #0x801, lsl #16
    40108958:	f2beffc4 	movk	x4, #0xf7fe, lsl #16
    4010895c:	f2a10021 	movk	x1, #0x801, lsl #16
    40108960:	8b040002 	add	x2, x0, x4
    40108964:	b8626862 	ldr	w2, [x3,x2]
    40108968:	b8004402 	str	w2, [x0],#4
    4010896c:	eb01001f 	cmp	x0, x1
    40108970:	54ffff81 	b.ne	40108960 <cvx16_bist_rdlvl_init+0x94>
    40108974:	d2800200 	mov	x0, #0x10                  	// #16
    40108978:	12bffe01 	mov	w1, #0xfffff               	// #1048575
    4010897c:	f2a10020 	movk	x0, #0x801, lsl #16
    40108980:	b900001f 	str	wzr, [x0]
    40108984:	b9000401 	str	w1, [x0,#4]
    40108988:	52800081 	mov	w1, #0x4                   	// #4
    4010898c:	b9000801 	str	w1, [x0,#8]
    40108990:	910083ff 	add	sp, sp, #0x20
    40108994:	d65f03c0 	ret
    40108998:	7100081f 	cmp	w0, #0x2
    4010899c:	54000141 	b.ne	401089c4 <cvx16_bist_rdlvl_init+0xf8>
    401089a0:	528f4000 	mov	w0, #0x7a00                	// #31232
    401089a4:	72a80000 	movk	w0, #0x4000, lsl #16
    401089a8:	b9000be0 	str	w0, [sp,#8]
    401089ac:	528f4000 	mov	w0, #0x7a00                	// #31232
    401089b0:	72b00000 	movk	w0, #0x8000, lsl #16
    401089b4:	b9000fe0 	str	w0, [sp,#12]
    401089b8:	29027fff 	stp	wzr, wzr, [sp,#16]
    401089bc:	b9001bff 	str	wzr, [sp,#24]
    401089c0:	17ffffe0 	b	40108940 <cvx16_bist_rdlvl_init+0x74>
    401089c4:	7100481f 	cmp	w0, #0x12
    401089c8:	540001c1 	b.ne	40108a00 <cvx16_bist_rdlvl_init+0x134>
    401089cc:	d2801082 	mov	x2, #0x84                  	// #132
    401089d0:	528003a1 	mov	w1, #0x1d                  	// #29
    401089d4:	f2a10002 	movk	x2, #0x800, lsl #16
    401089d8:	b9400040 	ldr	w0, [x2]
    401089dc:	121b6800 	and	w0, w0, #0xffffffe0
    401089e0:	2a010001 	orr	w1, w0, w1
    401089e4:	52181020 	eor	w0, w1, #0x1f00
    401089e8:	12181000 	and	w0, w0, #0x1f00
    401089ec:	4a010000 	eor	w0, w0, w1
    401089f0:	d0000041 	adrp	x1, 40112000 <sram_union_buf+0x3400>
    401089f4:	b90c9c20 	str	w0, [x1,#3228]
    401089f8:	b9000040 	str	w0, [x2]
    401089fc:	17ffffe9 	b	401089a0 <cvx16_bist_rdlvl_init+0xd4>
    40108a00:	7100401f 	cmp	w0, #0x10
    40108a04:	54fffa01 	b.ne	40108944 <cvx16_bist_rdlvl_init+0x78>
    40108a08:	d2801082 	mov	x2, #0x84                  	// #132
    40108a0c:	f2a10002 	movk	x2, #0x800, lsl #16
    40108a10:	b9400040 	ldr	w0, [x2]
    40108a14:	121b6800 	and	w0, w0, #0xffffffe0
    40108a18:	32000001 	orr	w1, w0, #0x1
    40108a1c:	52180420 	eor	w0, w1, #0x300
    40108a20:	12181000 	and	w0, w0, #0x1f00
    40108a24:	4a010000 	eor	w0, w0, w1
    40108a28:	d0000041 	adrp	x1, 40112000 <sram_union_buf+0x3400>
    40108a2c:	b90c9c20 	str	w0, [x1,#3228]
    40108a30:	b9000040 	str	w0, [x2]
    40108a34:	17ffffab 	b	401088e0 <cvx16_bist_rdlvl_init+0x14>

0000000040108a38 <cvx16_bist_wdqlvl_init>:
    40108a38:	d2a10021 	mov	x1, #0x8010000             	// #134283264
    40108a3c:	320f87e2 	mov	w2, #0x60006               	// #393222
    40108a40:	d10083ff 	sub	sp, sp, #0x20
    40108a44:	b9000022 	str	w2, [x1]
    40108a48:	35000120 	cbnz	w0, 40108a6c <cvx16_bist_wdqlvl_init+0x34>
    40108a4c:	52874000 	mov	w0, #0x3a00                	// #14848
    40108a50:	72a80000 	movk	w0, #0x4000, lsl #16
    40108a54:	b9000be0 	str	w0, [sp,#8]
    40108a58:	52874000 	mov	w0, #0x3a00                	// #14848
    40108a5c:	2902ffff 	stp	wzr, wzr, [sp,#20]
    40108a60:	72b00000 	movk	w0, #0x8000, lsl #16
    40108a64:	2901ffe0 	stp	w0, wzr, [sp,#12]
    40108a68:	14000015 	b	40108abc <cvx16_bist_wdqlvl_init+0x84>
    40108a6c:	7100041f 	cmp	w0, #0x1
    40108a70:	54000521 	b.ne	40108b14 <cvx16_bist_wdqlvl_init+0xdc>
    40108a74:	d2800480 	mov	x0, #0x24                  	// #36
    40108a78:	5281e0a1 	mov	w1, #0xf05                 	// #3845
    40108a7c:	f2a10020 	movk	x0, #0x801, lsl #16
    40108a80:	b9000001 	str	w1, [x0]
    40108a84:	529f4040 	mov	w0, #0xfa02                	// #64002
    40108a88:	72a803e0 	movk	w0, #0x401f, lsl #16
    40108a8c:	b9000be0 	str	w0, [sp,#8]
    40108a90:	529f4040 	mov	w0, #0xfa02                	// #64002
    40108a94:	72b003e0 	movk	w0, #0x801f, lsl #16
    40108a98:	b9000fe0 	str	w0, [sp,#12]
    40108a9c:	52858040 	mov	w0, #0x2c02                	// #11266
    40108aa0:	72a80200 	movk	w0, #0x4010, lsl #16
    40108aa4:	b90013e0 	str	w0, [sp,#16]
    40108aa8:	52858040 	mov	w0, #0x2c02                	// #11266
    40108aac:	72b00200 	movk	w0, #0x8010, lsl #16
    40108ab0:	b90017e0 	str	w0, [sp,#20]
    40108ab4:	32020be0 	mov	w0, #0xc0000001            	// #-1073741823
    40108ab8:	b9001be0 	str	w0, [sp,#24]
    40108abc:	d2800800 	mov	x0, #0x40                  	// #64
    40108ac0:	928007e4 	mov	x4, #0xffffffffffffffc0    	// #-64
    40108ac4:	d2800b01 	mov	x1, #0x58                  	// #88
    40108ac8:	910023e3 	add	x3, sp, #0x8
    40108acc:	f2a10020 	movk	x0, #0x801, lsl #16
    40108ad0:	f2beffc4 	movk	x4, #0xf7fe, lsl #16
    40108ad4:	f2a10021 	movk	x1, #0x801, lsl #16
    40108ad8:	b9001fff 	str	wzr, [sp,#28]
    40108adc:	8b040002 	add	x2, x0, x4
    40108ae0:	b8626862 	ldr	w2, [x3,x2]
    40108ae4:	b8004402 	str	w2, [x0],#4
    40108ae8:	eb01001f 	cmp	x0, x1
    40108aec:	54ffff81 	b.ne	40108adc <cvx16_bist_wdqlvl_init+0xa4>
    40108af0:	d2800200 	mov	x0, #0x10                  	// #16
    40108af4:	12bffe01 	mov	w1, #0xfffff               	// #1048575
    40108af8:	f2a10020 	movk	x0, #0x801, lsl #16
    40108afc:	b900001f 	str	wzr, [x0]
    40108b00:	b9000401 	str	w1, [x0,#4]
    40108b04:	52800081 	mov	w1, #0x4                   	// #4
    40108b08:	b9000801 	str	w1, [x0,#8]
    40108b0c:	910083ff 	add	sp, sp, #0x20
    40108b10:	d65f03c0 	ret
    40108b14:	52874001 	mov	w1, #0x3a00                	// #14848
    40108b18:	7100441f 	cmp	w0, #0x11
    40108b1c:	72a80001 	movk	w1, #0x4000, lsl #16
    40108b20:	54000141 	b.ne	40108b48 <cvx16_bist_wdqlvl_init+0x110>
    40108b24:	52806020 	mov	w0, #0x301                 	// #769
    40108b28:	d0000042 	adrp	x2, 40112000 <sram_union_buf+0x3400>
    40108b2c:	72a00020 	movk	w0, #0x1, lsl #16
    40108b30:	b90c9c40 	str	w0, [x2,#3228]
    40108b34:	d2803202 	mov	x2, #0x190                 	// #400
    40108b38:	f2a10002 	movk	x2, #0x800, lsl #16
    40108b3c:	b9000040 	str	w0, [x2]
    40108b40:	b9000be1 	str	w1, [sp,#8]
    40108b44:	17ffffc5 	b	40108a58 <cvx16_bist_wdqlvl_init+0x20>
    40108b48:	7100481f 	cmp	w0, #0x12
    40108b4c:	54fff801 	b.ne	40108a4c <cvx16_bist_wdqlvl_init+0x14>
    40108b50:	5283e3a0 	mov	w0, #0x1f1d                	// #7965
    40108b54:	17fffff5 	b	40108b28 <cvx16_bist_wdqlvl_init+0xf0>

0000000040108b58 <cvx16_bist_wdmlvl_init>:
    40108b58:	d2a10020 	mov	x0, #0x8010000             	// #134283264
    40108b5c:	d10083ff 	sub	sp, sp, #0x20
    40108b60:	320f87e1 	mov	w1, #0x60006               	// #393222
    40108b64:	928007e4 	mov	x4, #0xffffffffffffffc0    	// #-64
    40108b68:	b9000001 	str	w1, [x0]
    40108b6c:	5281e0a1 	mov	w1, #0xf05                 	// #3845
    40108b70:	b9002401 	str	w1, [x0,#36]
    40108b74:	5284c000 	mov	w0, #0x2600                	// #9728
    40108b78:	72a80200 	movk	w0, #0x4010, lsl #16
    40108b7c:	b9000be0 	str	w0, [sp,#8]
    40108b80:	11200000 	add	w0, w0, #0x800
    40108b84:	b9000fe0 	str	w0, [sp,#12]
    40108b88:	5285c000 	mov	w0, #0x2e00                	// #11776
    40108b8c:	d2800b01 	mov	x1, #0x58                  	// #88
    40108b90:	72b00200 	movk	w0, #0x8010, lsl #16
    40108b94:	910023e3 	add	x3, sp, #0x8
    40108b98:	b90013e0 	str	w0, [sp,#16]
    40108b9c:	d2800800 	mov	x0, #0x40                  	// #64
    40108ba0:	f2beffc4 	movk	x4, #0xf7fe, lsl #16
    40108ba4:	f2a10021 	movk	x1, #0x801, lsl #16
    40108ba8:	2902ffff 	stp	wzr, wzr, [sp,#20]
    40108bac:	f2a10020 	movk	x0, #0x801, lsl #16
    40108bb0:	b9001fff 	str	wzr, [sp,#28]
    40108bb4:	8b040002 	add	x2, x0, x4
    40108bb8:	b8626862 	ldr	w2, [x3,x2]
    40108bbc:	b8004402 	str	w2, [x0],#4
    40108bc0:	eb01001f 	cmp	x0, x1
    40108bc4:	54ffff81 	b.ne	40108bb4 <cvx16_bist_wdmlvl_init+0x5c>
    40108bc8:	d2800200 	mov	x0, #0x10                  	// #16
    40108bcc:	12bffe01 	mov	w1, #0xfffff               	// #1048575
    40108bd0:	f2a10020 	movk	x0, #0x801, lsl #16
    40108bd4:	b900001f 	str	wzr, [x0]
    40108bd8:	b9000401 	str	w1, [x0,#4]
    40108bdc:	52800081 	mov	w1, #0x4                   	// #4
    40108be0:	b9000801 	str	w1, [x0,#8]
    40108be4:	910083ff 	add	sp, sp, #0x20
    40108be8:	d65f03c0 	ret

0000000040108bec <cvx16_bist_start_check>:
    40108bec:	d2a10023 	mov	x3, #0x8010000             	// #134283264
    40108bf0:	320087e4 	mov	w4, #0x30003               	// #196611
    40108bf4:	d2801005 	mov	x5, #0x80                  	// #128
    40108bf8:	b9000064 	str	w4, [x3]
    40108bfc:	d0000044 	adrp	x4, 40112000 <sram_union_buf+0x3400>
    40108c00:	91327084 	add	x4, x4, #0xc9c
    40108c04:	f2a10025 	movk	x5, #0x801, lsl #16
    40108c08:	b94000a3 	ldr	w3, [x5]
    40108c0c:	b9000083 	str	w3, [x4]
    40108c10:	3617ffc3 	tbz	w3, #2, 40108c08 <cvx16_bist_start_check+0x1c>
    40108c14:	36180263 	tbz	w3, #3, 40108c60 <cvx16_bist_start_check+0x74>
    40108c18:	b900001f 	str	wzr, [x0]
    40108c1c:	d2801100 	mov	x0, #0x88                  	// #136
    40108c20:	f2a10020 	movk	x0, #0x801, lsl #16
    40108c24:	91003000 	add	x0, x0, #0xc
    40108c28:	b85f4005 	ldur	w5, [x0,#-12]
    40108c2c:	b85f8004 	ldur	w4, [x0,#-8]
    40108c30:	b85fc003 	ldur	w3, [x0,#-4]
    40108c34:	b9400000 	ldr	w0, [x0]
    40108c38:	2a0503e5 	mov	w5, w5
    40108c3c:	aa0480a4 	orr	x4, x5, x4, lsl #32
    40108c40:	f9000024 	str	x4, [x1]
    40108c44:	2a0303e1 	mov	w1, w3
    40108c48:	aa008020 	orr	x0, x1, x0, lsl #32
    40108c4c:	f9000040 	str	x0, [x2]
    40108c50:	d2a10020 	mov	x0, #0x8010000             	// #134283264
    40108c54:	52a000a1 	mov	w1, #0x50000               	// #327680
    40108c58:	b9000001 	str	w1, [x0]
    40108c5c:	d65f03c0 	ret
    40108c60:	52800023 	mov	w3, #0x1                   	// #1
    40108c64:	b9000003 	str	w3, [x0]
    40108c68:	f900003f 	str	xzr, [x1]
    40108c6c:	f900005f 	str	xzr, [x2]
    40108c70:	17fffff8 	b	40108c50 <cvx16_bist_start_check+0x64>

0000000040108c74 <cvx16_rdvld_train>:
    40108c74:	a9bd7bfd 	stp	x29, x30, [sp,#-48]!
    40108c78:	910003fd 	mov	x29, sp
    40108c7c:	97fffe92 	bl	401086c4 <cvx16_bist_wr_prbs_init>
    40108c80:	d2816289 	mov	x9, #0xb14                 	// #2836
    40108c84:	d281688a 	mov	x10, #0xb44                 	// #2884
    40108c88:	f2a10009 	movk	x9, #0x800, lsl #16
    40108c8c:	f2a1000a 	movk	x10, #0x800, lsl #16
    40108c90:	52800128 	mov	w8, #0x9                   	// #9
    40108c94:	b9400127 	ldr	w7, [x9]
    40108c98:	b9400140 	ldr	w0, [x10]
    40108c9c:	d2801280 	mov	x0, #0x94                  	// #148
    40108ca0:	f2a10000 	movk	x0, #0x800, lsl #16
    40108ca4:	b9400006 	ldr	w6, [x0]
    40108ca8:	4a0840e0 	eor	w0, w7, w8, lsl #16
    40108cac:	9100a3a2 	add	x2, x29, #0x28
    40108cb0:	12101000 	and	w0, w0, #0x1f0000
    40108cb4:	910083a1 	add	x1, x29, #0x20
    40108cb8:	4a0000e7 	eor	w7, w7, w0
    40108cbc:	b9000127 	str	w7, [x9]
    40108cc0:	b9000147 	str	w7, [x10]
    40108cc4:	910073a0 	add	x0, x29, #0x1c
    40108cc8:	97ffffc9 	bl	40108bec <cvx16_bist_start_check>
    40108ccc:	b9401fa0 	ldr	w0, [x29,#28]
    40108cd0:	35000160 	cbnz	w0, 40108cfc <cvx16_rdvld_train+0x88>
    40108cd4:	12000cc0 	and	w0, w6, #0xf
    40108cd8:	11000400 	add	w0, w0, #0x1
    40108cdc:	0b080000 	add	w0, w0, w8
    40108ce0:	4a0040e0 	eor	w0, w7, w0, lsl #16
    40108ce4:	12101000 	and	w0, w0, #0x1f0000
    40108ce8:	4a070000 	eor	w0, w0, w7
    40108cec:	b9000120 	str	w0, [x9]
    40108cf0:	b9000140 	str	w0, [x10]
    40108cf4:	a8c37bfd 	ldp	x29, x30, [sp],#48
    40108cf8:	d65f03c0 	ret
    40108cfc:	51000508 	sub	w8, w8, #0x1
    40108d00:	7100051f 	cmp	w8, #0x1
    40108d04:	54fffd21 	b.ne	40108ca8 <cvx16_rdvld_train+0x34>
    40108d08:	17fffffb 	b	40108cf4 <cvx16_rdvld_train+0x80>

0000000040108d0c <cvx16_synp_mrw>:
    40108d0c:	d2883004 	mov	x4, #0x4180                	// #16768
    40108d10:	d0000042 	adrp	x2, 40112000 <sram_union_buf+0x3400>
    40108d14:	f2a10004 	movk	x4, #0x800, lsl #16
    40108d18:	b9400083 	ldr	w3, [x4]
    40108d1c:	b90c9c43 	str	w3, [x2,#3228]
    40108d20:	37f80443 	tbnz	w3, #31, 40108da8 <cvx16_synp_mrw+0x9c>
    40108d24:	52010063 	eor	w3, w3, #0x80000000
    40108d28:	b9000083 	str	w3, [x4]
    40108d2c:	52800004 	mov	w4, #0x0                   	// #0
    40108d30:	b90c9c5f 	str	wzr, [x2,#3228]
    40108d34:	d2880305 	mov	x5, #0x4018                	// #16408
    40108d38:	91327042 	add	x2, x2, #0xc9c
    40108d3c:	f2a10005 	movk	x5, #0x800, lsl #16
    40108d40:	b94000a3 	ldr	w3, [x5]
    40108d44:	b9000043 	str	w3, [x2]
    40108d48:	3707ffc3 	tbnz	w3, #0, 40108d40 <cvx16_synp_mrw+0x34>
    40108d4c:	d2880203 	mov	x3, #0x4010                	// #16400
    40108d50:	53140c00 	ubfiz	w0, w0, #12, #4
    40108d54:	f2a10003 	movk	x3, #0x800, lsl #16
    40108d58:	521c0000 	eor	w0, w0, #0x10
    40108d5c:	b9000060 	str	w0, [x3]
    40108d60:	d2880280 	mov	x0, #0x4014                	// #16404
    40108d64:	f2a10000 	movk	x0, #0x800, lsl #16
    40108d68:	b9000041 	str	w1, [x2]
    40108d6c:	b9000001 	str	w1, [x0]
    40108d70:	b9400061 	ldr	w1, [x3]
    40108d74:	52010020 	eor	w0, w1, #0x80000000
    40108d78:	12010000 	and	w0, w0, #0x80000000
    40108d7c:	4a010000 	eor	w0, w0, w1
    40108d80:	b9000040 	str	w0, [x2]
    40108d84:	b9000060 	str	w0, [x3]
    40108d88:	350000e4 	cbnz	w4, 40108da4 <cvx16_synp_mrw+0x98>
    40108d8c:	d2883001 	mov	x1, #0x4180                	// #16768
    40108d90:	f2a10001 	movk	x1, #0x800, lsl #16
    40108d94:	b9400020 	ldr	w0, [x1]
    40108d98:	12007800 	and	w0, w0, #0x7fffffff
    40108d9c:	b9000040 	str	w0, [x2]
    40108da0:	b9000020 	str	w0, [x1]
    40108da4:	d65f03c0 	ret
    40108da8:	52800024 	mov	w4, #0x1                   	// #1
    40108dac:	17ffffe1 	b	40108d30 <cvx16_synp_mrw+0x24>

0000000040108db0 <cvx16_dll_cal>:
    40108db0:	d28c0980 	mov	x0, #0x604c                	// #24652
    40108db4:	f2a10000 	movk	x0, #0x800, lsl #16
    40108db8:	b9400001 	ldr	w1, [x0]
    40108dbc:	d0000040 	adrp	x0, 40112000 <sram_union_buf+0x3400>
    40108dc0:	b90c9c01 	str	w1, [x0,#3228]
    40108dc4:	f27c043f 	tst	x1, #0x30
    40108dc8:	d2800801 	mov	x1, #0x40                  	// #64
    40108dcc:	f2a10001 	movk	x1, #0x800, lsl #16
    40108dd0:	b9400022 	ldr	w2, [x1]
    40108dd4:	120eb842 	and	w2, w2, #0xfffdfffd
    40108dd8:	b90c9c02 	str	w2, [x0,#3228]
    40108ddc:	b9000022 	str	w2, [x1]
    40108de0:	54000260 	b.eq	40108e2c <cvx16_dll_cal+0x7c>
    40108de4:	b9400023 	ldr	w3, [x1]
    40108de8:	521f0062 	eor	w2, w3, #0x2
    40108dec:	121f0042 	and	w2, w2, #0x2
    40108df0:	4a030042 	eor	w2, w2, w3
    40108df4:	520f0043 	eor	w3, w2, #0x20000
    40108df8:	120f0063 	and	w3, w3, #0x20000
    40108dfc:	4a020062 	eor	w2, w3, w2
    40108e00:	b9000022 	str	w2, [x1]
    40108e04:	b90c9c1f 	str	wzr, [x0,#3228]
    40108e08:	d2860282 	mov	x2, #0x3014                	// #12308
    40108e0c:	91327000 	add	x0, x0, #0xc9c
    40108e10:	f2a10002 	movk	x2, #0x800, lsl #16
    40108e14:	b9400001 	ldr	w1, [x0]
    40108e18:	36800041 	tbz	w1, #16, 40108e20 <cvx16_dll_cal+0x70>
    40108e1c:	d65f03c0 	ret
    40108e20:	b9400041 	ldr	w1, [x2]
    40108e24:	b9000001 	str	w1, [x0]
    40108e28:	17fffffb 	b	40108e14 <cvx16_dll_cal+0x64>
    40108e2c:	d65f03c0 	ret

0000000040108e30 <cvx16_clk_normal>:
    40108e30:	d28c0181 	mov	x1, #0x600c                	// #24588
    40108e34:	d0000043 	adrp	x3, 40112000 <sram_union_buf+0x3400>
    40108e38:	f2a10001 	movk	x1, #0x800, lsl #16
    40108e3c:	d2852a02 	mov	x2, #0x2950                	// #10576
    40108e40:	f2a06002 	movk	x2, #0x300, lsl #16
    40108e44:	b9400020 	ldr	w0, [x1]
    40108e48:	12117400 	and	w0, w0, #0xffff9fff
    40108e4c:	b9000020 	str	w0, [x1]
    40108e50:	d0000040 	adrp	x0, 40112000 <sram_union_buf+0x3400>
    40108e54:	f9466001 	ldr	x1, [x0,#3264]
    40108e58:	d2852a80 	mov	x0, #0x2954                	// #10580
    40108e5c:	f2a06000 	movk	x0, #0x300, lsl #16
    40108e60:	b9000001 	str	w1, [x0]
    40108e64:	d0000040 	adrp	x0, 40112000 <sram_union_buf+0x3400>
    40108e68:	79597001 	ldrh	w1, [x0,#3256]
    40108e6c:	d2852b00 	mov	x0, #0x2958                	// #10584
    40108e70:	f2a06000 	movk	x0, #0x300, lsl #16
    40108e74:	b9000001 	str	w1, [x0]
    40108e78:	d0000040 	adrp	x0, 40112000 <sram_union_buf+0x3400>
    40108e7c:	d2852b81 	mov	x1, #0x295c                	// #10588
    40108e80:	f9465400 	ldr	x0, [x0,#3240]
    40108e84:	f2a06001 	movk	x1, #0x300, lsl #16
    40108e88:	12005c00 	and	w0, w0, #0xffffff
    40108e8c:	b90c9c60 	str	w0, [x3,#3228]
    40108e90:	b9000020 	str	w0, [x1]
    40108e94:	b9400040 	ldr	w0, [x2]
    40108e98:	52000000 	eor	w0, w0, #0x1
    40108e9c:	121b6c01 	and	w1, w0, #0xffffffe1
    40108ea0:	521b0020 	eor	w0, w1, #0x20
    40108ea4:	121b0000 	and	w0, w0, #0x20
    40108ea8:	4a010000 	eor	w0, w0, w1
    40108eac:	12197800 	and	w0, w0, #0xffffffbf
    40108eb0:	b90c9c60 	str	w0, [x3,#3228]
    40108eb4:	b9000040 	str	w0, [x2]
    40108eb8:	d65f03c0 	ret

0000000040108ebc <cvx16_clk_div2>:
    40108ebc:	d28c0181 	mov	x1, #0x600c                	// #24588
    40108ec0:	f2a10001 	movk	x1, #0x800, lsl #16
    40108ec4:	b9400022 	ldr	w2, [x1]
    40108ec8:	52120040 	eor	w0, w2, #0x4000
    40108ecc:	12120000 	and	w0, w0, #0x4000
    40108ed0:	4a020000 	eor	w0, w0, w2
    40108ed4:	d0000042 	adrp	x2, 40112000 <sram_union_buf+0x3400>
    40108ed8:	b90c9c40 	str	w0, [x2,#3228]
    40108edc:	b9000020 	str	w0, [x1]
    40108ee0:	d65f03c0 	ret

0000000040108ee4 <cvx16_clk_div40>:
    40108ee4:	d28c0181 	mov	x1, #0x600c                	// #24588
    40108ee8:	f2a10001 	movk	x1, #0x800, lsl #16
    40108eec:	b9400022 	ldr	w2, [x1]
    40108ef0:	52130040 	eor	w0, w2, #0x2000
    40108ef4:	12130000 	and	w0, w0, #0x2000
    40108ef8:	4a020000 	eor	w0, w0, w2
    40108efc:	d0000042 	adrp	x2, 40112000 <sram_union_buf+0x3400>
    40108f00:	b90c9c40 	str	w0, [x2,#3228]
    40108f04:	b9000020 	str	w0, [x1]
    40108f08:	d65f03c0 	ret

0000000040108f0c <cvx16_chg_pll_freq>:
    40108f0c:	a9be7bfd 	stp	x29, x30, [sp,#-32]!
    40108f10:	d28c0080 	mov	x0, #0x6004                	// #24580
    40108f14:	f2a10000 	movk	x0, #0x800, lsl #16
    40108f18:	d28c0982 	mov	x2, #0x604c                	// #24652
    40108f1c:	910003fd 	mov	x29, sp
    40108f20:	a90153f3 	stp	x19, x20, [sp,#16]
    40108f24:	d0000053 	adrp	x19, 40112000 <sram_union_buf+0x3400>
    40108f28:	f2a10002 	movk	x2, #0x800, lsl #16
    40108f2c:	b90c9e7f 	str	wzr, [x19,#3228]
    40108f30:	b900001f 	str	wzr, [x0]
    40108f34:	b94c9e61 	ldr	w1, [x19,#3228]
    40108f38:	b9000401 	str	w1, [x0,#4]
    40108f3c:	d28c0181 	mov	x1, #0x600c                	// #24588
    40108f40:	f2a10001 	movk	x1, #0x800, lsl #16
    40108f44:	b9400020 	ldr	w0, [x1]
    40108f48:	12187800 	and	w0, w0, #0xffffff7f
    40108f4c:	b90c9e60 	str	w0, [x19,#3228]
    40108f50:	b9000020 	str	w0, [x1]
    40108f54:	b9400040 	ldr	w0, [x2]
    40108f58:	b90c9e60 	str	w0, [x19,#3228]
    40108f5c:	b9400040 	ldr	w0, [x2]
    40108f60:	b90c9e60 	str	w0, [x19,#3228]
    40108f64:	b9400040 	ldr	w0, [x2]
    40108f68:	b90c9e60 	str	w0, [x19,#3228]
    40108f6c:	b9400040 	ldr	w0, [x2]
    40108f70:	b90c9e60 	str	w0, [x19,#3228]
    40108f74:	b9400040 	ldr	w0, [x2]
    40108f78:	b90c9e60 	str	w0, [x19,#3228]
    40108f7c:	b9400041 	ldr	w1, [x2]
    40108f80:	36000161 	tbz	w1, #0, 40108fac <cvx16_chg_pll_freq+0xa0>
    40108f84:	d3441420 	ubfx	x0, x1, #4, #2
    40108f88:	d3482423 	ubfx	x3, x1, #8, #2
    40108f8c:	35000463 	cbnz	w3, 40109018 <cvx16_chg_pll_freq+0x10c>
    40108f90:	121a7421 	and	w1, w1, #0xffffffcf
    40108f94:	4a002020 	eor	w0, w1, w0, lsl #8
    40108f98:	12180400 	and	w0, w0, #0x300
    40108f9c:	4a010000 	eor	w0, w0, w1
    40108fa0:	b90c9e60 	str	w0, [x19,#3228]
    40108fa4:	b9000040 	str	w0, [x2]
    40108fa8:	97ffffcf 	bl	40108ee4 <cvx16_clk_div40>
    40108fac:	d28c0080 	mov	x0, #0x6004                	// #24580
    40108fb0:	52800021 	mov	w1, #0x1                   	// #1
    40108fb4:	f2a10000 	movk	x0, #0x800, lsl #16
    40108fb8:	b90c9e61 	str	w1, [x19,#3228]
    40108fbc:	d28c0182 	mov	x2, #0x600c                	// #24588
    40108fc0:	d28c0214 	mov	x20, #0x6010                	// #24592
    40108fc4:	b9000001 	str	w1, [x0]
    40108fc8:	f2a10002 	movk	x2, #0x800, lsl #16
    40108fcc:	f2a10014 	movk	x20, #0x800, lsl #16
    40108fd0:	b9400043 	ldr	w3, [x2]
    40108fd4:	52190060 	eor	w0, w3, #0x80
    40108fd8:	12190000 	and	w0, w0, #0x80
    40108fdc:	4a030000 	eor	w0, w0, w3
    40108fe0:	b9000040 	str	w0, [x2]
    40108fe4:	d28c0100 	mov	x0, #0x6008                	// #24584
    40108fe8:	b90c9e61 	str	w1, [x19,#3228]
    40108fec:	f2a10000 	movk	x0, #0x800, lsl #16
    40108ff0:	b9000001 	str	w1, [x0]
    40108ff4:	b94c9e60 	ldr	w0, [x19,#3228]
    40108ff8:	12107800 	and	w0, w0, #0xffff7fff
    40108ffc:	b90c9e60 	str	w0, [x19,#3228]
    40109000:	91327273 	add	x19, x19, #0xc9c
    40109004:	b9400260 	ldr	w0, [x19]
    40109008:	36780340 	tbz	w0, #15, 40109070 <cvx16_chg_pll_freq+0x164>
    4010900c:	a94153f3 	ldp	x19, x20, [sp,#16]
    40109010:	a8c27bfd 	ldp	x29, x30, [sp],#32
    40109014:	d65f03c0 	ret
    40109018:	7100087f 	cmp	w3, #0x2
    4010901c:	54000141 	b.ne	40109044 <cvx16_chg_pll_freq+0x138>
    40109020:	121a7421 	and	w1, w1, #0xffffffcf
    40109024:	321b0021 	orr	w1, w1, #0x20
    40109028:	4a002020 	eor	w0, w1, w0, lsl #8
    4010902c:	12180400 	and	w0, w0, #0x300
    40109030:	4a010000 	eor	w0, w0, w1
    40109034:	b90c9e60 	str	w0, [x19,#3228]
    40109038:	b9000040 	str	w0, [x2]
    4010903c:	97ffff7d 	bl	40108e30 <cvx16_clk_normal>
    40109040:	17ffffdb 	b	40108fac <cvx16_chg_pll_freq+0xa0>
    40109044:	7100047f 	cmp	w3, #0x1
    40109048:	54fffb21 	b.ne	40108fac <cvx16_chg_pll_freq+0xa0>
    4010904c:	121a7421 	and	w1, w1, #0xffffffcf
    40109050:	321c0021 	orr	w1, w1, #0x10
    40109054:	4a002020 	eor	w0, w1, w0, lsl #8
    40109058:	12180400 	and	w0, w0, #0x300
    4010905c:	4a010000 	eor	w0, w0, w1
    40109060:	b90c9e60 	str	w0, [x19,#3228]
    40109064:	b9000040 	str	w0, [x2]
    40109068:	97ffff95 	bl	40108ebc <cvx16_clk_div2>
    4010906c:	17ffffd0 	b	40108fac <cvx16_chg_pll_freq+0xa0>
    40109070:	b9400280 	ldr	w0, [x20]
    40109074:	b9000260 	str	w0, [x19]
    40109078:	52800000 	mov	w0, #0x0                   	// #0
    4010907c:	97ffdfcb 	bl	40100fa8 <udelay>
    40109080:	17ffffe1 	b	40109004 <cvx16_chg_pll_freq+0xf8>

0000000040109084 <cvx16_ddr_phy_power_on_seq1>:
    40109084:	d28c0800 	mov	x0, #0x6040                	// #24640
    40109088:	12a82002 	mov	w2, #0xbeffffff            	// #-1090519041
    4010908c:	f2a10000 	movk	x0, #0x800, lsl #16
    40109090:	b9400001 	ldr	w1, [x0]
    40109094:	0a020021 	and	w1, w1, w2
    40109098:	b0000042 	adrp	x2, 40112000 <sram_union_buf+0x3400>
    4010909c:	b90c9c41 	str	w1, [x2,#3228]
    401090a0:	b9000001 	str	w1, [x0]
    401090a4:	b9400001 	ldr	w1, [x0]
    401090a8:	b90c9c5f 	str	wzr, [x2,#3228]
    401090ac:	d28c0381 	mov	x1, #0x601c                	// #24604
    401090b0:	b900001f 	str	wzr, [x0]
    401090b4:	f2a10001 	movk	x1, #0x800, lsl #16
    401090b8:	b9400023 	ldr	w3, [x1]
    401090bc:	52190060 	eor	w0, w3, #0x80
    401090c0:	12190000 	and	w0, w0, #0x80
    401090c4:	4a030000 	eor	w0, w0, w3
    401090c8:	b9000020 	str	w0, [x1]
    401090cc:	d28c0000 	mov	x0, #0x6000                	// #24576
    401090d0:	b90c9c5f 	str	wzr, [x2,#3228]
    401090d4:	f2a10000 	movk	x0, #0x800, lsl #16
    401090d8:	b900001f 	str	wzr, [x0]
    401090dc:	b9400020 	ldr	w0, [x1]
    401090e0:	12187800 	and	w0, w0, #0xffffff7f
    401090e4:	b90c9c40 	str	w0, [x2,#3228]
    401090e8:	b9000020 	str	w0, [x1]
    401090ec:	d65f03c0 	ret

00000000401090f0 <cvx16_ddr_phy_power_on_seq2>:
    401090f0:	a9bf7bfd 	stp	x29, x30, [sp,#-16]!
    401090f4:	910003fd 	mov	x29, sp
    401090f8:	97ffff85 	bl	40108f0c <cvx16_chg_pll_freq>
    401090fc:	d2802a81 	mov	x1, #0x154                 	// #340
    40109100:	b0000044 	adrp	x4, 40112000 <sram_union_buf+0x3400>
    40109104:	f2a10001 	movk	x1, #0x800, lsl #16
    40109108:	b9400020 	ldr	w0, [x1]
    4010910c:	121f7800 	and	w0, w0, #0xfffffffe
    40109110:	b9000020 	str	w0, [x1]
    40109114:	d2802600 	mov	x0, #0x130                 	// #304
    40109118:	b90c9c9f 	str	wzr, [x4,#3228]
    4010911c:	f2a10000 	movk	x0, #0x800, lsl #16
    40109120:	b900001f 	str	wzr, [x0]
    40109124:	97ffff23 	bl	40108db0 <cvx16_dll_cal>
    40109128:	d28c0800 	mov	x0, #0x6040                	// #24640
    4010912c:	52b00001 	mov	w1, #0x80000000            	// #-2147483648
    40109130:	f2a10000 	movk	x0, #0x800, lsl #16
    40109134:	b9000001 	str	w1, [x0]
    40109138:	d28c0000 	mov	x0, #0x6000                	// #24576
    4010913c:	f2a10000 	movk	x0, #0x800, lsl #16
    40109140:	b90c9c9f 	str	wzr, [x4,#3228]
    40109144:	b900001f 	str	wzr, [x0]
    40109148:	a8c17bfd 	ldp	x29, x30, [sp],#16
    4010914c:	d65f03c0 	ret

0000000040109150 <cvx16_ddr_phy_power_on_seq3>:
    40109150:	d2802a81 	mov	x1, #0x154                 	// #340
    40109154:	d2804082 	mov	x2, #0x204                 	// #516
    40109158:	f2a10001 	movk	x1, #0x800, lsl #16
    4010915c:	f2a10002 	movk	x2, #0x800, lsl #16
    40109160:	b9400020 	ldr	w0, [x1]
    40109164:	121f7800 	and	w0, w0, #0xfffffffe
    40109168:	b9000020 	str	w0, [x1]
    4010916c:	b0000041 	adrp	x1, 40112000 <sram_union_buf+0x3400>
    40109170:	d2802600 	mov	x0, #0x130                 	// #304
    40109174:	f2a10000 	movk	x0, #0x800, lsl #16
    40109178:	b90c9c3f 	str	wzr, [x1,#3228]
    4010917c:	b900001f 	str	wzr, [x0]
    40109180:	b9400043 	ldr	w3, [x2]
    40109184:	520e0060 	eor	w0, w3, #0x40000
    40109188:	120e0000 	and	w0, w0, #0x40000
    4010918c:	4a030000 	eor	w0, w0, w3
    40109190:	b90c9c20 	str	w0, [x1,#3228]
    40109194:	b9000040 	str	w0, [x2]
    40109198:	b9402043 	ldr	w3, [x2,#32]
    4010919c:	520e0060 	eor	w0, w3, #0x40000
    401091a0:	120e0000 	and	w0, w0, #0x40000
    401091a4:	4a030000 	eor	w0, w0, w3
    401091a8:	b90c9c20 	str	w0, [x1,#3228]
    401091ac:	b9002040 	str	w0, [x2,#32]
    401091b0:	d65f03c0 	ret

00000000401091b4 <cvx16_wait_for_dfi_init_complete>:
    401091b4:	d2883782 	mov	x2, #0x41bc                	// #16828
    401091b8:	b0000041 	adrp	x1, 40112000 <sram_union_buf+0x3400>
    401091bc:	91327021 	add	x1, x1, #0xc9c
    401091c0:	f2a10002 	movk	x2, #0x800, lsl #16
    401091c4:	b9400040 	ldr	w0, [x2]
    401091c8:	b9000020 	str	w0, [x1]
    401091cc:	3607ffc0 	tbz	w0, #0, 401091c4 <cvx16_wait_for_dfi_init_complete+0x10>
    401091d0:	d2886402 	mov	x2, #0x4320                	// #17184
    401091d4:	d2883603 	mov	x3, #0x41b0                	// #16816
    401091d8:	f2a10002 	movk	x2, #0x800, lsl #16
    401091dc:	f2a10003 	movk	x3, #0x800, lsl #16
    401091e0:	528000a4 	mov	w4, #0x5                   	// #5
    401091e4:	b900005f 	str	wzr, [x2]
    401091e8:	b9400060 	ldr	w0, [x3]
    401091ec:	121a6400 	and	w0, w0, #0xffffffc0
    401091f0:	2a040000 	orr	w0, w0, w4
    401091f4:	b9000020 	str	w0, [x1]
    401091f8:	b9000060 	str	w0, [x3]
    401091fc:	52800020 	mov	w0, #0x1                   	// #1
    40109200:	b9000040 	str	w0, [x2]
    40109204:	d65f03c0 	ret

0000000040109208 <cvx16_polling_dfi_init_start>:
    40109208:	d2860502 	mov	x2, #0x3028                	// #12328
    4010920c:	b0000040 	adrp	x0, 40112000 <sram_union_buf+0x3400>
    40109210:	91327000 	add	x0, x0, #0xc9c
    40109214:	f2a10002 	movk	x2, #0x800, lsl #16
    40109218:	b9400041 	ldr	w1, [x2]
    4010921c:	b9000001 	str	w1, [x0]
    40109220:	3647ffc1 	tbz	w1, #8, 40109218 <cvx16_polling_dfi_init_start+0x10>
    40109224:	d65f03c0 	ret

0000000040109228 <cvx16_set_dfi_init_complete>:
    40109228:	a9bf7bfd 	stp	x29, x30, [sp,#-16]!
    4010922c:	52800280 	mov	w0, #0x14                  	// #20
    40109230:	910003fd 	mov	x29, sp
    40109234:	97ffdf5d 	bl	40100fa8 <udelay>
    40109238:	d2802400 	mov	x0, #0x120                 	// #288
    4010923c:	52800201 	mov	w1, #0x10                  	// #16
    40109240:	f2a10000 	movk	x0, #0x800, lsl #16
    40109244:	b9000001 	str	w1, [x0]
    40109248:	b0000041 	adrp	x1, 40112000 <sram_union_buf+0x3400>
    4010924c:	52800020 	mov	w0, #0x1                   	// #1
    40109250:	b90c9c20 	str	w0, [x1,#3228]
    40109254:	d2802301 	mov	x1, #0x118                 	// #280
    40109258:	f2a10001 	movk	x1, #0x800, lsl #16
    4010925c:	b9000020 	str	w0, [x1]
    40109260:	a8c17bfd 	ldp	x29, x30, [sp],#16
    40109264:	d65f03c0 	ret

0000000040109268 <cvx16_INT_ISR_08>:
    40109268:	a9bf7bfd 	stp	x29, x30, [sp,#-16]!
    4010926c:	b0000040 	adrp	x0, 40112000 <sram_union_buf+0x3400>
    40109270:	d2802301 	mov	x1, #0x118                 	// #280
    40109274:	910003fd 	mov	x29, sp
    40109278:	f2a10001 	movk	x1, #0x800, lsl #16
    4010927c:	b90c9c1f 	str	wzr, [x0,#3228]
    40109280:	b900003f 	str	wzr, [x1]
    40109284:	d28c0981 	mov	x1, #0x604c                	// #24652
    40109288:	f2a10001 	movk	x1, #0x800, lsl #16
    4010928c:	b9400021 	ldr	w1, [x1]
    40109290:	b90c9c01 	str	w1, [x0,#3228]
    40109294:	97ffff97 	bl	401090f0 <cvx16_ddr_phy_power_on_seq2>
    40109298:	a8c17bfd 	ldp	x29, x30, [sp],#16
    4010929c:	17ffffe3 	b	40109228 <cvx16_set_dfi_init_complete>

00000000401092a0 <cvx16_polling_synp_normal_mode>:
    401092a0:	d2880082 	mov	x2, #0x4004                	// #16388
    401092a4:	b0000041 	adrp	x1, 40112000 <sram_union_buf+0x3400>
    401092a8:	91327021 	add	x1, x1, #0xc9c
    401092ac:	f2a10002 	movk	x2, #0x800, lsl #16
    401092b0:	b9400040 	ldr	w0, [x2]
    401092b4:	b9000020 	str	w0, [x1]
    401092b8:	12000800 	and	w0, w0, #0x7
    401092bc:	7100041f 	cmp	w0, #0x1
    401092c0:	54ffff81 	b.ne	401092b0 <cvx16_polling_synp_normal_mode+0x10>
    401092c4:	d65f03c0 	ret

00000000401092c8 <cvx16_dfi_ca_park_prbs>:
    401092c8:	b0000041 	adrp	x1, 40112000 <sram_union_buf+0x3400>
    401092cc:	d2802e83 	mov	x3, #0x174                 	// #372
    401092d0:	f2a10003 	movk	x3, #0x800, lsl #16
    401092d4:	52800022 	mov	w2, #0x1                   	// #1
    401092d8:	b90c9c22 	str	w2, [x1,#3228]
    401092dc:	d2860604 	mov	x4, #0x3030                	// #12336
    401092e0:	b9000062 	str	w2, [x3]
    401092e4:	91327023 	add	x3, x1, #0xc9c
    401092e8:	f2a10004 	movk	x4, #0x800, lsl #16
    401092ec:	b9400082 	ldr	w2, [x4]
    401092f0:	b9000062 	str	w2, [x3]
    401092f4:	d3482442 	ubfx	x2, x2, #8, #2
    401092f8:	71000c5f 	cmp	w2, #0x3
    401092fc:	54ffff81 	b.ne	401092ec <cvx16_dfi_ca_park_prbs+0x24>
    40109300:	7100041f 	cmp	w0, #0x1
    40109304:	d2940000 	mov	x0, #0xa000                	// #40960
    40109308:	f2a10000 	movk	x0, #0x800, lsl #16
    4010930c:	54000241 	b.ne	40109354 <cvx16_dfi_ca_park_prbs+0x8c>
    40109310:	52800362 	mov	w2, #0x1b                  	// #27
    40109314:	b9000002 	str	w2, [x0]
    40109318:	d2940080 	mov	x0, #0xa004                	// #40964
    4010931c:	52800022 	mov	w2, #0x1                   	// #1
    40109320:	f2a10000 	movk	x0, #0x800, lsl #16
    40109324:	b9000002 	str	w2, [x0]
    40109328:	529ff962 	mov	w2, #0xffcb                	// #65483
    4010932c:	72a03fe2 	movk	w2, #0x1ff, lsl #16
    40109330:	b9000402 	str	w2, [x0,#4]
    40109334:	12b80002 	mov	w2, #0x3fffffff            	// #1073741823
    40109338:	b9000802 	str	w2, [x0,#8]
    4010933c:	52800200 	mov	w0, #0x10                  	// #16
    40109340:	b90c9c20 	str	w0, [x1,#3228]
    40109344:	d2802e81 	mov	x1, #0x174                 	// #372
    40109348:	f2a10001 	movk	x1, #0x800, lsl #16
    4010934c:	b9000020 	str	w0, [x1]
    40109350:	d65f03c0 	ret
    40109354:	b900001f 	str	wzr, [x0]
    40109358:	17fffff0 	b	40109318 <cvx16_dfi_ca_park_prbs+0x50>

000000004010935c <cvx16_setting_check>:
    4010935c:	d2860000 	mov	x0, #0x3000                	// #12288
    40109360:	f2a10000 	movk	x0, #0x800, lsl #16
    40109364:	b9400000 	ldr	w0, [x0]
    40109368:	d2883200 	mov	x0, #0x4190                	// #16784
    4010936c:	f2a10000 	movk	x0, #0x800, lsl #16
    40109370:	b9400001 	ldr	w1, [x0]
    40109374:	b0000040 	adrp	x0, 40112000 <sram_union_buf+0x3400>
    40109378:	b90c9c01 	str	w1, [x0,#3228]
    4010937c:	d2883281 	mov	x1, #0x4194                	// #16788
    40109380:	f2a10001 	movk	x1, #0x800, lsl #16
    40109384:	b9400021 	ldr	w1, [x1]
    40109388:	b90c9c01 	str	w1, [x0,#3228]
    4010938c:	d65f03c0 	ret

0000000040109390 <cvx16_set_dfi_init_start>:
    40109390:	d2886401 	mov	x1, #0x4320                	// #17184
    40109394:	d2883602 	mov	x2, #0x41b0                	// #16816
    40109398:	f2a10001 	movk	x1, #0x800, lsl #16
    4010939c:	f2a10002 	movk	x2, #0x800, lsl #16
    401093a0:	b900003f 	str	wzr, [x1]
    401093a4:	b9400043 	ldr	w3, [x2]
    401093a8:	521b0060 	eor	w0, w3, #0x20
    401093ac:	121b0000 	and	w0, w0, #0x20
    401093b0:	4a030000 	eor	w0, w0, w3
    401093b4:	b0000043 	adrp	x3, 40112000 <sram_union_buf+0x3400>
    401093b8:	b90c9c60 	str	w0, [x3,#3228]
    401093bc:	b9000040 	str	w0, [x2]
    401093c0:	52800020 	mov	w0, #0x1                   	// #1
    401093c4:	b9000020 	str	w0, [x1]
    401093c8:	d65f03c0 	ret

00000000401093cc <cvx16_pll_init>:
    401093cc:	d28c0500 	mov	x0, #0x6028                	// #24616
    401093d0:	52800021 	mov	w1, #0x1                   	// #1
    401093d4:	f2a10000 	movk	x0, #0x800, lsl #16
    401093d8:	72a00101 	movk	w1, #0x8, lsl #16
    401093dc:	d2852b82 	mov	x2, #0x295c                	// #10588
    401093e0:	d2852a03 	mov	x3, #0x2950                	// #10576
    401093e4:	b900001f 	str	wzr, [x0]
    401093e8:	f2a06002 	movk	x2, #0x300, lsl #16
    401093ec:	b9002c01 	str	w1, [x0,#44]
    401093f0:	52810101 	mov	w1, #0x808                 	// #2056
    401093f4:	72a02021 	movk	w1, #0x101, lsl #16
    401093f8:	b9003001 	str	w1, [x0,#48]
    401093fc:	b0000040 	adrp	x0, 40112000 <sram_union_buf+0x3400>
    40109400:	f2a06003 	movk	x3, #0x300, lsl #16
    40109404:	d28c0084 	mov	x4, #0x6004                	// #24580
    40109408:	f9466001 	ldr	x1, [x0,#3264]
    4010940c:	d2852a80 	mov	x0, #0x2954                	// #10580
    40109410:	f2a06000 	movk	x0, #0x300, lsl #16
    40109414:	f2a10004 	movk	x4, #0x800, lsl #16
    40109418:	b9000001 	str	w1, [x0]
    4010941c:	b0000040 	adrp	x0, 40112000 <sram_union_buf+0x3400>
    40109420:	79597001 	ldrh	w1, [x0,#3256]
    40109424:	d2852b00 	mov	x0, #0x2958                	// #10584
    40109428:	f2a06000 	movk	x0, #0x300, lsl #16
    4010942c:	b9000001 	str	w1, [x0]
    40109430:	b0000040 	adrp	x0, 40112000 <sram_union_buf+0x3400>
    40109434:	f9465401 	ldr	x1, [x0,#3240]
    40109438:	b0000040 	adrp	x0, 40112000 <sram_union_buf+0x3400>
    4010943c:	12005c21 	and	w1, w1, #0xffffff
    40109440:	b90c9c01 	str	w1, [x0,#3228]
    40109444:	b9000041 	str	w1, [x2]
    40109448:	b9400061 	ldr	w1, [x3]
    4010944c:	52000021 	eor	w1, w1, #0x1
    40109450:	121b6c22 	and	w2, w1, #0xffffffe1
    40109454:	521b0041 	eor	w1, w2, #0x20
    40109458:	121b0021 	and	w1, w1, #0x20
    4010945c:	4a020021 	eor	w1, w1, w2
    40109460:	52806162 	mov	w2, #0x30b                 	// #779
    40109464:	12197821 	and	w1, w1, #0xffffffbf
    40109468:	b90c9c01 	str	w1, [x0,#3228]
    4010946c:	b9000061 	str	w1, [x3]
    40109470:	d28c0183 	mov	x3, #0x600c                	// #24588
    40109474:	f2a10003 	movk	x3, #0x800, lsl #16
    40109478:	b9400061 	ldr	w1, [x3]
    4010947c:	12103c21 	and	w1, w1, #0xffff0000
    40109480:	2a020021 	orr	w1, w1, w2
    40109484:	d28c0202 	mov	x2, #0x6010                	// #24592
    40109488:	b90c9c01 	str	w1, [x0,#3228]
    4010948c:	f2a10002 	movk	x2, #0x800, lsl #16
    40109490:	b9000061 	str	w1, [x3]
    40109494:	b9400041 	ldr	w1, [x2]
    40109498:	12185c21 	and	w1, w1, #0xffffff00
    4010949c:	b9000041 	str	w1, [x2]
    401094a0:	52800021 	mov	w1, #0x1                   	// #1
    401094a4:	b90c9c01 	str	w1, [x0,#3228]
    401094a8:	b9000081 	str	w1, [x4]
    401094ac:	b9400064 	ldr	w4, [x3]
    401094b0:	52190081 	eor	w1, w4, #0x80
    401094b4:	12190021 	and	w1, w1, #0x80
    401094b8:	4a040021 	eor	w1, w1, w4
    401094bc:	b90c9c01 	str	w1, [x0,#3228]
    401094c0:	91327000 	add	x0, x0, #0xc9c
    401094c4:	b9000061 	str	w1, [x3]
    401094c8:	b9400041 	ldr	w1, [x2]
    401094cc:	b9000001 	str	w1, [x0]
    401094d0:	367fffc1 	tbz	w1, #15, 401094c8 <cvx16_pll_init+0xfc>
    401094d4:	d65f03c0 	ret

00000000401094d8 <cvx16_clk_gating_disable>:
    401094d8:	d28c0880 	mov	x0, #0x6044                	// #24644
    401094dc:	52825ea1 	mov	w1, #0x12f5                	// #4853
    401094e0:	f2a10000 	movk	x0, #0x800, lsl #16
    401094e4:	d2880602 	mov	x2, #0x4030                	// #16432
    401094e8:	f2a10002 	movk	x2, #0x800, lsl #16
    401094ec:	12b01003 	mov	w3, #0x7f7fffff            	// #2139095039
    401094f0:	b9000001 	str	w1, [x0]
    401094f4:	b0000041 	adrp	x1, 40112000 <sram_union_buf+0x3400>
    401094f8:	d2801e80 	mov	x0, #0xf4                  	// #244
    401094fc:	f2a10000 	movk	x0, #0x800, lsl #16
    40109500:	b90c9c3f 	str	wzr, [x1,#3228]
    40109504:	b900001f 	str	wzr, [x0]
    40109508:	b9400040 	ldr	w0, [x2]
    4010950c:	12167800 	and	w0, w0, #0xfffffdff
    40109510:	b90c9c20 	str	w0, [x1,#3228]
    40109514:	b9000040 	str	w0, [x2]
    40109518:	b9411840 	ldr	w0, [x2,#280]
    4010951c:	0a030000 	and	w0, w0, w3
    40109520:	b90c9c20 	str	w0, [x1,#3228]
    40109524:	b9011840 	str	w0, [x2,#280]
    40109528:	d65f03c0 	ret

000000004010952c <cvx16_clk_gating_enable>:
    4010952c:	b0000042 	adrp	x2, 40112000 <sram_union_buf+0x3400>
    40109530:	d28c0881 	mov	x1, #0x6044                	// #24644
    40109534:	f2a10001 	movk	x1, #0x800, lsl #16
    40109538:	52859020 	mov	w0, #0x2c81                	// #11393
    4010953c:	b90c9c40 	str	w0, [x2,#3228]
    40109540:	b9000020 	str	w0, [x1]
    40109544:	d2883201 	mov	x1, #0x4190                	// #16784
    40109548:	f2a10001 	movk	x1, #0x800, lsl #16
    4010954c:	b9400020 	ldr	w0, [x1]
    40109550:	12036800 	and	w0, w0, #0xe0ffffff
    40109554:	32070400 	orr	w0, w0, #0x6000000
    40109558:	b9000020 	str	w0, [x1]
    4010955c:	d2801e81 	mov	x1, #0xf4                  	// #244
    40109560:	52800660 	mov	w0, #0x33                  	// #51
    40109564:	f2a10001 	movk	x1, #0x800, lsl #16
    40109568:	72a00060 	movk	w0, #0x3, lsl #16
    4010956c:	b90c9c40 	str	w0, [x2,#3228]
    40109570:	b9000020 	str	w0, [x1]
    40109574:	d2880601 	mov	x1, #0x4030                	// #16432
    40109578:	f2a10001 	movk	x1, #0x800, lsl #16
    4010957c:	b9400023 	ldr	w3, [x1]
    40109580:	52170060 	eor	w0, w3, #0x200
    40109584:	12170000 	and	w0, w0, #0x200
    40109588:	4a030000 	eor	w0, w0, w3
    4010958c:	d2882903 	mov	x3, #0x4148                	// #16712
    40109590:	b90c9c40 	str	w0, [x2,#3228]
    40109594:	f2a10003 	movk	x3, #0x800, lsl #16
    40109598:	b9000020 	str	w0, [x1]
    4010959c:	b9400061 	ldr	w1, [x3]
    401095a0:	52090020 	eor	w0, w1, #0x800000
    401095a4:	12090000 	and	w0, w0, #0x800000
    401095a8:	4a010001 	eor	w1, w0, w1
    401095ac:	52010020 	eor	w0, w1, #0x80000000
    401095b0:	12010000 	and	w0, w0, #0x80000000
    401095b4:	4a010000 	eor	w0, w0, w1
    401095b8:	b90c9c40 	str	w0, [x2,#3228]
    401095bc:	b9000060 	str	w0, [x3]
    401095c0:	d65f03c0 	ret

00000000401095c4 <cvx16_wrlvl_req>:
    401095c4:	a9bf7bfd 	stp	x29, x30, [sp,#-16]!
    401095c8:	d2800b80 	mov	x0, #0x5c                  	// #92
    401095cc:	f2a10000 	movk	x0, #0x800, lsl #16
    401095d0:	52a01fc1 	mov	w1, #0xfe0000              	// #16646144
    401095d4:	910003fd 	mov	x29, sp
    401095d8:	b9000001 	str	w1, [x0]
    401095dc:	d288a800 	mov	x0, #0x4540                	// #17728
    401095e0:	f2a10000 	movk	x0, #0x800, lsl #16
    401095e4:	b0000049 	adrp	x9, 40112000 <sram_union_buf+0x3400>
    401095e8:	d2887f81 	mov	x1, #0x43fc                	// #17404
    401095ec:	9132712c 	add	x12, x9, #0xc9c
    401095f0:	b900001f 	str	wzr, [x0]
    401095f4:	f2a10001 	movk	x1, #0x800, lsl #16
    401095f8:	b900b01f 	str	wzr, [x0,#176]
    401095fc:	b901601f 	str	wzr, [x0,#352]
    40109600:	b9400020 	ldr	w0, [x1]
    40109604:	b9000180 	str	w0, [x12]
    40109608:	35ffffc0 	cbnz	w0, 40109600 <cvx16_wrlvl_req+0x3c>
    4010960c:	d2880601 	mov	x1, #0x4030                	// #16432
    40109610:	12800560 	mov	w0, #0xffffffd4            	// #-44
    40109614:	f2a10001 	movk	x1, #0x800, lsl #16
    40109618:	b9400026 	ldr	w6, [x1]
    4010961c:	0a0000c0 	and	w0, w6, w0
    40109620:	120000cb 	and	w11, w6, #0x1
    40109624:	b9000180 	str	w0, [x12]
    40109628:	b9000020 	str	w0, [x1]
    4010962c:	97ffffab 	bl	401094d8 <cvx16_clk_gating_disable>
    40109630:	d2884880 	mov	x0, #0x4244                	// #16964
    40109634:	f2a10000 	movk	x0, #0x800, lsl #16
    40109638:	b9400008 	ldr	w8, [x0]
    4010963c:	b9000188 	str	w8, [x12]
    40109640:	12000108 	and	w8, w8, #0x1
    40109644:	97fffc66 	bl	401087dc <cvx16_bist_wrlvl_init>
    40109648:	34000c68 	cbz	w8, 401097d4 <cvx16_wrlvl_req+0x210>
    4010964c:	d2881c00 	mov	x0, #0x40e0                	// #16608
    40109650:	f2a10000 	movk	x0, #0x800, lsl #16
    40109654:	b9400007 	ldr	w7, [x0]
    40109658:	53197cea 	lsr	w10, w7, #25
    4010965c:	7200054d 	ands	w13, w10, #0x3
    40109660:	54000921 	b.ne	40109784 <cvx16_wrlvl_req+0x1c0>
    40109664:	b9000187 	str	w7, [x12]
    40109668:	521901a1 	eor	w1, w13, #0x80
    4010966c:	52800020 	mov	w0, #0x1                   	// #1
    40109670:	12190021 	and	w1, w1, #0x80
    40109674:	4a0d0021 	eor	w1, w1, w13
    40109678:	12003c21 	and	w1, w1, #0xffff
    4010967c:	97fffda4 	bl	40108d0c <cvx16_synp_mrw>
    40109680:	d2803001 	mov	x1, #0x180                 	// #384
    40109684:	f2a10001 	movk	x1, #0x800, lsl #16
    40109688:	b9400022 	ldr	w2, [x1]
    4010968c:	52000040 	eor	w0, w2, #0x1
    40109690:	12000000 	and	w0, w0, #0x1
    40109694:	4a020000 	eor	w0, w0, w2
    40109698:	4a081008 	eor	w8, w0, w8, lsl #4
    4010969c:	121c0108 	and	w8, w8, #0x10
    401096a0:	4a000108 	eor	w8, w8, w0
    401096a4:	b90c9d28 	str	w8, [x9,#3228]
    401096a8:	b9000028 	str	w8, [x1]
    401096ac:	91327129 	add	x9, x9, #0xc9c
    401096b0:	d2868881 	mov	x1, #0x3444                	// #13380
    401096b4:	f2a10001 	movk	x1, #0x800, lsl #16
    401096b8:	b9400020 	ldr	w0, [x1]
    401096bc:	b9000120 	str	w0, [x9]
    401096c0:	3607ffc0 	tbz	w0, #0, 401096b8 <cvx16_wrlvl_req+0xf4>
    401096c4:	d2a10020 	mov	x0, #0x8010000             	// #134283264
    401096c8:	52a00081 	mov	w1, #0x40000               	// #262144
    401096cc:	b9000001 	str	w1, [x0]
    401096d0:	d2880c01 	mov	x1, #0x4060                	// #16480
    401096d4:	f2a10001 	movk	x1, #0x800, lsl #16
    401096d8:	b9400020 	ldr	w0, [x1]
    401096dc:	121f7800 	and	w0, w0, #0xfffffffe
    401096e0:	b9000120 	str	w0, [x9]
    401096e4:	b9000020 	str	w0, [x1]
    401096e8:	d2881b80 	mov	x0, #0x40dc                	// #16604
    401096ec:	f2a10000 	movk	x0, #0x800, lsl #16
    401096f0:	b9400001 	ldr	w1, [x0]
    401096f4:	52800020 	mov	w0, #0x1                   	// #1
    401096f8:	b9000121 	str	w1, [x9]
    401096fc:	12003c21 	and	w1, w1, #0xffff
    40109700:	97fffd83 	bl	40108d0c <cvx16_synp_mrw>
    40109704:	d2881c00 	mov	x0, #0x40e0                	// #16608
    40109708:	f2a10000 	movk	x0, #0x800, lsl #16
    4010970c:	b9400001 	ldr	w1, [x0]
    40109710:	52800040 	mov	w0, #0x2                   	// #2
    40109714:	b9000121 	str	w1, [x9]
    40109718:	53107c21 	lsr	w1, w1, #16
    4010971c:	97fffd7c 	bl	40108d0c <cvx16_synp_mrw>
    40109720:	d2880602 	mov	x2, #0x4030                	// #16432
    40109724:	f2a10002 	movk	x2, #0x800, lsl #16
    40109728:	b9400040 	ldr	w0, [x2]
    4010972c:	4a060001 	eor	w1, w0, w6
    40109730:	121b0021 	and	w1, w1, #0x20
    40109734:	4a000021 	eor	w1, w1, w0
    40109738:	4a060020 	eor	w0, w1, w6
    4010973c:	121d0000 	and	w0, w0, #0x8
    40109740:	4a010001 	eor	w1, w0, w1
    40109744:	4a060020 	eor	w0, w1, w6
    40109748:	121f0000 	and	w0, w0, #0x2
    4010974c:	4a010000 	eor	w0, w0, w1
    40109750:	d288a801 	mov	x1, #0x4540                	// #17728
    40109754:	121f7800 	and	w0, w0, #0xfffffffe
    40109758:	f2a10001 	movk	x1, #0x800, lsl #16
    4010975c:	2a0b0000 	orr	w0, w0, w11
    40109760:	b9000120 	str	w0, [x9]
    40109764:	b9000040 	str	w0, [x2]
    40109768:	52800020 	mov	w0, #0x1                   	// #1
    4010976c:	b9000020 	str	w0, [x1]
    40109770:	91058021 	add	x1, x1, #0x160
    40109774:	b8150020 	stur	w0, [x1,#-176]
    40109778:	b9000020 	str	w0, [x1]
    4010977c:	a8c17bfd 	ldp	x29, x30, [sp],#16
    40109780:	17ffff6b 	b	4010952c <cvx16_clk_gating_enable>
    40109784:	120574e1 	and	w1, w7, #0xf9ffffff
    40109788:	52800040 	mov	w0, #0x2                   	// #2
    4010978c:	b9000181 	str	w1, [x12]
    40109790:	53107c21 	lsr	w1, w1, #16
    40109794:	97fffd5e 	bl	40108d0c <cvx16_synp_mrw>
    40109798:	531e014a 	ubfiz	w10, w10, #2, #1
    4010979c:	d2881b80 	mov	x0, #0x40dc                	// #16604
    401097a0:	f2a10000 	movk	x0, #0x800, lsl #16
    401097a4:	b9400001 	ldr	w1, [x0]
    401097a8:	b9000181 	str	w1, [x12]
    401097ac:	12167820 	and	w0, w1, #0xfffffdff
    401097b0:	531a7ce1 	lsr	w1, w7, #26
    401097b4:	531a0021 	ubfiz	w1, w1, #6, #1
    401097b8:	4a000021 	eor	w1, w1, w0
    401097bc:	121a0021 	and	w1, w1, #0x40
    401097c0:	4a000021 	eor	w1, w1, w0
    401097c4:	4a01014a 	eor	w10, w10, w1
    401097c8:	121e014a 	and	w10, w10, #0x4
    401097cc:	4a01014d 	eor	w13, w10, w1
    401097d0:	17ffffa6 	b	40109668 <cvx16_wrlvl_req+0xa4>
    401097d4:	d2881b80 	mov	x0, #0x40dc                	// #16604
    401097d8:	f2a10000 	movk	x0, #0x800, lsl #16
    401097dc:	b9400001 	ldr	w1, [x0]
    401097e0:	b9000181 	str	w1, [x12]
    401097e4:	12167821 	and	w1, w1, #0xfffffdff
    401097e8:	521a0020 	eor	w0, w1, #0x40
    401097ec:	121a0000 	and	w0, w0, #0x40
    401097f0:	4a010000 	eor	w0, w0, w1
    401097f4:	529fff61 	mov	w1, #0xfffb                	// #65531
    401097f8:	121d780d 	and	w13, w0, #0xfffffffb
    401097fc:	0a010001 	and	w1, w0, w1
    40109800:	52800020 	mov	w0, #0x1                   	// #1
    40109804:	97fffd42 	bl	40108d0c <cvx16_synp_mrw>
    40109808:	17ffff98 	b	40109668 <cvx16_wrlvl_req+0xa4>

000000004010980c <cvx16_rdglvl_req>:
    4010980c:	a9bf7bfd 	stp	x29, x30, [sp,#-16]!
    40109810:	d288a800 	mov	x0, #0x4540                	// #17728
    40109814:	f2a10000 	movk	x0, #0x800, lsl #16
    40109818:	d2887f81 	mov	x1, #0x43fc                	// #17404
    4010981c:	910003fd 	mov	x29, sp
    40109820:	b900001f 	str	wzr, [x0]
    40109824:	b0000047 	adrp	x7, 40112000 <sram_union_buf+0x3400>
    40109828:	b900b01f 	str	wzr, [x0,#176]
    4010982c:	913270e4 	add	x4, x7, #0xc9c
    40109830:	f2a10001 	movk	x1, #0x800, lsl #16
    40109834:	b901601f 	str	wzr, [x0,#352]
    40109838:	b9400020 	ldr	w0, [x1]
    4010983c:	b9000080 	str	w0, [x4]
    40109840:	35ffffc0 	cbnz	w0, 40109838 <cvx16_rdglvl_req+0x2c>
    40109844:	d2880601 	mov	x1, #0x4030                	// #16432
    40109848:	12800560 	mov	w0, #0xffffffd4            	// #-44
    4010984c:	f2a10001 	movk	x1, #0x800, lsl #16
    40109850:	b9400026 	ldr	w6, [x1]
    40109854:	0a0000c0 	and	w0, w6, w0
    40109858:	120000c8 	and	w8, w6, #0x1
    4010985c:	b9000080 	str	w0, [x4]
    40109860:	b9000020 	str	w0, [x1]
    40109864:	97ffff1d 	bl	401094d8 <cvx16_clk_gating_disable>
    40109868:	d2803080 	mov	x0, #0x184                 	// #388
    4010986c:	f2a10000 	movk	x0, #0x800, lsl #16
    40109870:	b9400009 	ldr	w9, [x0]
    40109874:	b9000089 	str	w9, [x4]
    40109878:	d3441129 	ubfx	x9, x9, #4, #1
    4010987c:	34000269 	cbz	w9, 401098c8 <cvx16_rdglvl_req+0xbc>
    40109880:	d2880c01 	mov	x1, #0x4060                	// #16480
    40109884:	f2a10001 	movk	x1, #0x800, lsl #16
    40109888:	b9400022 	ldr	w2, [x1]
    4010988c:	52000040 	eor	w0, w2, #0x1
    40109890:	12000000 	and	w0, w0, #0x1
    40109894:	4a020000 	eor	w0, w0, w2
    40109898:	b9000080 	str	w0, [x4]
    4010989c:	b9000020 	str	w0, [x1]
    401098a0:	d2881c00 	mov	x0, #0x40e0                	// #16608
    401098a4:	f2a10000 	movk	x0, #0x800, lsl #16
    401098a8:	b9400000 	ldr	w0, [x0]
    401098ac:	521e0001 	eor	w1, w0, #0x4
    401098b0:	121e0021 	and	w1, w1, #0x4
    401098b4:	4a000021 	eor	w1, w1, w0
    401098b8:	52800060 	mov	w0, #0x3                   	// #3
    401098bc:	b9000081 	str	w1, [x4]
    401098c0:	12003c21 	and	w1, w1, #0xffff
    401098c4:	97fffd12 	bl	40108d0c <cvx16_synp_mrw>
    401098c8:	97fffbe3 	bl	40108854 <cvx16_bist_rdglvl_init>
    401098cc:	913270ea 	add	x10, x7, #0xc9c
    401098d0:	d2803081 	mov	x1, #0x184                 	// #388
    401098d4:	f2a10001 	movk	x1, #0x800, lsl #16
    401098d8:	b9400022 	ldr	w2, [x1]
    401098dc:	52000040 	eor	w0, w2, #0x1
    401098e0:	12000000 	and	w0, w0, #0x1
    401098e4:	4a020000 	eor	w0, w0, w2
    401098e8:	b90c9ce0 	str	w0, [x7,#3228]
    401098ec:	b9000020 	str	w0, [x1]
    401098f0:	d2868881 	mov	x1, #0x3444                	// #13380
    401098f4:	f2a10001 	movk	x1, #0x800, lsl #16
    401098f8:	b9400020 	ldr	w0, [x1]
    401098fc:	b9000140 	str	w0, [x10]
    40109900:	360fffc0 	tbz	w0, #1, 401098f8 <cvx16_rdglvl_req+0xec>
    40109904:	d2a10020 	mov	x0, #0x8010000             	// #134283264
    40109908:	52a00081 	mov	w1, #0x40000               	// #262144
    4010990c:	b9000001 	str	w1, [x0]
    40109910:	34000209 	cbz	w9, 40109950 <cvx16_rdglvl_req+0x144>
    40109914:	d2881c00 	mov	x0, #0x40e0                	// #16608
    40109918:	f2a10000 	movk	x0, #0x800, lsl #16
    4010991c:	b9400000 	ldr	w0, [x0]
    40109920:	121d7801 	and	w1, w0, #0xfffffffb
    40109924:	b9000141 	str	w1, [x10]
    40109928:	529fff61 	mov	w1, #0xfffb                	// #65531
    4010992c:	0a010001 	and	w1, w0, w1
    40109930:	52800060 	mov	w0, #0x3                   	// #3
    40109934:	97fffcf6 	bl	40108d0c <cvx16_synp_mrw>
    40109938:	d2880c01 	mov	x1, #0x4060                	// #16480
    4010993c:	f2a10001 	movk	x1, #0x800, lsl #16
    40109940:	b9400020 	ldr	w0, [x1]
    40109944:	121f7800 	and	w0, w0, #0xfffffffe
    40109948:	b9000140 	str	w0, [x10]
    4010994c:	b9000020 	str	w0, [x1]
    40109950:	d2880602 	mov	x2, #0x4030                	// #16432
    40109954:	f2a10002 	movk	x2, #0x800, lsl #16
    40109958:	b9400040 	ldr	w0, [x2]
    4010995c:	4a060001 	eor	w1, w0, w6
    40109960:	121b0021 	and	w1, w1, #0x20
    40109964:	4a000021 	eor	w1, w1, w0
    40109968:	4a060020 	eor	w0, w1, w6
    4010996c:	121d0000 	and	w0, w0, #0x8
    40109970:	4a010001 	eor	w1, w0, w1
    40109974:	4a060020 	eor	w0, w1, w6
    40109978:	121f0000 	and	w0, w0, #0x2
    4010997c:	4a010000 	eor	w0, w0, w1
    40109980:	d288a801 	mov	x1, #0x4540                	// #17728
    40109984:	121f7800 	and	w0, w0, #0xfffffffe
    40109988:	f2a10001 	movk	x1, #0x800, lsl #16
    4010998c:	2a080000 	orr	w0, w0, w8
    40109990:	b90c9ce0 	str	w0, [x7,#3228]
    40109994:	b9000040 	str	w0, [x2]
    40109998:	52800020 	mov	w0, #0x1                   	// #1
    4010999c:	b9000020 	str	w0, [x1]
    401099a0:	91058021 	add	x1, x1, #0x160
    401099a4:	b8150020 	stur	w0, [x1,#-176]
    401099a8:	b9000020 	str	w0, [x1]
    401099ac:	a8c17bfd 	ldp	x29, x30, [sp],#16
    401099b0:	17fffedf 	b	4010952c <cvx16_clk_gating_enable>

00000000401099b4 <cvx16_rdlvl_req>:
    401099b4:	a9bf7bfd 	stp	x29, x30, [sp,#-16]!
    401099b8:	2a0003e7 	mov	w7, w0
    401099bc:	d288a800 	mov	x0, #0x4540                	// #17728
    401099c0:	d2887f81 	mov	x1, #0x43fc                	// #17404
    401099c4:	f2a10000 	movk	x0, #0x800, lsl #16
    401099c8:	910003fd 	mov	x29, sp
    401099cc:	b000004c 	adrp	x12, 40112000 <sram_union_buf+0x3400>
    401099d0:	b900001f 	str	wzr, [x0]
    401099d4:	91327185 	add	x5, x12, #0xc9c
    401099d8:	b900b01f 	str	wzr, [x0,#176]
    401099dc:	f2a10001 	movk	x1, #0x800, lsl #16
    401099e0:	b901601f 	str	wzr, [x0,#352]
    401099e4:	b9400020 	ldr	w0, [x1]
    401099e8:	b90000a0 	str	w0, [x5]
    401099ec:	35ffffc0 	cbnz	w0, 401099e4 <cvx16_rdlvl_req+0x30>
    401099f0:	d2880601 	mov	x1, #0x4030                	// #16432
    401099f4:	12800560 	mov	w0, #0xffffffd4            	// #-44
    401099f8:	f2a10001 	movk	x1, #0x800, lsl #16
    401099fc:	b940002b 	ldr	w11, [x1]
    40109a00:	0a000160 	and	w0, w11, w0
    40109a04:	1200016d 	and	w13, w11, #0x1
    40109a08:	b90000a0 	str	w0, [x5]
    40109a0c:	b9000020 	str	w0, [x1]
    40109a10:	97fffeb2 	bl	401094d8 <cvx16_clk_gating_disable>
    40109a14:	52800020 	mov	w0, #0x1                   	// #1
    40109a18:	97fffe2c 	bl	401092c8 <cvx16_dfi_ca_park_prbs>
    40109a1c:	d2801002 	mov	x2, #0x80                  	// #128
    40109a20:	f2a10002 	movk	x2, #0x800, lsl #16
    40109a24:	b9400040 	ldr	w0, [x2]
    40109a28:	12096000 	and	w0, w0, #0xff80ffff
    40109a2c:	320b0001 	orr	w1, w0, #0x200000
    40109a30:	52081020 	eor	w0, w1, #0x1f000000
    40109a34:	12081800 	and	w0, w0, #0x7f000000
    40109a38:	4a010000 	eor	w0, w0, w1
    40109a3c:	d2801181 	mov	x1, #0x8c                  	// #140
    40109a40:	b90000a0 	str	w0, [x5]
    40109a44:	f2a10001 	movk	x1, #0x800, lsl #16
    40109a48:	b9000040 	str	w0, [x2]
    40109a4c:	b9400020 	ldr	w0, [x1]
    40109a50:	d3420808 	ubfx	x8, x0, #2, #1
    40109a54:	121c7000 	and	w0, w0, #0xfffffff1
    40109a58:	b90000a0 	str	w0, [x5]
    40109a5c:	b9000020 	str	w0, [x1]
    40109a60:	d2803100 	mov	x0, #0x188                 	// #392
    40109a64:	f2a10000 	movk	x0, #0x800, lsl #16
    40109a68:	b9400006 	ldr	w6, [x0]
    40109a6c:	b90000a6 	str	w6, [x5]
    40109a70:	d34410c6 	ubfx	x6, x6, #4, #1
    40109a74:	34000266 	cbz	w6, 40109ac0 <cvx16_rdlvl_req+0x10c>
    40109a78:	d2880c01 	mov	x1, #0x4060                	// #16480
    40109a7c:	f2a10001 	movk	x1, #0x800, lsl #16
    40109a80:	b9400022 	ldr	w2, [x1]
    40109a84:	52000040 	eor	w0, w2, #0x1
    40109a88:	12000000 	and	w0, w0, #0x1
    40109a8c:	4a020000 	eor	w0, w0, w2
    40109a90:	b90000a0 	str	w0, [x5]
    40109a94:	b9000020 	str	w0, [x1]
    40109a98:	d2881c00 	mov	x0, #0x40e0                	// #16608
    40109a9c:	f2a10000 	movk	x0, #0x800, lsl #16
    40109aa0:	b9400000 	ldr	w0, [x0]
    40109aa4:	521e0001 	eor	w1, w0, #0x4
    40109aa8:	121e0021 	and	w1, w1, #0x4
    40109aac:	4a000021 	eor	w1, w1, w0
    40109ab0:	52800060 	mov	w0, #0x3                   	// #3
    40109ab4:	b90000a1 	str	w1, [x5]
    40109ab8:	12003c21 	and	w1, w1, #0xffff
    40109abc:	97fffc94 	bl	40108d0c <cvx16_synp_mrw>
    40109ac0:	2a0703e0 	mov	w0, w7
    40109ac4:	97fffb82 	bl	401088cc <cvx16_bist_rdlvl_init>
    40109ac8:	d2803101 	mov	x1, #0x188                 	// #392
    40109acc:	f2a10001 	movk	x1, #0x800, lsl #16
    40109ad0:	b9400022 	ldr	w2, [x1]
    40109ad4:	52000040 	eor	w0, w2, #0x1
    40109ad8:	12000000 	and	w0, w0, #0x1
    40109adc:	4a020000 	eor	w0, w0, w2
    40109ae0:	b90c9d80 	str	w0, [x12,#3228]
    40109ae4:	d2868882 	mov	x2, #0x3444                	// #13380
    40109ae8:	b9000020 	str	w0, [x1]
    40109aec:	91327181 	add	x1, x12, #0xc9c
    40109af0:	f2a10002 	movk	x2, #0x800, lsl #16
    40109af4:	b9400040 	ldr	w0, [x2]
    40109af8:	b9000020 	str	w0, [x1]
    40109afc:	3617ffc0 	tbz	w0, #2, 40109af4 <cvx16_rdlvl_req+0x140>
    40109b00:	34000368 	cbz	w8, 40109b6c <cvx16_rdlvl_req+0x1b8>
    40109b04:	d2801182 	mov	x2, #0x8c                  	// #140
    40109b08:	f2a10002 	movk	x2, #0x800, lsl #16
    40109b0c:	b9400040 	ldr	w0, [x2]
    40109b10:	121d7800 	and	w0, w0, #0xfffffffb
    40109b14:	b9000020 	str	w0, [x1]
    40109b18:	b9000040 	str	w0, [x2]
    40109b1c:	b940fc43 	ldr	w3, [x2,#252]
    40109b20:	52000060 	eor	w0, w3, #0x1
    40109b24:	12000000 	and	w0, w0, #0x1
    40109b28:	4a030000 	eor	w0, w0, w3
    40109b2c:	b9000020 	str	w0, [x1]
    40109b30:	b900fc40 	str	w0, [x2,#252]
    40109b34:	d2868881 	mov	x1, #0x3444                	// #13380
    40109b38:	91327182 	add	x2, x12, #0xc9c
    40109b3c:	f2a10001 	movk	x1, #0x800, lsl #16
    40109b40:	b9400020 	ldr	w0, [x1]
    40109b44:	b9000040 	str	w0, [x2]
    40109b48:	3617ffc0 	tbz	w0, #2, 40109b40 <cvx16_rdlvl_req+0x18c>
    40109b4c:	d2801181 	mov	x1, #0x8c                  	// #140
    40109b50:	f2a10001 	movk	x1, #0x800, lsl #16
    40109b54:	b9400023 	ldr	w3, [x1]
    40109b58:	521e0060 	eor	w0, w3, #0x4
    40109b5c:	121e0000 	and	w0, w0, #0x4
    40109b60:	4a030000 	eor	w0, w0, w3
    40109b64:	b9000040 	str	w0, [x2]
    40109b68:	b9000020 	str	w0, [x1]
    40109b6c:	34000206 	cbz	w6, 40109bac <cvx16_rdlvl_req+0x1f8>
    40109b70:	d2881c00 	mov	x0, #0x40e0                	// #16608
    40109b74:	f2a10000 	movk	x0, #0x800, lsl #16
    40109b78:	b9400000 	ldr	w0, [x0]
    40109b7c:	121d7801 	and	w1, w0, #0xfffffffb
    40109b80:	b90c9d81 	str	w1, [x12,#3228]
    40109b84:	529fff61 	mov	w1, #0xfffb                	// #65531
    40109b88:	0a010001 	and	w1, w0, w1
    40109b8c:	52800060 	mov	w0, #0x3                   	// #3
    40109b90:	97fffc5f 	bl	40108d0c <cvx16_synp_mrw>
    40109b94:	d2880c01 	mov	x1, #0x4060                	// #16480
    40109b98:	f2a10001 	movk	x1, #0x800, lsl #16
    40109b9c:	b9400020 	ldr	w0, [x1]
    40109ba0:	121f7800 	and	w0, w0, #0xfffffffe
    40109ba4:	b90c9d80 	str	w0, [x12,#3228]
    40109ba8:	b9000020 	str	w0, [x1]
    40109bac:	97fffc32 	bl	40108c74 <cvx16_rdvld_train>
    40109bb0:	d2a10020 	mov	x0, #0x8010000             	// #134283264
    40109bb4:	52a00081 	mov	w1, #0x40000               	// #262144
    40109bb8:	b9000001 	str	w1, [x0]
    40109bbc:	52800000 	mov	w0, #0x0                   	// #0
    40109bc0:	97fffdc2 	bl	401092c8 <cvx16_dfi_ca_park_prbs>
    40109bc4:	d2880602 	mov	x2, #0x4030                	// #16432
    40109bc8:	f2a10002 	movk	x2, #0x800, lsl #16
    40109bcc:	b9400040 	ldr	w0, [x2]
    40109bd0:	4a0b0001 	eor	w1, w0, w11
    40109bd4:	121b0021 	and	w1, w1, #0x20
    40109bd8:	4a000021 	eor	w1, w1, w0
    40109bdc:	4a0b0020 	eor	w0, w1, w11
    40109be0:	121d0000 	and	w0, w0, #0x8
    40109be4:	4a010001 	eor	w1, w0, w1
    40109be8:	4a0b0020 	eor	w0, w1, w11
    40109bec:	121f0000 	and	w0, w0, #0x2
    40109bf0:	4a010000 	eor	w0, w0, w1
    40109bf4:	d288a801 	mov	x1, #0x4540                	// #17728
    40109bf8:	121f7800 	and	w0, w0, #0xfffffffe
    40109bfc:	f2a10001 	movk	x1, #0x800, lsl #16
    40109c00:	2a0d0000 	orr	w0, w0, w13
    40109c04:	b90c9d80 	str	w0, [x12,#3228]
    40109c08:	b9000040 	str	w0, [x2]
    40109c0c:	52800020 	mov	w0, #0x1                   	// #1
    40109c10:	b9000020 	str	w0, [x1]
    40109c14:	91058021 	add	x1, x1, #0x160
    40109c18:	b8150020 	stur	w0, [x1,#-176]
    40109c1c:	b9000020 	str	w0, [x1]
    40109c20:	a8c17bfd 	ldp	x29, x30, [sp],#16
    40109c24:	17fffe42 	b	4010952c <cvx16_clk_gating_enable>

0000000040109c28 <cvx16_wdqlvl_req>:
    40109c28:	a9bf7bfd 	stp	x29, x30, [sp,#-16]!
    40109c2c:	2a0003e9 	mov	w9, w0
    40109c30:	d288a800 	mov	x0, #0x4540                	// #17728
    40109c34:	2a0103ea 	mov	w10, w1
    40109c38:	f2a10000 	movk	x0, #0x800, lsl #16
    40109c3c:	910003fd 	mov	x29, sp
    40109c40:	d2887f81 	mov	x1, #0x43fc                	// #17404
    40109c44:	b900001f 	str	wzr, [x0]
    40109c48:	b0000045 	adrp	x5, 40112000 <sram_union_buf+0x3400>
    40109c4c:	b900b01f 	str	wzr, [x0,#176]
    40109c50:	913270a8 	add	x8, x5, #0xc9c
    40109c54:	f2a10001 	movk	x1, #0x800, lsl #16
    40109c58:	b901601f 	str	wzr, [x0,#352]
    40109c5c:	b9400020 	ldr	w0, [x1]
    40109c60:	b9000100 	str	w0, [x8]
    40109c64:	35ffffc0 	cbnz	w0, 40109c5c <cvx16_wdqlvl_req+0x34>
    40109c68:	d2880601 	mov	x1, #0x4030                	// #16432
    40109c6c:	12800560 	mov	w0, #0xffffffd4            	// #-44
    40109c70:	f2a10001 	movk	x1, #0x800, lsl #16
    40109c74:	b9400026 	ldr	w6, [x1]
    40109c78:	0a0000c0 	and	w0, w6, w0
    40109c7c:	120000c7 	and	w7, w6, #0x1
    40109c80:	b9000100 	str	w0, [x8]
    40109c84:	b9000020 	str	w0, [x1]
    40109c88:	97fffe14 	bl	401094d8 <cvx16_clk_gating_disable>
    40109c8c:	52800020 	mov	w0, #0x1                   	// #1
    40109c90:	97fffd8e 	bl	401092c8 <cvx16_dfi_ca_park_prbs>
    40109c94:	d2801780 	mov	x0, #0xbc                  	// #188
    40109c98:	f2a10000 	movk	x0, #0x800, lsl #16
    40109c9c:	b9400000 	ldr	w0, [x0]
    40109ca0:	350000ca 	cbnz	w10, 40109cb8 <cvx16_wdqlvl_req+0x90>
    40109ca4:	12137800 	and	w0, w0, #0xffffefff
    40109ca8:	52130001 	eor	w1, w0, #0x2000
    40109cac:	12130021 	and	w1, w1, #0x2000
    40109cb0:	4a000020 	eor	w0, w1, w0
    40109cb4:	14000007 	b	40109cd0 <cvx16_wdqlvl_req+0xa8>
    40109cb8:	7100055f 	cmp	w10, #0x1
    40109cbc:	54000aa1 	b.ne	40109e10 <cvx16_wdqlvl_req+0x1e8>
    40109cc0:	52140002 	eor	w2, w0, #0x1000
    40109cc4:	12140042 	and	w2, w2, #0x1000
    40109cc8:	4a000040 	eor	w0, w2, w0
    40109ccc:	12127800 	and	w0, w0, #0xffffdfff
    40109cd0:	b9000100 	str	w0, [x8]
    40109cd4:	d2801780 	mov	x0, #0xbc                  	// #188
    40109cd8:	f2a10000 	movk	x0, #0x800, lsl #16
    40109cdc:	b94c9ca1 	ldr	w1, [x5,#3228]
    40109ce0:	b9000001 	str	w1, [x0]
    40109ce4:	35000a2a 	cbnz	w10, 40109e28 <cvx16_wdqlvl_req+0x200>
    40109ce8:	d2880181 	mov	x1, #0x400c                	// #16396
    40109cec:	f2a10001 	movk	x1, #0x800, lsl #16
    40109cf0:	b9400022 	ldr	w2, [x1]
    40109cf4:	52190040 	eor	w0, w2, #0x80
    40109cf8:	12190000 	and	w0, w0, #0x80
    40109cfc:	4a020000 	eor	w0, w0, w2
    40109d00:	b90c9ca0 	str	w0, [x5,#3228]
    40109d04:	b9000020 	str	w0, [x1]
    40109d08:	97fffb94 	bl	40108b58 <cvx16_bist_wdmlvl_init>
    40109d0c:	d2803180 	mov	x0, #0x18c                 	// #396
    40109d10:	f2a10000 	movk	x0, #0x800, lsl #16
    40109d14:	b9400001 	ldr	w1, [x0]
    40109d18:	52000020 	eor	w0, w1, #0x1
    40109d1c:	12000000 	and	w0, w0, #0x1
    40109d20:	4a010000 	eor	w0, w0, w1
    40109d24:	b90c9ca0 	str	w0, [x5,#3228]
    40109d28:	3500086a 	cbnz	w10, 40109e34 <cvx16_wdqlvl_req+0x20c>
    40109d2c:	12157800 	and	w0, w0, #0xfffffbff
    40109d30:	b90c9ca0 	str	w0, [x5,#3228]
    40109d34:	51004520 	sub	w0, w9, #0x11
    40109d38:	7100041f 	cmp	w0, #0x1
    40109d3c:	7a418924 	ccmp	w9, #0x1, #0x4, hi
    40109d40:	54000821 	b.ne	40109e44 <cvx16_wdqlvl_req+0x21c>
    40109d44:	b94c9ca1 	ldr	w1, [x5,#3228]
    40109d48:	521c0020 	eor	w0, w1, #0x10
    40109d4c:	121c0000 	and	w0, w0, #0x10
    40109d50:	4a010000 	eor	w0, w0, w1
    40109d54:	b90c9ca0 	str	w0, [x5,#3228]
    40109d58:	d2803180 	mov	x0, #0x18c                 	// #396
    40109d5c:	f2a10000 	movk	x0, #0x800, lsl #16
    40109d60:	b94c9ca1 	ldr	w1, [x5,#3228]
    40109d64:	913270a5 	add	x5, x5, #0xc9c
    40109d68:	b9000001 	str	w1, [x0]
    40109d6c:	d2868881 	mov	x1, #0x3444                	// #13380
    40109d70:	f2a10001 	movk	x1, #0x800, lsl #16
    40109d74:	b9400020 	ldr	w0, [x1]
    40109d78:	b90000a0 	str	w0, [x5]
    40109d7c:	361fffc0 	tbz	w0, #3, 40109d74 <cvx16_wdqlvl_req+0x14c>
    40109d80:	d2880181 	mov	x1, #0x400c                	// #16396
    40109d84:	f2a10001 	movk	x1, #0x800, lsl #16
    40109d88:	b9400020 	ldr	w0, [x1]
    40109d8c:	12187800 	and	w0, w0, #0xffffff7f
    40109d90:	b90000a0 	str	w0, [x5]
    40109d94:	b9000020 	str	w0, [x1]
    40109d98:	d2a10020 	mov	x0, #0x8010000             	// #134283264
    40109d9c:	52a00081 	mov	w1, #0x40000               	// #262144
    40109da0:	b9000001 	str	w1, [x0]
    40109da4:	52800000 	mov	w0, #0x0                   	// #0
    40109da8:	97fffd48 	bl	401092c8 <cvx16_dfi_ca_park_prbs>
    40109dac:	d2880602 	mov	x2, #0x4030                	// #16432
    40109db0:	f2a10002 	movk	x2, #0x800, lsl #16
    40109db4:	b9400040 	ldr	w0, [x2]
    40109db8:	4a060001 	eor	w1, w0, w6
    40109dbc:	121b0021 	and	w1, w1, #0x20
    40109dc0:	4a000021 	eor	w1, w1, w0
    40109dc4:	4a060020 	eor	w0, w1, w6
    40109dc8:	121d0000 	and	w0, w0, #0x8
    40109dcc:	4a010001 	eor	w1, w0, w1
    40109dd0:	4a060020 	eor	w0, w1, w6
    40109dd4:	121f0000 	and	w0, w0, #0x2
    40109dd8:	4a010000 	eor	w0, w0, w1
    40109ddc:	d288a801 	mov	x1, #0x4540                	// #17728
    40109de0:	121f7800 	and	w0, w0, #0xfffffffe
    40109de4:	f2a10001 	movk	x1, #0x800, lsl #16
    40109de8:	2a070000 	orr	w0, w0, w7
    40109dec:	b90000a0 	str	w0, [x5]
    40109df0:	b9000040 	str	w0, [x2]
    40109df4:	52800020 	mov	w0, #0x1                   	// #1
    40109df8:	b9000020 	str	w0, [x1]
    40109dfc:	91058021 	add	x1, x1, #0x160
    40109e00:	b8150020 	stur	w0, [x1,#-176]
    40109e04:	b9000020 	str	w0, [x1]
    40109e08:	a8c17bfd 	ldp	x29, x30, [sp],#16
    40109e0c:	17fffdc8 	b	4010952c <cvx16_clk_gating_enable>
    40109e10:	7100095f 	cmp	w10, #0x2
    40109e14:	54fff5e1 	b.ne	40109cd0 <cvx16_wdqlvl_req+0xa8>
    40109e18:	52140002 	eor	w2, w0, #0x1000
    40109e1c:	12140042 	and	w2, w2, #0x1000
    40109e20:	4a000040 	eor	w0, w2, w0
    40109e24:	17ffffa1 	b	40109ca8 <cvx16_wdqlvl_req+0x80>
    40109e28:	2a0903e0 	mov	w0, w9
    40109e2c:	97fffb03 	bl	40108a38 <cvx16_bist_wdqlvl_init>
    40109e30:	17ffffb7 	b	40109d0c <cvx16_wdqlvl_req+0xe4>
    40109e34:	52160001 	eor	w1, w0, #0x400
    40109e38:	12160021 	and	w1, w1, #0x400
    40109e3c:	4a000020 	eor	w0, w1, w0
    40109e40:	17ffffbc 	b	40109d30 <cvx16_wdqlvl_req+0x108>
    40109e44:	b94c9ca0 	ldr	w0, [x5,#3228]
    40109e48:	121b7800 	and	w0, w0, #0xffffffef
    40109e4c:	17ffffc2 	b	40109d54 <cvx16_wdqlvl_req+0x12c>

0000000040109e50 <cvx16_en_rec_vol_mode>:
    40109e50:	d65f03c0 	ret

0000000040109e54 <ctrl_init_detect_dram_size>:
    40109e54:	d10083ff 	sub	sp, sp, #0x20
    40109e58:	d2a10021 	mov	x1, #0x8010000             	// #134283264
    40109e5c:	528000c2 	mov	w2, #0x6                   	// #6
    40109e60:	910083ed 	add	x13, sp, #0x20
    40109e64:	72a001c2 	movk	w2, #0xe, lsl #16
    40109e68:	928007e4 	mov	x4, #0xffffffffffffffc0    	// #-64
    40109e6c:	2901ffff 	stp	wzr, wzr, [sp,#12]
    40109e70:	f2beffc4 	movk	x4, #0xf7fe, lsl #16
    40109e74:	2902ffff 	stp	wzr, wzr, [sp,#20]
    40109e78:	b9001fff 	str	wzr, [sp,#28]
    40109e7c:	b9000022 	str	w2, [x1]
    40109e80:	12800002 	mov	w2, #0xffffffff            	// #-1
    40109e84:	b900103f 	str	wzr, [x1,#16]
    40109e88:	b9001422 	str	w2, [x1,#20]
    40109e8c:	52800082 	mov	w2, #0x4                   	// #4
    40109e90:	b9001822 	str	w2, [x1,#24]
    40109e94:	52874001 	mov	w1, #0x3a00                	// #14848
    40109e98:	72a80001 	movk	w1, #0x4000, lsl #16
    40109e9c:	d2800b02 	mov	x2, #0x58                  	// #88
    40109ea0:	b81e8da1 	str	w1, [x13,#-24]!
    40109ea4:	d2800801 	mov	x1, #0x40                  	// #64
    40109ea8:	f2a10021 	movk	x1, #0x801, lsl #16
    40109eac:	f2a10022 	movk	x2, #0x801, lsl #16
    40109eb0:	8b040023 	add	x3, x1, x4
    40109eb4:	b86369a3 	ldr	w3, [x13,x3]
    40109eb8:	b8004423 	str	w3, [x1],#4
    40109ebc:	eb02003f 	cmp	x1, x2
    40109ec0:	54ffff81 	b.ne	40109eb0 <ctrl_init_detect_dram_size+0x5c>
    40109ec4:	d2a10021 	mov	x1, #0x8010000             	// #134283264
    40109ec8:	320083e2 	mov	w2, #0x10001               	// #65537
    40109ecc:	d2801004 	mov	x4, #0x80                  	// #128
    40109ed0:	b0000043 	adrp	x3, 40112000 <sram_union_buf+0x3400>
    40109ed4:	b9000022 	str	w2, [x1]
    40109ed8:	91327062 	add	x2, x3, #0xc9c
    40109edc:	f2a10024 	movk	x4, #0x801, lsl #16
    40109ee0:	b9400081 	ldr	w1, [x4]
    40109ee4:	b9000041 	str	w1, [x2]
    40109ee8:	3617ffc1 	tbz	w1, #2, 40109ee0 <ctrl_init_detect_dram_size+0x8c>
    40109eec:	d2a10021 	mov	x1, #0x8010000             	// #134283264
    40109ef0:	d2800208 	mov	x8, #0x10                  	// #16
    40109ef4:	5287600f 	mov	w15, #0x3b00                	// #15104
    40109ef8:	928007e9 	mov	x9, #0xffffffffffffffc0    	// #-64
    40109efc:	d2800b0a 	mov	x10, #0x58                  	// #88
    40109f00:	d280100c 	mov	x12, #0x80                  	// #128
    40109f04:	52874010 	mov	w16, #0x3a00                	// #14848
    40109f08:	91327067 	add	x7, x3, #0xc9c
    40109f0c:	52a00025 	mov	w5, #0x10000               	// #65536
    40109f10:	d2800004 	mov	x4, #0x0                   	// #0
    40109f14:	5280002e 	mov	w14, #0x1                   	// #1
    40109f18:	f2a10028 	movk	x8, #0x801, lsl #16
    40109f1c:	72a8000f 	movk	w15, #0x4000, lsl #16
    40109f20:	f2beffc9 	movk	x9, #0xf7fe, lsl #16
    40109f24:	f2a1002a 	movk	x10, #0x801, lsl #16
    40109f28:	320083eb 	mov	w11, #0x10001               	// #65537
    40109f2c:	f2a1002c 	movk	x12, #0x801, lsl #16
    40109f30:	72b00010 	movk	w16, #0x8000, lsl #16
    40109f34:	b9000025 	str	w5, [x1]
    40109f38:	11005486 	add	w6, w4, #0x15
    40109f3c:	11001482 	add	w2, w4, #0x5
    40109f40:	12001c42 	and	w2, w2, #0xff
    40109f44:	1ac621c6 	lsl	w6, w14, w6
    40109f48:	b9000106 	str	w6, [x8]
    40109f4c:	d2800806 	mov	x6, #0x40                  	// #64
    40109f50:	b9000bef 	str	w15, [sp,#8]
    40109f54:	f2a10026 	movk	x6, #0x801, lsl #16
    40109f58:	8b0900d1 	add	x17, x6, x9
    40109f5c:	b87169b1 	ldr	w17, [x13,x17]
    40109f60:	b80044d1 	str	w17, [x6],#4
    40109f64:	eb0a00df 	cmp	x6, x10
    40109f68:	54ffff81 	b.ne	40109f58 <ctrl_init_detect_dram_size+0x104>
    40109f6c:	b900002b 	str	w11, [x1]
    40109f70:	b9400186 	ldr	w6, [x12]
    40109f74:	b90000e6 	str	w6, [x7]
    40109f78:	3617ffc6 	tbz	w6, #2, 40109f70 <ctrl_init_detect_dram_size+0x11c>
    40109f7c:	b9000025 	str	w5, [x1]
    40109f80:	d2800806 	mov	x6, #0x40                  	// #64
    40109f84:	b900011f 	str	wzr, [x8]
    40109f88:	f2a10026 	movk	x6, #0x801, lsl #16
    40109f8c:	b9000bf0 	str	w16, [sp,#8]
    40109f90:	8b0900d1 	add	x17, x6, x9
    40109f94:	b87169b1 	ldr	w17, [x13,x17]
    40109f98:	b80044d1 	str	w17, [x6],#4
    40109f9c:	eb0a00df 	cmp	x6, x10
    40109fa0:	54ffff81 	b.ne	40109f90 <ctrl_init_detect_dram_size+0x13c>
    40109fa4:	b900002b 	str	w11, [x1]
    40109fa8:	b9400186 	ldr	w6, [x12]
    40109fac:	b90000e6 	str	w6, [x7]
    40109fb0:	3617ffc6 	tbz	w6, #2, 40109fa8 <ctrl_init_detect_dram_size+0x154>
    40109fb4:	b9000025 	str	w5, [x1]
    40109fb8:	b94000e6 	ldr	w6, [x7]
    40109fbc:	371800a6 	tbnz	w6, #3, 40109fd0 <ctrl_init_detect_dram_size+0x17c>
    40109fc0:	91000484 	add	x4, x4, #0x1
    40109fc4:	f1002c9f 	cmp	x4, #0xb
    40109fc8:	54fffb81 	b.ne	40109f38 <ctrl_init_detect_dram_size+0xe4>
    40109fcc:	528001e2 	mov	w2, #0xf                   	// #15
    40109fd0:	39000002 	strb	w2, [x0]
    40109fd4:	d2804100 	mov	x0, #0x208                 	// #520
    40109fd8:	f2a10000 	movk	x0, #0x800, lsl #16
    40109fdc:	b90c9c62 	str	w2, [x3,#3228]
    40109fe0:	52a00081 	mov	w1, #0x40000               	// #262144
    40109fe4:	b9000002 	str	w2, [x0]
    40109fe8:	d2a10020 	mov	x0, #0x8010000             	// #134283264
    40109fec:	b9000001 	str	w1, [x0]
    40109ff0:	910083ff 	add	sp, sp, #0x20
    40109ff4:	d65f03c0 	ret

0000000040109ff8 <pll_init>:
    40109ff8:	a9bd7bfd 	stp	x29, x30, [sp,#-48]!
    40109ffc:	52805e00 	mov	w0, #0x2f0                 	// #752
    4010a000:	910003fd 	mov	x29, sp
    4010a004:	a9025bf5 	stp	x21, x22, [sp,#32]
    4010a008:	b0000016 	adrp	x22, 4010b000 <__func__.4011+0x10>
    4010a00c:	90000055 	adrp	x21, 40112000 <sram_union_buf+0x3400>
    4010a010:	a90153f3 	stp	x19, x20, [sp,#16]
    4010a014:	b9486ac1 	ldr	w1, [x22,#2152]
    4010a018:	90000054 	adrp	x20, 40112000 <sram_union_buf+0x3400>
    4010a01c:	b90ca6a0 	str	w0, [x21,#3236]
    4010a020:	90000053 	adrp	x19, 40112000 <sram_union_buf+0x3400>
    4010a024:	52800c80 	mov	w0, #0x64                  	// #100
    4010a028:	b90cb280 	str	w0, [x20,#3248]
    4010a02c:	528001e0 	mov	w0, #0xf                   	// #15
    4010a030:	b90cb660 	str	w0, [x19,#3252]
    4010a034:	b0000000 	adrp	x0, 4010b000 <__func__.4011+0x10>
    4010a038:	91209400 	add	x0, x0, #0x825
    4010a03c:	97ffdc92 	bl	40101284 <tf_printf>
    4010a040:	b9486ac0 	ldr	w0, [x22,#2152]
    4010a044:	90000041 	adrp	x1, 40112000 <sram_union_buf+0x3400>
    4010a048:	53047c02 	lsr	w2, w0, #4
    4010a04c:	b90ca022 	str	w2, [x1,#3232]
    4010a050:	b94ca6a1 	ldr	w1, [x21,#3236]
    4010a054:	aa0203e0 	mov	x0, x2
    4010a058:	a9425bf5 	ldp	x21, x22, [sp,#32]
    4010a05c:	d3669421 	lsl	x1, x1, #26
    4010a060:	9ac20821 	udiv	x1, x1, x2
    4010a064:	90000042 	adrp	x2, 40112000 <sram_union_buf+0x3400>
    4010a068:	f9066041 	str	x1, [x2,#3264]
    4010a06c:	52801f42 	mov	w2, #0xfa                  	// #250
    4010a070:	1b027c00 	mul	w0, w0, w2
    4010a074:	b94cb282 	ldr	w2, [x20,#3248]
    4010a078:	1ac20803 	udiv	w3, w0, w2
    4010a07c:	90000042 	adrp	x2, 40112000 <sram_union_buf+0x3400>
    4010a080:	f9065c43 	str	x3, [x2,#3256]
    4010a084:	b94cb662 	ldr	w2, [x19,#3252]
    4010a088:	a94153f3 	ldp	x19, x20, [sp,#16]
    4010a08c:	a8c37bfd 	ldp	x29, x30, [sp],#48
    4010a090:	9b017c41 	mul	x1, x2, x1
    4010a094:	52807d02 	mov	w2, #0x3e8                 	// #1000
    4010a098:	9ba27c60 	umull	x0, w3, w2
    4010a09c:	9ac00820 	udiv	x0, x1, x0
    4010a0a0:	90000041 	adrp	x1, 40112000 <sram_union_buf+0x3400>
    4010a0a4:	f9065420 	str	x0, [x1,#3240]
    4010a0a8:	17fffcc9 	b	401093cc <cvx16_pll_init>

000000004010a0ac <cvx16_pinmux>:
    4010a0ac:	a9bf7bfd 	stp	x29, x30, [sp,#-16]!
    4010a0b0:	910003fd 	mov	x29, sp
    4010a0b4:	97fff8e3 	bl	40108440 <get_ddr_vendor>
    4010a0b8:	12001c00 	and	w0, w0, #0xff
    4010a0bc:	51000400 	sub	w0, w0, #0x1
    4010a0c0:	7100241f 	cmp	w0, #0x9
    4010a0c4:	54000c88 	b.hi	4010a254 <cvx16_pinmux+0x1a8>
    4010a0c8:	b0000001 	adrp	x1, 4010b000 <__func__.4011+0x10>
    4010a0cc:	9120e021 	add	x1, x1, #0x838
    4010a0d0:	78605820 	ldrh	w0, [x1,w0,uxtw #1]
    4010a0d4:	10000061 	adr	x1, 4010a0e0 <cvx16_pinmux+0x34>
    4010a0d8:	8b20a820 	add	x0, x1, w0, sxth #2
    4010a0dc:	d61f0000 	br	x0
    4010a0e0:	d2a10000 	mov	x0, #0x8000000             	// #134217728
    4010a0e4:	52820261 	mov	w1, #0x1013                	// #4115
    4010a0e8:	72a24281 	movk	w1, #0x1214, lsl #16
    4010a0ec:	b9000001 	str	w1, [x0]
    4010a0f0:	5282a061 	mov	w1, #0x1503                	// #5379
    4010a0f4:	72a18081 	movk	w1, #0xc04, lsl #16
    4010a0f8:	b9000401 	str	w1, [x0,#4]
    4010a0fc:	52800021 	mov	w1, #0x1                   	// #1
    4010a100:	72a0c0a1 	movk	w1, #0x605, lsl #16
    4010a104:	b9000801 	str	w1, [x0,#8]
    4010a108:	52816041 	mov	w1, #0xb02                 	// #2818
    4010a10c:	72a100e1 	movk	w1, #0x807, lsl #16
    4010a110:	b9000c01 	str	w1, [x0,#12]
    4010a114:	5281c121 	mov	w1, #0xe09                 	// #3593
    4010a118:	72a141e1 	movk	w1, #0xa0f, lsl #16
    4010a11c:	b9001001 	str	w1, [x0,#16]
    4010a120:	528221a1 	mov	w1, #0x110d                	// #4365
    4010a124:	72a002c1 	movk	w1, #0x16, lsl #16
    4010a128:	b9001401 	str	w1, [x0,#20]
    4010a12c:	b900181f 	str	wzr, [x0,#24]
    4010a130:	52802001 	mov	w1, #0x100                 	// #256
    4010a134:	b9001c01 	str	w1, [x0,#28]
    4010a138:	528cae81 	mov	w1, #0x6574                	// #25972
    4010a13c:	72a04261 	movk	w1, #0x213, lsl #16
    4010a140:	b9002001 	str	w1, [x0,#32]
    4010a144:	52800101 	mov	w1, #0x8                   	// #8
    4010a148:	b9002401 	str	w1, [x0,#36]
    4010a14c:	52846101 	mov	w1, #0x2308                	// #8968
    4010a150:	72aeca21 	movk	w1, #0x7651, lsl #16
    4010a154:	b9002801 	str	w1, [x0,#40]
    4010a158:	52800081 	mov	w1, #0x4                   	// #4
    4010a15c:	b9002c01 	str	w1, [x0,#44]
    4010a160:	1400003d 	b	4010a254 <cvx16_pinmux+0x1a8>
    4010a164:	d2a10000 	mov	x0, #0x8000000             	// #134217728
    4010a168:	5281a121 	mov	w1, #0xd09                 	// #3337
    4010a16c:	72a100e1 	movk	w1, #0x807, lsl #16
    4010a170:	b9000001 	str	w1, [x0]
    4010a174:	52804161 	mov	w1, #0x20b                 	// #523
    4010a178:	72a0c0a1 	movk	w1, #0x605, lsl #16
    4010a17c:	b9000401 	str	w1, [x0,#4]
    4010a180:	52802001 	mov	w1, #0x100                 	// #256
    4010a184:	72a28081 	movk	w1, #0x1404, lsl #16
    4010a188:	b9000801 	str	w1, [x0,#8]
    4010a18c:	5281c181 	mov	w1, #0xe0c                 	// #3596
    4010a190:	72a2a061 	movk	w1, #0x1503, lsl #16
    4010a194:	b9000c01 	str	w1, [x0,#12]
    4010a198:	52824261 	mov	w1, #0x1213                	// #4627
    4010a19c:	72a141e1 	movk	w1, #0xa0f, lsl #16
    4010a1a0:	b9001001 	str	w1, [x0,#16]
    4010a1a4:	528202c1 	mov	w1, #0x1016                	// #4118
    4010a1a8:	72a00221 	movk	w1, #0x11, lsl #16
    4010a1ac:	b9001401 	str	w1, [x0,#20]
    4010a1b0:	b900181f 	str	wzr, [x0,#24]
    4010a1b4:	52802001 	mov	w1, #0x100                 	// #256
    4010a1b8:	b9001c01 	str	w1, [x0,#28]
    4010a1bc:	528aec81 	mov	w1, #0x5764                	// #22372
    4010a1c0:	72b04261 	movk	w1, #0x8213, lsl #16
    4010a1c4:	b9002001 	str	w1, [x0,#32]
    4010a1c8:	b900241f 	str	wzr, [x0,#36]
    4010a1cc:	52860501 	mov	w1, #0x3028                	// #12328
    4010a1d0:	72acea21 	movk	w1, #0x6751, lsl #16
    4010a1d4:	17ffffe0 	b	4010a154 <cvx16_pinmux+0xa8>
    4010a1d8:	d2a10000 	mov	x0, #0x8000000             	// #134217728
    4010a1dc:	52816121 	mov	w1, #0xb09                 	// #2825
    4010a1e0:	72a100e1 	movk	w1, #0x807, lsl #16
    4010a1e4:	b9000001 	str	w1, [x0]
    4010a1e8:	528040c1 	mov	w1, #0x206                 	// #518
    4010a1ec:	72a0a001 	movk	w1, #0x500, lsl #16
    4010a1f0:	b9000401 	str	w1, [x0,#4]
    4010a1f4:	528021a1 	mov	w1, #0x10d                 	// #269
    4010a1f8:	72a18081 	movk	w1, #0xc04, lsl #16
    4010a1fc:	b9000801 	str	w1, [x0,#8]
    4010a200:	52814281 	mov	w1, #0xa14                 	// #2580
    4010a204:	72a2a061 	movk	w1, #0x1503, lsl #16
    4010a208:	b9000c01 	str	w1, [x0,#12]
    4010a20c:	52824261 	mov	w1, #0x1213                	// #4627
    4010a210:	72a20221 	movk	w1, #0x1011, lsl #16
    4010a214:	b9001001 	str	w1, [x0,#16]
    4010a218:	5282c1c1 	mov	w1, #0x160e                	// #5646
    4010a21c:	72a001e1 	movk	w1, #0xf, lsl #16
    4010a220:	b9001401 	str	w1, [x0,#20]
    4010a224:	b900181f 	str	wzr, [x0,#24]
    4010a228:	52802001 	mov	w1, #0x100                 	// #256
    4010a22c:	b9001c01 	str	w1, [x0,#28]
    4010a230:	528c0481 	mov	w1, #0x6024                	// #24612
    4010a234:	72a62ea1 	movk	w1, #0x3175, lsl #16
    4010a238:	b9002001 	str	w1, [x0,#32]
    4010a23c:	52800101 	mov	w1, #0x8                   	// #8
    4010a240:	b9002401 	str	w1, [x0,#36]
    4010a244:	5286a301 	mov	w1, #0x3518                	// #13592
    4010a248:	72a4c8e1 	movk	w1, #0x2647, lsl #16
    4010a24c:	b9002801 	str	w1, [x0,#40]
    4010a250:	b9002c1f 	str	wzr, [x0,#44]
    4010a254:	a8c17bfd 	ldp	x29, x30, [sp],#16
    4010a258:	d65f03c0 	ret
    4010a25c:	d2a10000 	mov	x0, #0x8000000             	// #134217728
    4010a260:	52810161 	mov	w1, #0x80b                 	// #2059
    4010a264:	72a180c1 	movk	w1, #0xc06, lsl #16
    4010a268:	b9000001 	str	w1, [x0]
    4010a26c:	52812081 	mov	w1, #0x904                 	// #2308
    4010a270:	72a0e1a1 	movk	w1, #0x70d, lsl #16
    4010a274:	b9000401 	str	w1, [x0,#4]
    4010a278:	5280a041 	mov	w1, #0x502                 	// #1282
    4010a27c:	72a00021 	movk	w1, #0x1, lsl #16
    4010a280:	b9000801 	str	w1, [x0,#8]
    4010a284:	5281c061 	mov	w1, #0xe03                 	// #3587
    4010a288:	72a22141 	movk	w1, #0x110a, lsl #16
    4010a28c:	b9000c01 	str	w1, [x0,#12]
    4010a290:	5282c201 	mov	w1, #0x1610                	// #5648
    4010a294:	72a1e281 	movk	w1, #0xf14, lsl #16
    4010a298:	b9001001 	str	w1, [x0,#16]
    4010a29c:	52826241 	mov	w1, #0x1312                	// #4882
    4010a2a0:	72a002a1 	movk	w1, #0x15, lsl #16
    4010a2a4:	b9001401 	str	w1, [x0,#20]
    4010a2a8:	b900181f 	str	wzr, [x0,#24]
    4010a2ac:	52802001 	mov	w1, #0x100                 	// #256
    4010a2b0:	b9001c01 	str	w1, [x0,#28]
    4010a2b4:	5280a641 	mov	w1, #0x532                 	// #1330
    4010a2b8:	72ae3081 	movk	w1, #0x7184, lsl #16
    4010a2bc:	b9002001 	str	w1, [x0,#32]
    4010a2c0:	528000c1 	mov	w1, #0x6                   	// #6
    4010a2c4:	b9002401 	str	w1, [x0,#36]
    4010a2c8:	528684a1 	mov	w1, #0x3425                	// #13349
    4010a2cc:	72aec201 	movk	w1, #0x7610, lsl #16
    4010a2d0:	b9002801 	str	w1, [x0,#40]
    4010a2d4:	52800101 	mov	w1, #0x8                   	// #8
    4010a2d8:	17ffffa1 	b	4010a15c <cvx16_pinmux+0xb0>
    4010a2dc:	d2a10000 	mov	x0, #0x8000000             	// #134217728
    4010a2e0:	5281a0c1 	mov	w1, #0xd06                 	// #3334
    4010a2e4:	72a10161 	movk	w1, #0x80b, lsl #16
    4010a2e8:	b9000001 	str	w1, [x0]
    4010a2ec:	528080e1 	mov	w1, #0x407                 	// #1031
    4010a2f0:	72a12021 	movk	w1, #0x901, lsl #16
    4010a2f4:	b9000401 	str	w1, [x0,#4]
    4010a2f8:	52804181 	mov	w1, #0x20c                 	// #524
    4010a2fc:	72a280a1 	movk	w1, #0x1405, lsl #16
    4010a300:	b9000801 	str	w1, [x0,#8]
    4010a304:	5281c061 	mov	w1, #0xe03                 	// #3587
    4010a308:	72a2a001 	movk	w1, #0x1500, lsl #16
    4010a30c:	b9000c01 	str	w1, [x0,#12]
    4010a310:	52824261 	mov	w1, #0x1213                	// #4627
    4010a314:	72a141e1 	movk	w1, #0xa0f, lsl #16
    4010a318:	b9001001 	str	w1, [x0,#16]
    4010a31c:	528202c1 	mov	w1, #0x1016                	// #4118
    4010a320:	72a00221 	movk	w1, #0x11, lsl #16
    4010a324:	b9001401 	str	w1, [x0,#20]
    4010a328:	b900181f 	str	wzr, [x0,#24]
    4010a32c:	52802001 	mov	w1, #0x100                 	// #256
    4010a330:	b9001c01 	str	w1, [x0,#28]
    4010a334:	528aec81 	mov	w1, #0x5764                	// #22372
    4010a338:	72b04261 	movk	w1, #0x8213, lsl #16
    4010a33c:	b9002001 	str	w1, [x0,#32]
    4010a340:	b900241f 	str	wzr, [x0,#36]
    4010a344:	52864101 	mov	w1, #0x3208                	// #12808
    4010a348:	17ffffa2 	b	4010a1d0 <cvx16_pinmux+0x124>
    4010a34c:	d2a10000 	mov	x0, #0x8000000             	// #134217728
    4010a350:	52812101 	mov	w1, #0x908                 	// #2312
    4010a354:	72a160c1 	movk	w1, #0xb06, lsl #16
    4010a358:	b9000001 	str	w1, [x0]
    4010a35c:	528020e1 	mov	w1, #0x107                 	// #263
    4010a360:	72a04001 	movk	w1, #0x200, lsl #16
    4010a364:	b9000401 	str	w1, [x0,#4]
    4010a368:	528081a1 	mov	w1, #0x40d                 	// #1037
    4010a36c:	72a180a1 	movk	w1, #0xc05, lsl #16
    4010a370:	b9000801 	str	w1, [x0,#8]
    4010a374:	5282a061 	mov	w1, #0x1503                	// #5379
    4010a378:	72a26281 	movk	w1, #0x1314, lsl #16
    4010a37c:	b9000c01 	str	w1, [x0,#12]
    4010a380:	52822241 	mov	w1, #0x1112                	// #4370
    4010a384:	72a2c141 	movk	w1, #0x160a, lsl #16
    4010a388:	b9001001 	str	w1, [x0,#16]
    4010a38c:	528201c1 	mov	w1, #0x100e                	// #4110
    4010a390:	72a001e1 	movk	w1, #0xf, lsl #16
    4010a394:	b9001401 	str	w1, [x0,#20]
    4010a398:	b900181f 	str	wzr, [x0,#24]
    4010a39c:	52802001 	mov	w1, #0x100                 	// #256
    4010a3a0:	b9001c01 	str	w1, [x0,#28]
    4010a3a4:	528eac81 	mov	w1, #0x7564                	// #30052
    4010a3a8:	72a50261 	movk	w1, #0x2813, lsl #16
    4010a3ac:	b9002001 	str	w1, [x0,#32]
    4010a3b0:	b900241f 	str	wzr, [x0,#36]
    4010a3b4:	52906401 	mov	w1, #0x8320                	// #33568
    4010a3b8:	72aec2a1 	movk	w1, #0x7615, lsl #16
    4010a3bc:	17ffff66 	b	4010a154 <cvx16_pinmux+0xa8>
    4010a3c0:	d2a10000 	mov	x0, #0x8000000             	// #134217728
    4010a3c4:	52816121 	mov	w1, #0xb09                 	// #2825
    4010a3c8:	72a100c1 	movk	w1, #0x806, lsl #16
    4010a3cc:	b9000001 	str	w1, [x0]
    4010a3d0:	5280e021 	mov	w1, #0x701                 	// #1793
    4010a3d4:	72a04081 	movk	w1, #0x204, lsl #16
    4010a3d8:	b9000401 	str	w1, [x0,#4]
    4010a3dc:	5280a1a1 	mov	w1, #0x50d                 	// #1293
    4010a3e0:	72a18001 	movk	w1, #0xc00, lsl #16
    4010a3e4:	b9000801 	str	w1, [x0,#8]
    4010a3e8:	52806281 	mov	w1, #0x314                 	// #788
    4010a3ec:	72a262a1 	movk	w1, #0x1315, lsl #16
    4010a3f0:	b9000c01 	str	w1, [x0,#12]
    4010a3f4:	528242c1 	mov	w1, #0x1216                	// #4630
    4010a3f8:	72a20221 	movk	w1, #0x1011, lsl #16
    4010a3fc:	b9001001 	str	w1, [x0,#16]
    4010a400:	528141c1 	mov	w1, #0xa0e                 	// #2574
    4010a404:	72a001e1 	movk	w1, #0xf, lsl #16
    4010a408:	b9001401 	str	w1, [x0,#20]
    4010a40c:	b900181f 	str	wzr, [x0,#24]
    4010a410:	52802001 	mov	w1, #0x100                 	// #256
    4010a414:	b9001c01 	str	w1, [x0,#28]
    4010a418:	528ace81 	mov	w1, #0x5674                	// #22132
    4010a41c:	72b04261 	movk	w1, #0x8213, lsl #16
    4010a420:	b9002001 	str	w1, [x0,#32]
    4010a424:	b900241f 	str	wzr, [x0,#36]
    4010a428:	52865001 	mov	w1, #0x3280                	// #12928
    4010a42c:	17ffffe3 	b	4010a3b8 <cvx16_pinmux+0x30c>
    4010a430:	d2a10000 	mov	x0, #0x8000000             	// #134217728
    4010a434:	52812181 	mov	w1, #0x90c                 	// #2316
    4010a438:	72a0e161 	movk	w1, #0x70b, lsl #16
    4010a43c:	b9000001 	str	w1, [x0]
    4010a440:	5280c101 	mov	w1, #0x608                 	// #1544
    4010a444:	72a080a1 	movk	w1, #0x405, lsl #16
    4010a448:	b9000401 	str	w1, [x0,#4]
    4010a44c:	528061a1 	mov	w1, #0x30d                 	// #781
    4010a450:	72a1c041 	movk	w1, #0xe02, lsl #16
    4010a454:	b9000801 	str	w1, [x0,#8]
    4010a458:	52802001 	mov	w1, #0x100                 	// #256
    4010a45c:	72a22141 	movk	w1, #0x110a, lsl #16
    4010a460:	b9000c01 	str	w1, [x0,#12]
    4010a464:	5282c281 	mov	w1, #0x1614                	// #5652
    4010a468:	72a1e261 	movk	w1, #0xf13, lsl #16
    4010a46c:	b9001001 	str	w1, [x0,#16]
    4010a470:	52820241 	mov	w1, #0x1012                	// #4114
    4010a474:	72a002a1 	movk	w1, #0x15, lsl #16
    4010a478:	b9001401 	str	w1, [x0,#20]
    4010a47c:	b900181f 	str	wzr, [x0,#24]
    4010a480:	52802001 	mov	w1, #0x100                 	// #256
    4010a484:	b9001c01 	str	w1, [x0,#28]
    4010a488:	5288a641 	mov	w1, #0x4532                	// #17714
    4010a48c:	72b0c021 	movk	w1, #0x8601, lsl #16
    4010a490:	b9002001 	str	w1, [x0,#32]
    4010a494:	528000e1 	mov	w1, #0x7                   	// #7
    4010a498:	b9002401 	str	w1, [x0,#36]
    4010a49c:	528468a1 	mov	w1, #0x2345                	// #9029
    4010a4a0:	72aec021 	movk	w1, #0x7601, lsl #16
    4010a4a4:	17ffff8b 	b	4010a2d0 <cvx16_pinmux+0x224>

000000004010a4a8 <cvx16_dram_cap_check>:
    4010a4a8:	d65f03c0 	ret

000000004010a4ac <ddrc_init>:
    4010a4ac:	d2880180 	mov	x0, #0x400c                	// #16396
    4010a4b0:	528c6e21 	mov	w1, #0x6371                	// #25457
    4010a4b4:	f2a10000 	movk	x0, #0x800, lsl #16
    4010a4b8:	72ac6e81 	movk	w1, #0x6374, lsl #16
    4010a4bc:	529060a2 	mov	w2, #0x8305                	// #33541
    4010a4c0:	5280e0e3 	mov	w3, #0x707                 	// #1799
    4010a4c4:	b9000001 	str	w1, [x0]
    4010a4c8:	52b333e1 	mov	w1, #0x999f0000            	// #-1717633024
    4010a4cc:	b900381f 	str	wzr, [x0,#56]
    4010a4d0:	72a09142 	movk	w2, #0x48a, lsl #16
    4010a4d4:	b9013c01 	str	w1, [x0,#316]
    4010a4d8:	d2880000 	mov	x0, #0x4000                	// #16384
    4010a4dc:	f2a10000 	movk	x0, #0x800, lsl #16
    4010a4e0:	52828021 	mov	w1, #0x1401                	// #5121
    4010a4e4:	72b02081 	movk	w1, #0x8104, lsl #16
    4010a4e8:	91030000 	add	x0, x0, #0xc0
    4010a4ec:	b8140001 	stur	w1, [x0,#-192]
    4010a4f0:	52800021 	mov	w1, #0x1                   	// #1
    4010a4f4:	b817001f 	stur	wzr, [x0,#-144]
    4010a4f8:	72a01261 	movk	w1, #0x93, lsl #16
    4010a4fc:	b8174001 	stur	w1, [x0,#-140]
    4010a500:	52a00041 	mov	w1, #0x20000               	// #131072
    4010a504:	b8178001 	stur	w1, [x0,#-136]
    4010a508:	52820e01 	mov	w1, #0x1070                	// #4208
    4010a50c:	72a00401 	movk	w1, #0x20, lsl #16
    4010a510:	b8190001 	stur	w1, [x0,#-112]
    4010a514:	b81a001f 	stur	wzr, [x0,#-96]
    4010a518:	52801481 	mov	w1, #0xa4                  	// #164
    4010a51c:	72a00e21 	movk	w1, #0x71, lsl #16
    4010a520:	b81a4001 	stur	w1, [x0,#-92]
    4010a524:	52801ca1 	mov	w1, #0xe5                  	// #229
    4010a528:	72a000e3 	movk	w3, #0x7, lsl #16
    4010a52c:	b900001f 	str	wzr, [x0]
    4010a530:	72a00021 	movk	w1, #0x1, lsl #16
    4010a534:	b900041f 	str	wzr, [x0,#4]
    4010a538:	d2889406 	mov	x6, #0x44a0                	// #17568
    4010a53c:	b9001001 	str	w1, [x0,#16]
    4010a540:	52a00d41 	mov	w1, #0x6a0000              	// #6946816
    4010a544:	b9001401 	str	w1, [x0,#20]
    4010a548:	52800801 	mov	w1, #0x40                  	// #64
    4010a54c:	72a3e281 	movk	w1, #0x1f14, lsl #16
    4010a550:	b9001c01 	str	w1, [x0,#28]
    4010a554:	52a00c01 	mov	w1, #0x600000              	// #6291456
    4010a558:	b9002001 	str	w1, [x0,#32]
    4010a55c:	528077e1 	mov	w1, #0x3bf                 	// #959
    4010a560:	f2a10006 	movk	x6, #0x800, lsl #16
    4010a564:	72a00161 	movk	w1, #0xb, lsl #16
    4010a568:	b9002401 	str	w1, [x0,#36]
    4010a56c:	5283e201 	mov	w1, #0x1f10                	// #7952
    4010a570:	528000e5 	mov	w5, #0x7                   	// #7
    4010a574:	72a1c221 	movk	w1, #0xe11, lsl #16
    4010a578:	b9004001 	str	w1, [x0,#64]
    4010a57c:	528082e1 	mov	w1, #0x417                 	// #1047
    4010a580:	52800d44 	mov	w4, #0x6a                  	// #106
    4010a584:	72a00061 	movk	w1, #0x3, lsl #16
    4010a588:	b9004401 	str	w1, [x0,#68]
    4010a58c:	5280c141 	mov	w1, #0x60a                 	// #1546
    4010a590:	72a0a0e1 	movk	w1, #0x507, lsl #16
    4010a594:	b9004801 	str	w1, [x0,#72]
    4010a598:	528400e1 	mov	w1, #0x2007                	// #8199
    4010a59c:	b9004c01 	str	w1, [x0,#76]
    4010a5a0:	528060e1 	mov	w1, #0x307                 	// #775
    4010a5a4:	72a0e041 	movk	w1, #0x702, lsl #16
    4010a5a8:	b9005001 	str	w1, [x0,#80]
    4010a5ac:	52806061 	mov	w1, #0x303                 	// #771
    4010a5b0:	72a0a0a1 	movk	w1, #0x505, lsl #16
    4010a5b4:	b9005401 	str	w1, [x0,#84]
    4010a5b8:	528120e1 	mov	w1, #0x907                 	// #2311
    4010a5bc:	b9006001 	str	w1, [x0,#96]
    4010a5c0:	528004c1 	mov	w1, #0x26                  	// #38
    4010a5c4:	b9007c1f 	str	wzr, [x0,#124]
    4010a5c8:	72b812c1 	movk	w1, #0xc096, lsl #16
    4010a5cc:	b900c001 	str	w1, [x0,#192]
    4010a5d0:	d2883081 	mov	x1, #0x4184                	// #16772
    4010a5d4:	52800020 	mov	w0, #0x1                   	// #1
    4010a5d8:	f2a10001 	movk	x1, #0x800, lsl #16
    4010a5dc:	b9000020 	str	w0, [x1]
    4010a5e0:	b9000c22 	str	w2, [x1,#12]
    4010a5e4:	52804042 	mov	w2, #0x202                 	// #514
    4010a5e8:	72a000e2 	movk	w2, #0x7, lsl #16
    4010a5ec:	b9001022 	str	w2, [x1,#16]
    4010a5f0:	52862422 	mov	w2, #0x3121                	// #12577
    4010a5f4:	72a0f822 	movk	w2, #0x7c1, lsl #16
    4010a5f8:	b9001422 	str	w2, [x1,#20]
    4010a5fc:	52800422 	mov	w2, #0x21                  	// #33
    4010a600:	b9001822 	str	w2, [x1,#24]
    4010a604:	52800302 	mov	w2, #0x18                  	// #24
    4010a608:	72b80802 	movk	w2, #0xc040, lsl #16
    4010a60c:	b9001c22 	str	w2, [x1,#28]
    4010a610:	52801fe2 	mov	w2, #0xff                  	// #255
    4010a614:	72a01fc2 	movk	w2, #0xfe, lsl #16
    4010a618:	b9002022 	str	w2, [x1,#32]
    4010a61c:	52b00002 	mov	w2, #0x80000000            	// #-2147483648
    4010a620:	b9002422 	str	w2, [x1,#36]
    4010a624:	52805822 	mov	w2, #0x2c1                 	// #705
    4010a628:	b9002c22 	str	w2, [x1,#44]
    4010a62c:	d2884002 	mov	x2, #0x4200                	// #16896
    4010a630:	b9003c20 	str	w0, [x1,#60]
    4010a634:	f2a10002 	movk	x2, #0x800, lsl #16
    4010a638:	b9004020 	str	w0, [x1,#64]
    4010a63c:	5283e3e1 	mov	w1, #0x1f1f                	// #7967
    4010a640:	b9000041 	str	w1, [x2]
    4010a644:	b9000443 	str	w3, [x2,#4]
    4010a648:	52a3e003 	mov	w3, #0x1f000000            	// #520093696
    4010a64c:	b900085f 	str	wzr, [x2,#8]
    4010a650:	b9000c43 	str	w3, [x2,#12]
    4010a654:	5280c0c3 	mov	w3, #0x606                 	// #1542
    4010a658:	b9001041 	str	w1, [x2,#16]
    4010a65c:	d2884281 	mov	x1, #0x4214                	// #16916
    4010a660:	f2a10001 	movk	x1, #0x800, lsl #16
    4010a664:	5280c0c2 	mov	w2, #0x606                 	// #1542
    4010a668:	72a0c1e2 	movk	w2, #0x60f, lsl #16
    4010a66c:	b9000022 	str	w2, [x1]
    4010a670:	d2884302 	mov	x2, #0x4218                	// #16920
    4010a674:	f2a10002 	movk	x2, #0x800, lsl #16
    4010a678:	3207c7e1 	mov	w1, #0x6060606             	// #101058054
    4010a67c:	b9000041 	str	w1, [x2]
    4010a680:	b9000443 	str	w3, [x2,#4]
    4010a684:	5287e7e3 	mov	w3, #0x3f3f                	// #16191
    4010a688:	b9000843 	str	w3, [x2,#8]
    4010a68c:	5281c0e3 	mov	w3, #0xe07                 	// #3591
    4010a690:	b9000c41 	str	w1, [x2,#12]
    4010a694:	b9001041 	str	w1, [x2,#16]
    4010a698:	d2884581 	mov	x1, #0x422c                	// #16940
    4010a69c:	f2a10001 	movk	x1, #0x800, lsl #16
    4010a6a0:	5283e0c2 	mov	w2, #0x1f06                	// #7942
    4010a6a4:	72a003e2 	movk	w2, #0x1f, lsl #16
    4010a6a8:	b9000022 	str	w2, [x1]
    4010a6ac:	5280c202 	mov	w2, #0x610                 	// #1552
    4010a6b0:	72a10002 	movk	w2, #0x800, lsl #16
    4010a6b4:	b9001422 	str	w2, [x1,#20]
    4010a6b8:	b900183f 	str	wzr, [x1,#24]
    4010a6bc:	5287f0a2 	mov	w2, #0x3f85                	// #16261
    4010a6c0:	b9002422 	str	w2, [x1,#36]
    4010a6c4:	d2884b82 	mov	x2, #0x425c                	// #16988
    4010a6c8:	f2a10002 	movk	x2, #0x800, lsl #16
    4010a6cc:	b900283f 	str	wzr, [x1,#40]
    4010a6d0:	52801e01 	mov	w1, #0xf0                  	// #240
    4010a6d4:	72a20001 	movk	w1, #0x1000, lsl #16
    4010a6d8:	b9000041 	str	w1, [x2]
    4010a6dc:	b9000841 	str	w1, [x2,#8]
    4010a6e0:	b9001041 	str	w1, [x2,#16]
    4010a6e4:	d2886001 	mov	x1, #0x4300                	// #17152
    4010a6e8:	f2a10001 	movk	x1, #0x800, lsl #16
    4010a6ec:	52800222 	mov	w2, #0x11                  	// #17
    4010a6f0:	b900003f 	str	wzr, [x1]
    4010a6f4:	b900043f 	str	wzr, [x1,#4]
    4010a6f8:	b9000c3f 	str	wzr, [x1,#12]
    4010a6fc:	b9002020 	str	w0, [x1,#32]
    4010a700:	b9006c3f 	str	wzr, [x1,#108]
    4010a704:	b9010022 	str	w2, [x1,#256]
    4010a708:	d2888082 	mov	x2, #0x4404                	// #17412
    4010a70c:	f2a10002 	movk	x2, #0x800, lsl #16
    4010a710:	528c0001 	mov	w1, #0x6000                	// #24576
    4010a714:	b9000041 	str	w1, [x2]
    4010a718:	b9000441 	str	w1, [x2,#4]
    4010a71c:	b9008c40 	str	w0, [x2,#140]
    4010a720:	b9009045 	str	w5, [x2,#144]
    4010a724:	b9009444 	str	w4, [x2,#148]
    4010a728:	b9009843 	str	w3, [x2,#152]
    4010a72c:	52803502 	mov	w2, #0x1a8                 	// #424
    4010a730:	72a03502 	movk	w2, #0x1a8, lsl #16
    4010a734:	b90000c2 	str	w2, [x6]
    4010a738:	b90014c1 	str	w1, [x6,#20]
    4010a73c:	b90018c1 	str	w1, [x6,#24]
    4010a740:	b900a0c0 	str	w0, [x6,#160]
    4010a744:	b900a4c5 	str	w5, [x6,#164]
    4010a748:	b900a8c4 	str	w4, [x6,#168]
    4010a74c:	b900acc3 	str	w3, [x6,#172]
    4010a750:	b900b0c2 	str	w2, [x6,#176]
    4010a754:	b900c4c1 	str	w1, [x6,#196]
    4010a758:	b900c8c1 	str	w1, [x6,#200]
    4010a75c:	d288be01 	mov	x1, #0x45f0                	// #17904
    4010a760:	f2a10001 	movk	x1, #0x800, lsl #16
    4010a764:	b9000020 	str	w0, [x1]
    4010a768:	d288be80 	mov	x0, #0x45f4                	// #17908
    4010a76c:	f2a10000 	movk	x0, #0x800, lsl #16
    4010a770:	b9000005 	str	w5, [x0]
    4010a774:	b9000404 	str	w4, [x0,#4]
    4010a778:	b9000803 	str	w3, [x0,#8]
    4010a77c:	b9000c02 	str	w2, [x0,#12]
    4010a780:	d65f03c0 	ret

000000004010a784 <ctrl_init_high_patch>:
    4010a784:	d2880600 	mov	x0, #0x4030                	// #16432
    4010a788:	52800041 	mov	w1, #0x2                   	// #2
    4010a78c:	f2a10000 	movk	x0, #0x800, lsl #16
    4010a790:	b9000001 	str	w1, [x0]
    4010a794:	52800301 	mov	w1, #0x18                  	// #24
    4010a798:	72a00801 	movk	w1, #0x40, lsl #16
    4010a79c:	b9017001 	str	w1, [x0,#368]
    4010a7a0:	d2940280 	mov	x0, #0xa014                	// #40980
    4010a7a4:	f2a10000 	movk	x0, #0x800, lsl #16
    4010a7a8:	b900001f 	str	wzr, [x0]
    4010a7ac:	d65f03c0 	ret

000000004010a7b0 <ctrl_init_low_patch>:
    4010a7b0:	d2880600 	mov	x0, #0x4030                	// #16432
    4010a7b4:	52800301 	mov	w1, #0x18                  	// #24
    4010a7b8:	f2a10000 	movk	x0, #0x800, lsl #16
    4010a7bc:	72b80801 	movk	w1, #0xc040, lsl #16
    4010a7c0:	b900001f 	str	wzr, [x0]
    4010a7c4:	b9017001 	str	w1, [x0,#368]
    4010a7c8:	d2940280 	mov	x0, #0xa014                	// #40980
    4010a7cc:	f2a10000 	movk	x0, #0x800, lsl #16
    4010a7d0:	5281ffe1 	mov	w1, #0xfff                 	// #4095
    4010a7d4:	b9000001 	str	w1, [x0]
    4010a7d8:	d65f03c0 	ret

000000004010a7dc <ctrl_init_update_by_dram_size>:
    4010a7dc:	d2880001 	mov	x1, #0x4000                	// #16384
    4010a7e0:	90000042 	adrp	x2, 40112000 <sram_union_buf+0x3400>
    4010a7e4:	f2a10001 	movk	x1, #0x800, lsl #16
    4010a7e8:	12001c00 	and	w0, w0, #0xff
    4010a7ec:	b9400021 	ldr	w1, [x1]
    4010a7f0:	b90c9c41 	str	w1, [x2,#3228]
    4010a7f4:	52800022 	mov	w2, #0x1                   	// #1
    4010a7f8:	d34c3423 	ubfx	x3, x1, #12, #2
    4010a7fc:	4b030042 	sub	w2, w2, w3
    4010a800:	1ac22800 	asr	w0, w0, w2
    4010a804:	52800042 	mov	w2, #0x2                   	// #2
    4010a808:	12001c00 	and	w0, w0, #0xff
    4010a80c:	4b417841 	sub	w1, w2, w1, lsr #30
    4010a810:	1ac12800 	asr	w0, w0, w1
    4010a814:	12001c00 	and	w0, w0, #0xff
    4010a818:	51001800 	sub	w0, w0, #0x6
    4010a81c:	7100101f 	cmp	w0, #0x4
    4010a820:	54000208 	b.hi	4010a860 <ctrl_init_update_by_dram_size+0x84>
    4010a824:	d2880c82 	mov	x2, #0x4064                	// #16484
    4010a828:	d2882401 	mov	x1, #0x4120                	// #16672
    4010a82c:	b0000003 	adrp	x3, 4010b000 <__func__.4011+0x10>
    4010a830:	f2a10002 	movk	x2, #0x800, lsl #16
    4010a834:	91213063 	add	x3, x3, #0x84c
    4010a838:	f2a10001 	movk	x1, #0x800, lsl #16
    4010a83c:	38604860 	ldrb	w0, [x3,w0,uxtw]
    4010a840:	10000063 	adr	x3, 4010a84c <ctrl_init_update_by_dram_size+0x70>
    4010a844:	8b208860 	add	x0, x3, w0, sxtb #2
    4010a848:	d61f0000 	br	x0
    4010a84c:	52800540 	mov	w0, #0x2a                  	// #42
    4010a850:	72a00e20 	movk	w0, #0x71, lsl #16
    4010a854:	b9000040 	str	w0, [x2]
    4010a858:	52812060 	mov	w0, #0x903                 	// #2307
    4010a85c:	b9000020 	str	w0, [x1]
    4010a860:	d2880c00 	mov	x0, #0x4060                	// #16480
    4010a864:	52800041 	mov	w1, #0x2                   	// #2
    4010a868:	f2a10000 	movk	x0, #0x800, lsl #16
    4010a86c:	b9000001 	str	w1, [x0]
    4010a870:	b900001f 	str	wzr, [x0]
    4010a874:	d65f03c0 	ret
    4010a878:	52800680 	mov	w0, #0x34                  	// #52
    4010a87c:	17fffff5 	b	4010a850 <ctrl_init_update_by_dram_size+0x74>
    4010a880:	52800960 	mov	w0, #0x4b                  	// #75
    4010a884:	72a00e20 	movk	w0, #0x71, lsl #16
    4010a888:	b9000040 	str	w0, [x2]
    4010a88c:	52812080 	mov	w0, #0x904                 	// #2308
    4010a890:	17fffff3 	b	4010a85c <ctrl_init_update_by_dram_size+0x80>
    4010a894:	52800f40 	mov	w0, #0x7a                  	// #122
    4010a898:	72a00e20 	movk	w0, #0x71, lsl #16
    4010a89c:	b9000040 	str	w0, [x2]
    4010a8a0:	528120a0 	mov	w0, #0x905                 	// #2309
    4010a8a4:	17ffffee 	b	4010a85c <ctrl_init_update_by_dram_size+0x80>
    4010a8a8:	52801480 	mov	w0, #0xa4                  	// #164
    4010a8ac:	72a00e20 	movk	w0, #0x71, lsl #16
    4010a8b0:	b9000040 	str	w0, [x2]
    4010a8b4:	528120e0 	mov	w0, #0x907                 	// #2311
    4010a8b8:	17ffffe9 	b	4010a85c <ctrl_init_update_by_dram_size+0x80>

000000004010a8bc <phy_init>:
    4010a8bc:	d2a10000 	mov	x0, #0x8000000             	// #134217728
    4010a8c0:	52802001 	mov	w1, #0x100                 	// #256
    4010a8c4:	72a06041 	movk	w1, #0x302, lsl #16
    4010a8c8:	d2800483 	mov	x3, #0x24                  	// #36
    4010a8cc:	b9000001 	str	w1, [x0]
    4010a8d0:	5280a081 	mov	w1, #0x504                 	// #1284
    4010a8d4:	72a0e0c1 	movk	w1, #0x706, lsl #16
    4010a8d8:	b9000401 	str	w1, [x0,#4]
    4010a8dc:	52812101 	mov	w1, #0x908                 	// #2312
    4010a8e0:	f2a10003 	movk	x3, #0x800, lsl #16
    4010a8e4:	72a16141 	movk	w1, #0xb0a, lsl #16
    4010a8e8:	b9000801 	str	w1, [x0,#8]
    4010a8ec:	5281a181 	mov	w1, #0xd0c                 	// #3340
    4010a8f0:	52864202 	mov	w2, #0x3210                	// #12816
    4010a8f4:	72a1e1c1 	movk	w1, #0xf0e, lsl #16
    4010a8f8:	b9000c01 	str	w1, [x0,#12]
    4010a8fc:	52822201 	mov	w1, #0x1110                	// #4368
    4010a900:	72aeca82 	movk	w2, #0x7654, lsl #16
    4010a904:	72a26241 	movk	w1, #0x1312, lsl #16
    4010a908:	b9001001 	str	w1, [x0,#16]
    4010a90c:	5282a281 	mov	w1, #0x1514                	// #5396
    4010a910:	528000a4 	mov	w4, #0x5                   	// #5
    4010a914:	72a002c1 	movk	w1, #0x16, lsl #16
    4010a918:	b9001401 	str	w1, [x0,#20]
    4010a91c:	d2800381 	mov	x1, #0x1c                  	// #28
    4010a920:	b900181f 	str	wzr, [x0,#24]
    4010a924:	f2a10001 	movk	x1, #0x800, lsl #16
    4010a928:	52802000 	mov	w0, #0x100                 	// #256
    4010a92c:	d280a405 	mov	x5, #0x520                 	// #1312
    4010a930:	5280c808 	mov	w8, #0x640                 	// #1600
    4010a934:	b9000020 	str	w0, [x1]
    4010a938:	f2a10005 	movk	x5, #0x800, lsl #16
    4010a93c:	b9000422 	str	w2, [x1,#4]
    4010a940:	52800101 	mov	w1, #0x8                   	// #8
    4010a944:	b9000061 	str	w1, [x3]
    4010a948:	52a16007 	mov	w7, #0xb000000             	// #184549376
    4010a94c:	b9000462 	str	w2, [x3,#4]
    4010a950:	d2800582 	mov	x2, #0x2c                  	// #44
    4010a954:	f2a10002 	movk	x2, #0x800, lsl #16
    4010a958:	528001a3 	mov	w3, #0xd                   	// #13
    4010a95c:	72a00fe3 	movk	w3, #0x7f, lsl #16
    4010a960:	52812006 	mov	w6, #0x900                 	// #2304
    4010a964:	b9000041 	str	w1, [x2]
    4010a968:	72a14006 	movk	w6, #0xa00, lsl #16
    4010a96c:	b900145f 	str	wzr, [x2,#20]
    4010a970:	d2814609 	mov	x9, #0xa30                 	// #2608
    4010a974:	b9001843 	str	w3, [x2,#24]
    4010a978:	52800283 	mov	w3, #0x14                  	// #20
    4010a97c:	b9001c5f 	str	wzr, [x2,#28]
    4010a980:	f2a10009 	movk	x9, #0x800, lsl #16
    4010a984:	b9002041 	str	w1, [x2,#32]
    4010a988:	d2800a01 	mov	x1, #0x50                  	// #80
    4010a98c:	f2a10001 	movk	x1, #0x800, lsl #16
    4010a990:	528000c2 	mov	w2, #0x6                   	// #6
    4010a994:	91006021 	add	x1, x1, #0x18
    4010a998:	b81e8022 	stur	w2, [x1,#-24]
    4010a99c:	52816002 	mov	w2, #0xb00                 	// #2816
    4010a9a0:	72a18002 	movk	w2, #0xc00, lsl #16
    4010a9a4:	b81ec022 	stur	w2, [x1,#-20]
    4010a9a8:	528009e2 	mov	w2, #0x4f                  	// #79
    4010a9ac:	72a122c2 	movk	w2, #0x916, lsl #16
    4010a9b0:	b81f0022 	stur	w2, [x1,#-16]
    4010a9b4:	52806e02 	mov	w2, #0x370                 	// #880
    4010a9b8:	b81f403f 	stur	wzr, [x1,#-12]
    4010a9bc:	72a08002 	movk	w2, #0x400, lsl #16
    4010a9c0:	b81f8022 	stur	w2, [x1,#-8]
    4010a9c4:	52814002 	mov	w2, #0xa00                 	// #2560
    4010a9c8:	72a1a002 	movk	w2, #0xd00, lsl #16
    4010a9cc:	b81fc022 	stur	w2, [x1,#-4]
    4010a9d0:	52a01002 	mov	w2, #0x800000              	// #8388608
    4010a9d4:	b9000022 	str	w2, [x1]
    4010a9d8:	52802102 	mov	w2, #0x108                 	// #264
    4010a9dc:	b9000822 	str	w2, [x1,#8]
    4010a9e0:	52840002 	mov	w2, #0x2000                	// #8192
    4010a9e4:	72a000e2 	movk	w2, #0x7, lsl #16
    4010a9e8:	b9000c22 	str	w2, [x1,#12]
    4010a9ec:	529c0002 	mov	w2, #0xe000                	// #57344
    4010a9f0:	72a3e002 	movk	w2, #0x1f00, lsl #16
    4010a9f4:	b9001822 	str	w2, [x1,#24]
    4010a9f8:	52818142 	mov	w2, #0xc0a                 	// #3082
    4010a9fc:	72a02162 	movk	w2, #0x10b, lsl #16
    4010aa00:	b9001c22 	str	w2, [x1,#28]
    4010aa04:	52802282 	mov	w2, #0x114                 	// #276
    4010aa08:	72a14022 	movk	w2, #0xa01, lsl #16
    4010aa0c:	b9002022 	str	w2, [x1,#32]
    4010aa10:	528011e2 	mov	w2, #0x8f                  	// #143
    4010aa14:	72b55542 	movk	w2, #0xaaaa, lsl #16
    4010aa18:	b9002422 	str	w2, [x1,#36]
    4010aa1c:	52870002 	mov	w2, #0x3800                	// #14336
    4010aa20:	b9002822 	str	w2, [x1,#40]
    4010aa24:	52810022 	mov	w2, #0x801                 	// #2049
    4010aa28:	b9002c22 	str	w2, [x1,#44]
    4010aa2c:	5280a802 	mov	w2, #0x540                 	// #1344
    4010aa30:	72a0e802 	movk	w2, #0x740, lsl #16
    4010aa34:	b9003822 	str	w2, [x1,#56]
    4010aa38:	5280a082 	mov	w2, #0x504                 	// #1284
    4010aa3c:	72a02842 	movk	w2, #0x142, lsl #16
    4010aa40:	b9003c22 	str	w2, [x1,#60]
    4010aa44:	52800142 	mov	w2, #0xa                   	// #10
    4010aa48:	72a00aa2 	movk	w2, #0x55, lsl #16
    4010aa4c:	b9004022 	str	w2, [x1,#64]
    4010aa50:	52878b42 	mov	w2, #0x3c5a                	// #15450
    4010aa54:	72a00aa2 	movk	w2, #0x55, lsl #16
    4010aa58:	b9004422 	str	w2, [x1,#68]
    4010aa5c:	5294b862 	mov	w2, #0xa5c3                	// #42435
    4010aa60:	72a01542 	movk	w2, #0xaa, lsl #16
    4010aa64:	b9004822 	str	w2, [x1,#72]
    4010aa68:	529e1e02 	mov	w2, #0xf0f0                	// #61680
    4010aa6c:	72a01542 	movk	w2, #0xaa, lsl #16
    4010aa70:	b9004c22 	str	w2, [x1,#76]
    4010aa74:	5281e1e2 	mov	w2, #0xf0f                 	// #3855
    4010aa78:	72a3c002 	movk	w2, #0x1e00, lsl #16
    4010aa7c:	b9005022 	str	w2, [x1,#80]
    4010aa80:	91015021 	add	x1, x1, #0x54
    4010aa84:	5287c262 	mov	w2, #0x3e13                	// #15891
    4010aa88:	72a00102 	movk	w2, #0x8, lsl #16
    4010aa8c:	b9000022 	str	w2, [x1]
    4010aa90:	52800662 	mov	w2, #0x33                  	// #51
    4010aa94:	b900343f 	str	wzr, [x1,#52]
    4010aa98:	72a00062 	movk	w2, #0x3, lsl #16
    4010aa9c:	b9003822 	str	w2, [x1,#56]
    4010aaa0:	52800582 	mov	w2, #0x2c                  	// #44
    4010aaa4:	72a00422 	movk	w2, #0x21, lsl #16
    4010aaa8:	b9003c22 	str	w2, [x1,#60]
    4010aaac:	528002c2 	mov	w2, #0x16                  	// #22
    4010aab0:	72a006e2 	movk	w2, #0x37, lsl #16
    4010aab4:	b9004022 	str	w2, [x1,#64]
    4010aab8:	52a08002 	mov	w2, #0x4000000             	// #67108864
    4010aabc:	b9004422 	str	w2, [x1,#68]
    4010aac0:	b900483f 	str	wzr, [x1,#72]
    4010aac4:	528d4202 	mov	w2, #0x6a10                	// #27152
    4010aac8:	b900503f 	str	wzr, [x1,#80]
    4010aacc:	b900543f 	str	wzr, [x1,#84]
    4010aad0:	b900583f 	str	wzr, [x1,#88]
    4010aad4:	b9005c3f 	str	wzr, [x1,#92]
    4010aad8:	b9006022 	str	w2, [x1,#96]
    4010aadc:	12802102 	mov	w2, #0xfffffef7            	// #-265
    4010aae0:	b900643f 	str	wzr, [x1,#100]
    4010aae4:	b9006822 	str	w2, [x1,#104]
    4010aae8:	528003e2 	mov	w2, #0x1f                  	// #31
    4010aaec:	b9006c22 	str	w2, [x1,#108]
    4010aaf0:	52800022 	mov	w2, #0x1                   	// #1
    4010aaf4:	b9007022 	str	w2, [x1,#112]
    4010aaf8:	d2802602 	mov	x2, #0x130                 	// #304
    4010aafc:	f2a10002 	movk	x2, #0x800, lsl #16
    4010ab00:	52802021 	mov	w1, #0x101                 	// #257
    4010ab04:	b9000041 	str	w1, [x2]
    4010ab08:	b9000440 	str	w0, [x2,#4]
    4010ab0c:	b9000843 	str	w3, [x2,#8]
    4010ab10:	52810103 	mov	w3, #0x808                 	// #2056
    4010ab14:	b900105f 	str	wzr, [x2,#16]
    4010ab18:	b900145f 	str	wzr, [x2,#20]
    4010ab1c:	b9001843 	str	w3, [x2,#24]
    4010ab20:	b9001c5f 	str	wzr, [x2,#28]
    4010ab24:	b9002044 	str	w4, [x2,#32]
    4010ab28:	52820024 	mov	w4, #0x1001                	// #4097
    4010ab2c:	b9002441 	str	w1, [x2,#36]
    4010ab30:	d2802b01 	mov	x1, #0x158                 	// #344
    4010ab34:	f2a10001 	movk	x1, #0x800, lsl #16
    4010ab38:	52866622 	mov	w2, #0x3331                	// #13105
    4010ab3c:	72a00662 	movk	w2, #0x33, lsl #16
    4010ab40:	b900003f 	str	wzr, [x1]
    4010ab44:	b900043f 	str	wzr, [x1,#4]
    4010ab48:	b9000c3f 	str	wzr, [x1,#12]
    4010ab4c:	b9001022 	str	w2, [x1,#16]
    4010ab50:	52800042 	mov	w2, #0x2                   	// #2
    4010ab54:	b900143f 	str	wzr, [x1,#20]
    4010ab58:	b900183f 	str	wzr, [x1,#24]
    4010ab5c:	b9001c20 	str	w0, [x1,#28]
    4010ab60:	d2803000 	mov	x0, #0x180                 	// #384
    4010ab64:	f2a10000 	movk	x0, #0x800, lsl #16
    4010ab68:	52800201 	mov	w1, #0x10                  	// #16
    4010ab6c:	72a00041 	movk	w1, #0x2, lsl #16
    4010ab70:	b9000001 	str	w1, [x0]
    4010ab74:	52808001 	mov	w1, #0x400                 	// #1024
    4010ab78:	b900041f 	str	wzr, [x0,#4]
    4010ab7c:	72a00121 	movk	w1, #0x9, lsl #16
    4010ab80:	b900081f 	str	wzr, [x0,#8]
    4010ab84:	b9000c01 	str	w1, [x0,#12]
    4010ab88:	528241c1 	mov	w1, #0x120e                	// #4622
    4010ab8c:	72a00041 	movk	w1, #0x2, lsl #16
    4010ab90:	b9001001 	str	w1, [x0,#16]
    4010ab94:	d2804081 	mov	x1, #0x204                 	// #516
    4010ab98:	b900801f 	str	wzr, [x0,#128]
    4010ab9c:	f2a10001 	movk	x1, #0x800, lsl #16
    4010aba0:	52808800 	mov	w0, #0x440                 	// #1088
    4010aba4:	b9000020 	str	w0, [x1]
    4010aba8:	b900043f 	str	wzr, [x1,#4]
    4010abac:	b9001c3f 	str	wzr, [x1,#28]
    4010abb0:	b9002020 	str	w0, [x1,#32]
    4010abb4:	d2804500 	mov	x0, #0x228                 	// #552
    4010abb8:	f2a10000 	movk	x0, #0x800, lsl #16
    4010abbc:	b900001f 	str	wzr, [x0]
    4010abc0:	b901d81f 	str	wzr, [x0,#472]
    4010abc4:	b901dc1f 	str	wzr, [x0,#476]
    4010abc8:	b901e01f 	str	wzr, [x0,#480]
    4010abcc:	b901e41f 	str	wzr, [x0,#484]
    4010abd0:	52a00200 	mov	w0, #0x100000              	// #1048576
    4010abd4:	b9020c20 	str	w0, [x1,#524]
    4010abd8:	b9021020 	str	w0, [x1,#528]
    4010abdc:	b9021422 	str	w2, [x1,#532]
    4010abe0:	52880802 	mov	w2, #0x4040                	// #16448
    4010abe4:	b9021822 	str	w2, [x1,#536]
    4010abe8:	52800082 	mov	w2, #0x4                   	// #4
    4010abec:	b902fc24 	str	w4, [x1,#764]
    4010abf0:	b9030020 	str	w0, [x1,#768]
    4010abf4:	b903043f 	str	wzr, [x1,#772]
    4010abf8:	b903083f 	str	wzr, [x1,#776]
    4010abfc:	b9030c22 	str	w2, [x1,#780]
    4010ac00:	b903103f 	str	wzr, [x1,#784]
    4010ac04:	b903143f 	str	wzr, [x1,#788]
    4010ac08:	b903183f 	str	wzr, [x1,#792]
    4010ac0c:	52800061 	mov	w1, #0x3                   	// #3
    4010ac10:	b90000a1 	str	w1, [x5]
    4010ac14:	b90020a4 	str	w4, [x5,#32]
    4010ac18:	d280a884 	mov	x4, #0x544                 	// #1348
    4010ac1c:	f2a10004 	movk	x4, #0x800, lsl #16
    4010ac20:	5280c005 	mov	w5, #0x600                 	// #1536
    4010ac24:	72a00085 	movk	w5, #0x4, lsl #16
    4010ac28:	b9000080 	str	w0, [x4]
    4010ac2c:	d280a900 	mov	x0, #0x548                 	// #1352
    4010ac30:	f2a10000 	movk	x0, #0x800, lsl #16
    4010ac34:	b900001f 	str	wzr, [x0]
    4010ac38:	b900041f 	str	wzr, [x0,#4]
    4010ac3c:	b9000802 	str	w2, [x0,#8]
    4010ac40:	3205c3e2 	mov	w2, #0x8080808             	// #134744072
    4010ac44:	b9000c1f 	str	wzr, [x0,#12]
    4010ac48:	b900101f 	str	wzr, [x0,#16]
    4010ac4c:	b900141f 	str	wzr, [x0,#20]
    4010ac50:	b9001801 	str	w1, [x0,#24]
    4010ac54:	d2812001 	mov	x1, #0x900                 	// #2304
    4010ac58:	f2a10001 	movk	x1, #0x800, lsl #16
    4010ac5c:	52808000 	mov	w0, #0x400                 	// #1024
    4010ac60:	b9000020 	str	w0, [x1]
    4010ac64:	b9002c20 	str	w0, [x1,#44]
    4010ac68:	b9003020 	str	w0, [x1,#48]
    4010ac6c:	b9003420 	str	w0, [x1,#52]
    4010ac70:	b9003820 	str	w0, [x1,#56]
    4010ac74:	d2812800 	mov	x0, #0x940                 	// #2368
    4010ac78:	f2a10000 	movk	x0, #0x800, lsl #16
    4010ac7c:	52808081 	mov	w1, #0x404                 	// #1028
    4010ac80:	72a10101 	movk	w1, #0x808, lsl #16
    4010ac84:	b900001f 	str	wzr, [x0]
    4010ac88:	b900301f 	str	wzr, [x0,#48]
    4010ac8c:	b900341f 	str	wzr, [x0,#52]
    4010ac90:	b900381f 	str	wzr, [x0,#56]
    4010ac94:	b9003c01 	str	w1, [x0,#60]
    4010ac98:	5280c801 	mov	w1, #0x640                 	// #1600
    4010ac9c:	b9004002 	str	w2, [x0,#64]
    4010aca0:	72a0c801 	movk	w1, #0x640, lsl #16
    4010aca4:	b900c001 	str	w1, [x0,#192]
    4010aca8:	b900c401 	str	w1, [x0,#196]
    4010acac:	b900c801 	str	w1, [x0,#200]
    4010acb0:	b900cc01 	str	w1, [x0,#204]
    4010acb4:	b900d008 	str	w8, [x0,#208]
    4010acb8:	b900d407 	str	w7, [x0,#212]
    4010acbc:	b900d806 	str	w6, [x0,#216]
    4010acc0:	b900dc05 	str	w5, [x0,#220]
    4010acc4:	320a83e0 	mov	w0, #0x400040              	// #4194368
    4010acc8:	b904dc80 	str	w0, [x4,#1244]
    4010accc:	b904e080 	str	w0, [x4,#1248]
    4010acd0:	b904e480 	str	w0, [x4,#1252]
    4010acd4:	b904e880 	str	w0, [x4,#1256]
    4010acd8:	52800804 	mov	w4, #0x40                  	// #64
    4010acdc:	b9000124 	str	w4, [x9]
    4010ace0:	b900053f 	str	wzr, [x9,#4]
    4010ace4:	b9000923 	str	w3, [x9,#8]
    4010ace8:	b9000d22 	str	w2, [x9,#12]
    4010acec:	b9001121 	str	w1, [x9,#16]
    4010acf0:	b9001521 	str	w1, [x9,#20]
    4010acf4:	b9001921 	str	w1, [x9,#24]
    4010acf8:	b9001d21 	str	w1, [x9,#28]
    4010acfc:	d2814a01 	mov	x1, #0xa50                 	// #2640
    4010ad00:	f2a10001 	movk	x1, #0x800, lsl #16
    4010ad04:	b9000028 	str	w8, [x1]
    4010ad08:	b9000427 	str	w7, [x1,#4]
    4010ad0c:	b9000826 	str	w6, [x1,#8]
    4010ad10:	b9000c25 	str	w5, [x1,#12]
    4010ad14:	d2816485 	mov	x5, #0xb24                 	// #2852
    4010ad18:	b9001020 	str	w0, [x1,#16]
    4010ad1c:	f2a10005 	movk	x5, #0x800, lsl #16
    4010ad20:	b9001420 	str	w0, [x1,#20]
    4010ad24:	b9001820 	str	w0, [x1,#24]
    4010ad28:	b9001c20 	str	w0, [x1,#28]
    4010ad2c:	d2814e00 	mov	x0, #0xa70                 	// #2672
    4010ad30:	f2a10000 	movk	x0, #0x800, lsl #16
    4010ad34:	52a80801 	mov	w1, #0x40400000            	// #1077936128
    4010ad38:	b9000004 	str	w4, [x0]
    4010ad3c:	52880004 	mov	w4, #0x4000                	// #16384
    4010ad40:	b900041f 	str	wzr, [x0,#4]
    4010ad44:	72a00804 	movk	w4, #0x40, lsl #16
    4010ad48:	b9000803 	str	w3, [x0,#8]
    4010ad4c:	52814003 	mov	w3, #0xa00                 	// #2560
    4010ad50:	b9000c02 	str	w2, [x0,#12]
    4010ad54:	5281c1c2 	mov	w2, #0xe0e                 	// #3598
    4010ad58:	b900901f 	str	wzr, [x0,#144]
    4010ad5c:	72a00102 	movk	w2, #0x8, lsl #16
    4010ad60:	b900941f 	str	wzr, [x0,#148]
    4010ad64:	b9009804 	str	w4, [x0,#152]
    4010ad68:	b9009c03 	str	w3, [x0,#156]
    4010ad6c:	b900a01f 	str	wzr, [x0,#160]
    4010ad70:	b900a402 	str	w2, [x0,#164]
    4010ad74:	b900a81f 	str	wzr, [x0,#168]
    4010ad78:	b900ac1f 	str	wzr, [x0,#172]
    4010ad7c:	b900b001 	str	w1, [x0,#176]
    4010ad80:	320c83e0 	mov	w0, #0x100010              	// #1048592
    4010ad84:	b90000a0 	str	w0, [x5]
    4010ad88:	b9000cbf 	str	wzr, [x5,#12]
    4010ad8c:	b90010bf 	str	wzr, [x5,#16]
    4010ad90:	b90014a4 	str	w4, [x5,#20]
    4010ad94:	d2816784 	mov	x4, #0xb3c                 	// #2876
    4010ad98:	f2a10004 	movk	x4, #0x800, lsl #16
    4010ad9c:	b9000083 	str	w3, [x4]
    4010ada0:	d2816803 	mov	x3, #0xb40                 	// #2880
    4010ada4:	f2a10003 	movk	x3, #0x800, lsl #16
    4010ada8:	b900007f 	str	wzr, [x3]
    4010adac:	b9000462 	str	w2, [x3,#4]
    4010adb0:	d2816902 	mov	x2, #0xb48                 	// #2888
    4010adb4:	f2a10002 	movk	x2, #0x800, lsl #16
    4010adb8:	b900005f 	str	wzr, [x2]
    4010adbc:	b900045f 	str	wzr, [x2,#4]
    4010adc0:	b9000841 	str	w1, [x2,#8]
    4010adc4:	d2816a81 	mov	x1, #0xb54                 	// #2900
    4010adc8:	f2a10001 	movk	x1, #0x800, lsl #16
    4010adcc:	b9000020 	str	w0, [x1]
    4010add0:	d65f03c0 	ret
    4010add4:	00000000 	.inst	0x00000000 ; undefined

000000004010add8 <smc_handler64>:
    4010add8:	580000de 	ldr	x30, 4010adf0 <smc_handler64+0x18>
    4010addc:	d50040bf 	msr	spsel, #0x0
    4010ade0:	910003df 	mov	sp, x30
    4010ade4:	97ffd8f6 	bl	401011bc <bl2_smc_handler>
    4010ade8:	14000000 	b	4010ade8 <smc_handler64+0x10>
    4010adec:	00000000 	.inst	0x00000000 ; undefined
    4010adf0:	4010da40 	.word	0x4010da40
    4010adf4:	00000000 	.word	0x00000000

000000004010adf8 <flush_dcache_range>:
    4010adf8:	b40001a1 	cbz	x1, 4010ae2c <exit_loop_civac>
    4010adfc:	d53b0023 	mrs	x3, ctr_el0
    4010ae00:	d3504c63 	ubfx	x3, x3, #16, #4
    4010ae04:	d2800082 	mov	x2, #0x4                   	// #4
    4010ae08:	9ac32042 	lsl	x2, x2, x3
    4010ae0c:	8b010001 	add	x1, x0, x1
    4010ae10:	d1000443 	sub	x3, x2, #0x1
    4010ae14:	8a230000 	bic	x0, x0, x3

000000004010ae18 <loop_civac>:
    4010ae18:	d50b7e20 	dc	civac, x0
    4010ae1c:	8b020000 	add	x0, x0, x2
    4010ae20:	eb01001f 	cmp	x0, x1
    4010ae24:	54ffffa3 	b.cc	4010ae18 <loop_civac>
    4010ae28:	d5033f9f 	dsb	sy

000000004010ae2c <exit_loop_civac>:
    4010ae2c:	d65f03c0 	ret

000000004010ae30 <zeromem>:
    4010ae30:	8b010002 	add	x2, x0, x1
    4010ae34:	14000033 	b	4010af00 <zero_normalmem+0xc8>

000000004010ae38 <zero_normalmem>:
    4010ae38:	d5381004 	mrs	x4, sctlr_el1
    4010ae3c:	f240009f 	tst	x4, #0x1
    4010ae40:	8b010002 	add	x2, x0, x1
    4010ae44:	d53b00e3 	mrs	x3, dczid_el0
    4010ae48:	d3400c63 	ubfx	x3, x3, #0, #4
    4010ae4c:	d2800085 	mov	x5, #0x4                   	// #4
    4010ae50:	9ac320a3 	lsl	x3, x5, x3
    4010ae54:	f100407f 	cmp	x3, #0x10
    4010ae58:	eb03003f 	cmp	x1, x3
    4010ae5c:	54000523 	b.cc	4010af00 <zero_normalmem+0xc8>
    4010ae60:	d1000461 	sub	x1, x3, #0x1
    4010ae64:	ea01001f 	tst	x0, x1
    4010ae68:	54000260 	b.eq	4010aeb4 <zero_normalmem+0x7c>
    4010ae6c:	aa010004 	orr	x4, x0, x1
    4010ae70:	91000484 	add	x4, x4, #0x1
    4010ae74:	b4000464 	cbz	x4, 4010af00 <zero_normalmem+0xc8>
    4010ae78:	eb02009f 	cmp	x4, x2
    4010ae7c:	54000428 	b.hi	4010af00 <zero_normalmem+0xc8>
    4010ae80:	f2400c1f 	tst	x0, #0xf
    4010ae84:	540000e0 	b.eq	4010aea0 <zero_normalmem+0x68>
    4010ae88:	b2400c05 	orr	x5, x0, #0xf
    4010ae8c:	910004a5 	add	x5, x5, #0x1
    4010ae90:	b4000385 	cbz	x5, 4010af00 <zero_normalmem+0xc8>
    4010ae94:	3800141f 	strb	wzr, [x0],#1
    4010ae98:	eb05001f 	cmp	x0, x5
    4010ae9c:	54ffffc1 	b.ne	4010ae94 <zero_normalmem+0x5c>
    4010aea0:	eb04001f 	cmp	x0, x4
    4010aea4:	54000082 	b.cs	4010aeb4 <zero_normalmem+0x7c>
    4010aea8:	a8817c1f 	stp	xzr, xzr, [x0],#16
    4010aeac:	eb04001f 	cmp	x0, x4
    4010aeb0:	54ffffc3 	b.cc	4010aea8 <zero_normalmem+0x70>
    4010aeb4:	8a210044 	bic	x4, x2, x1
    4010aeb8:	eb04001f 	cmp	x0, x4
    4010aebc:	540000a2 	b.cs	4010aed0 <zero_normalmem+0x98>
    4010aec0:	d50b7420 	dc	zva, x0
    4010aec4:	8b030000 	add	x0, x0, x3
    4010aec8:	eb04001f 	cmp	x0, x4
    4010aecc:	54ffffa3 	b.cc	4010aec0 <zero_normalmem+0x88>
    4010aed0:	927cec44 	and	x4, x2, #0xfffffffffffffff0
    4010aed4:	eb04001f 	cmp	x0, x4
    4010aed8:	54000082 	b.cs	4010aee8 <zero_normalmem+0xb0>
    4010aedc:	a8817c1f 	stp	xzr, xzr, [x0],#16
    4010aee0:	eb04001f 	cmp	x0, x4
    4010aee4:	54ffffc3 	b.cc	4010aedc <zero_normalmem+0xa4>
    4010aee8:	eb02001f 	cmp	x0, x2
    4010aeec:	54000080 	b.eq	4010aefc <zero_normalmem+0xc4>
    4010aef0:	3800141f 	strb	wzr, [x0],#1
    4010aef4:	eb02001f 	cmp	x0, x2
    4010aef8:	54ffffc1 	b.ne	4010aef0 <zero_normalmem+0xb8>
    4010aefc:	d65f03c0 	ret
    4010af00:	f2400c1f 	tst	x0, #0xf
    4010af04:	54fffe60 	b.eq	4010aed0 <zero_normalmem+0x98>
    4010af08:	b2400c04 	orr	x4, x0, #0xf
    4010af0c:	91000484 	add	x4, x4, #0x1
    4010af10:	b4fffec4 	cbz	x4, 4010aee8 <zero_normalmem+0xb0>
    4010af14:	eb02009f 	cmp	x4, x2
    4010af18:	54fffe82 	b.cs	4010aee8 <zero_normalmem+0xb0>
    4010af1c:	3800141f 	strb	wzr, [x0],#1
    4010af20:	eb04001f 	cmp	x0, x4
    4010af24:	54ffffc1 	b.ne	4010af1c <zero_normalmem+0xe4>
    4010af28:	17ffffea 	b	4010aed0 <zero_normalmem+0x98>

000000004010af2c <console_putc>:
    4010af2c:	d2a08281 	mov	x1, #0x4140000             	// #68419584
    4010af30:	14000003 	b	4010af3c <console_core_putc>

000000004010af34 <console_flush>:
    4010af34:	d2a08280 	mov	x0, #0x4140000             	// #68419584
    4010af38:	14000012 	b	4010af80 <console_core_flush>

000000004010af3c <console_core_putc>:
    4010af3c:	b40001e1 	cbz	x1, 4010af78 <putc_error>
    4010af40:	7100281f 	cmp	w0, #0xa
    4010af44:	540000e1 	b.ne	4010af60 <console_core_putc+0x24>
    4010af48:	b9401422 	ldr	w2, [x1,#20]
    4010af4c:	121b0442 	and	w2, w2, #0x60
    4010af50:	7101805f 	cmp	w2, #0x60
    4010af54:	54ffffa1 	b.ne	4010af48 <console_core_putc+0xc>
    4010af58:	528001a2 	mov	w2, #0xd                   	// #13
    4010af5c:	b9000022 	str	w2, [x1]
    4010af60:	b9401422 	ldr	w2, [x1,#20]
    4010af64:	121b0442 	and	w2, w2, #0x60
    4010af68:	7101805f 	cmp	w2, #0x60
    4010af6c:	54ffffa1 	b.ne	4010af60 <console_core_putc+0x24>
    4010af70:	b9000020 	str	w0, [x1]
    4010af74:	d65f03c0 	ret

000000004010af78 <putc_error>:
    4010af78:	12800000 	mov	w0, #0xffffffff            	// #-1
    4010af7c:	d65f03c0 	ret

000000004010af80 <console_core_flush>:
    4010af80:	b40000e0 	cbz	x0, 4010af9c <flush_error>
    4010af84:	b9401401 	ldr	w1, [x0,#20]
    4010af88:	121b0421 	and	w1, w1, #0x60
    4010af8c:	7101803f 	cmp	w1, #0x60
    4010af90:	54ffffa1 	b.ne	4010af84 <console_core_flush+0x4>
    4010af94:	52800000 	mov	w0, #0x0                   	// #0
    4010af98:	d65f03c0 	ret

000000004010af9c <flush_error>:
    4010af9c:	12800000 	mov	w0, #0xffffffff            	// #-1
    4010afa0:	d65f03c0 	ret
    4010afa4:	00000000 	.inst	0x00000000 ; undefined

000000004010afa8 <build_message>:
    4010afa8:	33323032 2d32302d 31543432 39343a35     2023-02-24T15:49
    4010afb8:	2b35323a 303a3830 00000030 00000000     :25+08:00.......

000000004010afc8 <version_string>:
    4010afc8:	7a637637 6466673a 61376439 4b530035     7vcz:gfd9d7a5.SK
    4010afd8:	4c5f5049 4e454349 435f4553 4b434548     IP_LICENSE_CHECK
	...

000000004010aff0 <__func__.4011>:
    4010aff0:	5f326c62 5f636d73 646e6168 0072656c     bl2_smc_handler.
    4010b000:	73253201 0a64253a 53320100 63746977     .2%s:%d...2Switc
    4010b010:	6f742068 324c4520 20534e2d 30207461     h to EL2-NS at 0
    4010b020:	786c2578 7830000a 20300100 45523a45     x%lx..0x..0 E:RE
    4010b030:	3a544553 253a7325 01000a64 3a452030     SET:%s:%d...0 E:
    4010b040:	303d6172 786c2578 6170000a 0063696e     ra=0x%lx..panic.
    4010b050:	53523201 000a2e43 74733201 5f6e6f5f     .2RSC....2st_on_
    4010b060:	73616572 253d6e6f 01000a78 5f747332     reason=%x...2st_
    4010b070:	5f66666f 73616572 253d6e6f 01000a78     off_reason=%x...
    4010b080:	20794232 73736170 63747220 646f6d20     2By pass rtc mod
    4010b090:	77732065 68637469 3201000a 20657355     e switch...2Use 
    4010b0a0:	65746e69 6c616e72 6b323320 3201000a     internal 32k...2
    4010b0b0:	74697753 52206863 6d204354 2065646f     Switch RTC mode 
    4010b0c0:	78206f74 336c6174 000a6b32 4c503201     to xtal32k...2PL
    4010b0d0:	0a2e534c 50320100 2e454c4c 3201000a     LS....2PLLE....2
    4010b0e0:	4253460a 7325204c 0a73253a 20330100     .FSBL %s:%s...3 
    4010b0f0:	77733a49 666e695f 78303d6f 000a7825     I:sw_info=0x%x..
    4010b100:	49203301 7069663a 7261705f 3a316d61     .3 I:fip_param1:
    4010b110:	72617020 635f6d61 6d75736b 2578303d      param_cksum=0x%
    4010b120:	61702078 326d6172 616f6c5f 64646164     x param2_loadadd
    4010b130:	78303d72 000a7825 49203301 5f50433a     r=0x%x...3 I:CP_
    4010b140:	54415453 45525f45 78303d47 000a7825     STATE_REG=0x%x..
    4010b150:	4c423201 6e652032 000a2e64 32433201     .2BL2 end....2C2
    4010b160:	78302f53 302f7825 2f782578 78257830     S/0x%x/0x%x/0x%x
    4010b170:	01000a2e 206f4e32 36303943 6d69204c     ....2No C906L im
    4010b180:	2e656761 3001000a 623a4520 5f70636c     age....0 E:blcp_
    4010b190:	5f646e32 616e7572 20726464 25783028     2nd_runaddr (0x%
    4010b1a0:	69202978 6f6e2073 6e692074 41524420     x) is not in DRA
    4010b1b0:	000a2e4d 45203001 636c623a 6e325f70     M....0 E:blcp_2n
    4010b1c0:	69735f64 2820657a 78257830 73692029     d_size (0x%x) is
    4010b1d0:	746f6e20 206e6920 4d415244 01000a2e      not in DRAM....
    4010b1e0:	3a452030 70636c62 646e325f 736b635f     0 E:blcp_2nd_cks
    4010b1f0:	28206d75 78257830 2578302f 000a2978     um (0x%x/0x%x)..
    4010b200:	45203001 7265763a 20796669 70636c62     .0 E:verify blcp
    4010b210:	646e3220 64252820 01000a29 45324332      2nd (%d)...2C2E
    4010b220:	01000a2e 3a572031 63204c44 65636e61     ....1 W:DL cance
    4010b230:	64656c6c 6f4c202e 66206461 6873616c     lled. Load flash
    4010b240:	2528202e 0a2e2964 20300100 61463a45     . (%d)....0 E:Fa
    4010b250:	64656c69 206f7420 64616f6c 52444420     iled to load DDR
    4010b260:	72617020 28206d61 2e296425 3201000a      param (%d)....2
    4010b270:	2f535044 78257830 2578302f 000a2e78     DPS/0x%x/0x%x...
    4010b280:	45203001 7264643a 7261705f 635f6d61     .0 E:ddr_param_c
    4010b290:	6d75736b 78302820 302f7825 29782578     ksum (0x%x/0x%x)
    4010b2a0:	3201000a 2e455044 3201000a 302f324c     ...2DPE....2L2/0
    4010b2b0:	2e782578 3201000a 302f324c 2f782578     x%x....2L2/0x%x/
    4010b2c0:	78257830 2578302f 302f786c 2f782578     0x%x/0x%lx/0x%x/
    4010b2d0:	78257830 3001000a 6c3a4520 6564616f     0x%x...0 E:loade
    4010b2e0:	6e325f72 6b635f64 206d7573 25783028     r_2nd_cksum (0x%
    4010b2f0:	78302f78 0a297825 20300100 65763a45     x/0x%x)...0 E:ve
    4010b300:	79666972 616f6c20 20726564 20646e32     rify loader 2nd 
    4010b310:	29642528 3001000a 463a4520 656c6961     (%d)...0 E:Faile
    4010b320:	6f742064 63656420 72706d6f 20737365     d to decompress 
    4010b330:	64616f6c 325f7265 2820646e 252f6425     loader_2nd (%d/%
    4010b340:	0a29756c 4c320100 6564616f 6e325f72     lu)...2Loader_2n
    4010b350:	6f6c2064 64656461 01000a2e 4d4f4332     d loaded....2COM
    4010b360:	64252f50 01000a2e 2f534d32 78257830     P/%d....2MS/0x%x
    4010b370:	2578302f 78302f78 0a2e7825 4e320100     /0x%x/0x%x....2N
    4010b380:	6f6d206f 6f74696e 000a2e72 45203001     o monitor....0 E
    4010b390:	6e6f6d3a 726f7469 6e75725f 72646461     :monitor_runaddr
    4010b3a0:	78302820 20297825 6e207369 6920746f      (0x%x) is not i
    4010b3b0:	5244206e 0a2e4d41 20300100 6f6d3a45     n DRAM....0 E:mo
    4010b3c0:	6f74696e 69735f72 2820657a 78257830     nitor_size (0x%x
    4010b3d0:	73692029 746f6e20 206e6920 4d415244     ) is not in DRAM
    4010b3e0:	01000a2e 3a452030 696e6f6d 5f726f74     ....0 E:monitor_
    4010b3f0:	75736b63 3028206d 2f782578 78257830     cksum (0x%x/0x%x
    4010b400:	01000a29 3a452030 69726576 6d207966     )...0 E:verify m
    4010b410:	74696e6f 2820726f 0a296425 4d320100     onitor (%d)...2M
    4010b420:	000a2e45 32503201 78302f53 2f786c25     E....2P2S/0x%lx/
    4010b430:	0a2e7025 20310100 504c3a57 4f4e5f32     %p....1 W:LP2_NO
    4010b440:	4947414d 01000a43 3a452030 61726170     MAGIC...0 E:para
    4010b450:	635f326d 6d75736b 78302820 302f7825     m2_cksum (0x%x/0
    4010b460:	29782578 3201000a 2e453250 3001000a     x%x)...2P2E....0
    4010b470:	463a4520 656c6961 6f742064 616f6c20      E:Failed to loa
    4010b480:	65722064 28207473 2e296425 3201000a     d rest (%d)....2
    4010b490:	706d754a 206f7420 696e6f6d 20726f74     Jump to monitor 
    4010b4a0:	30207461 786c2578 01000a2e 6d754a32     at 0x%lx....2Jum
    4010b4b0:	6f742070 616f6c20 5f726564 20646e32     p to loader_2nd 
    4010b4c0:	30207461 786c2578 01000a2e 3a452030     at 0x%lx....0 E:
    4010b4d0:	63207325 74276e61 6c6c6120 2520636f     %s can't alloc %
    4010b4e0:	6220756c 73657479 0000000a 00000000     lu bytes........

000000004010b4f0 <__func__.4250>:
    4010b4f0:	6c417a53 00636f6c                       SzAlloc.

000000004010b4f8 <__func__.4267>:
    4010b4f8:	6f636564 6572706d 6c5f7373 00616d7a     decompress_lzma.
    4010b508:	43443201 70252f50 2578302f 252f786c     .2DCP/%p/0x%lx/%
    4010b518:	78302f70 2f786c25 0a2e6425 44320100     p/0x%lx/%d....2D
    4010b528:	302f5043 786c2578 2e64252f 3301000a     CP/0x%lx/%d....3
    4010b538:	4c3a4920 252f345a 70252f70 01000a2e      I:LZ4/%p/%p....
    4010b548:	3a452030 78746364 74617453 253d7375     0 E:dctxStatus=%
    4010b558:	000a756c 49203301 7473643a 7a69735f     lu...3 I:dst_siz
    4010b568:	6c253d65 72732075 69735f63 253d657a     e=%lu src_size=%
    4010b578:	7220756c 253d7465 000a647a 45203001     lu ret=%zd...0 E
    4010b588:	345a4c3a 65645f46 706d6f63 73736572     :LZ4F_decompress
    4010b598:	756c253d 3001000a 253a4520 64203a73     =%lu...0 E:%s: d
    4010b5a8:	735f7473 20657a69 4e207369 2e4c4c55     st_size is NULL.
    4010b5b8:	3301000a 4c3a4920 31414d5a 2f70252f     ...3 I:LZMA1/%p/
    4010b5c8:	0a2e7025 20330100 5a4c3a49 2f32414d     %p....3 I:LZMA2/
    4010b5d8:	6f636e75 735f706d 3d657a69 6c257830     uncomp_size=0x%l
    4010b5e8:	01000a78 3a452030 616d7a4c 6f636544     x...0 E:LzmaDeco
    4010b5f8:	45206564 524f5252 6425203a 74732820     de ERROR: %d (st
    4010b608:	73757461 2964253d 3301000a 4c3a4920     atus=%d)...3 I:L
    4010b618:	39414d5a 2578302f 000a786c 00130002     ZMA9/0x%lx......
    4010b628:	00820057 00bd008a 011800f5 01590178     W...........x.Y.
    4010b638:	01e001cf 020701ff 00000228 00000000     ........(.......

000000004010b648 <blockSizes.4903>:
    4010b648:	00010000 00000000 00040000 00000000     ................
    4010b658:	00100000 00000000 00400000 00000000     ..........@.....

000000004010b668 <dec64table>:
	...
    4010b674:	ffffffff fffffffc 00000001 00000002     ................
    4010b684:	00000003                                ....

000000004010b688 <inc32table>:
    4010b688:	00000000 00000001 00000002 00000001     ................
    4010b698:	00000000 00000004 00000004 00000004     ................
    4010b6a8:	00da00ca 001800b8 00760045 000c00ac     ........E.v.....
    4010b6b8:	006a0039 000000a0 005e002d 32010094     9.j.....-.^....2
    4010b6c8:	7372614d 52444420 696e6920 000a2e74     Mars DDR init...
    4010b6d8:	64643201 61705f72 5b6d6172 303d5d30     .2ddr_param[0]=0
    4010b6e8:	2e782578 0000000a 4b2e2800 47433d33     x%x......(.K3=CG
    4010b6f8:	5c533a34 6b703201 79745f67 253d6570     4:S\.2pkg_type=%
    4010b708:	01000a78 646e3232 3201000a 6e6b6e75     x...22nd...2unkn
    4010b718:	206e776f 5f676b70 65707974 2578303d     own pkg_type=0x%
    4010b728:	01000a78 78254432 5f78255f 000a7825     x...2D%x_%x_%x..
    4010b738:	44443201 01003252 52444432 32010033     .2DDR2..2DDR3..2
    4010b748:	6e6b6e75 206e776f 646e6576 253d726f     unknown vendor=%
    4010b758:	32010064 3231352d 3201004d 0047312d     d..2-512M..2-1G.
    4010b768:	322d3201 32010047 0047342d 752d3201     .2-2G..2-4G..2-u
    4010b778:	6f6e6b6e 63206e77 63617061 3d797469     nknown capacity=
    4010b788:	01006425 46512d32 01000a4e 47422d32     %d..2-QFN...2-BG
    4010b798:	01000a41 6e752d32 776f6e6b 6b70206e     A...2-unknown pk
    4010b7a8:	64253d67 20300100 52453a45 20524f52     g=%d..0 E:ERROR 
    4010b7b8:	74736962 6961665f 01000a6c 3a452030     bist_fail...0 E:
    4010b7c8:	74736962 7365725f 20746c75 7825203d     bist_result = %x
    4010b7d8:	7265202c 61645f72 6f5f6174 3d206464     , err_data_odd =
    4010b7e8:	786c2520 7265202c 61645f72 655f6174      %lx, err_data_e
    4010b7f8:	206e6576 6c25203d 01000a78 52444432     ven = %lx...2DDR
    4010b808:	53494220 41462054 000a4c49 44443201      BIST FAIL...2DD
    4010b818:	49422052 50205453 0a535341 44320100     R BIST PASS...2D
    4010b828:	20617461 65746172 2e64253d 0000000a     ata rate=%d.....
    4010b838:	00210000 005f003e 007f009b 005d005d     ..!.>._.....].].
    4010b848:	00b800d4 120d0b00 00000017                       .........
